SF:/home/runner/work/hyperlight/hyperlight/src/hyperlight_common/src/flatbuffer_wrappers/function_call.rs
FN:261,_RNCNCNCNvXs_NtNtCs5hCjilINUCv_17hyperlight_common19flatbuffer_wrappers13function_callNtBa_12FunctionCallINtNtCs649FzoMgw5V_4core7convert7TryFromRShE8try_from0s_00Be_
FN:232,_RNCNCNvNtNtCs5hCjilINUCv_17hyperlight_common19flatbuffer_wrappers13function_call34validate_host_function_call_buffer00B9_
FN:220,_RNCNCNvNtNtCs5hCjilINUCv_17hyperlight_common19flatbuffer_wrappers13function_call35validate_guest_function_call_buffer00B9_
FN:246,_RNCNCNvXs_NtNtCs5hCjilINUCv_17hyperlight_common19flatbuffer_wrappers13function_callNtB8_12FunctionCallINtNtCs649FzoMgw5V_4core7convert7TryFromRShE8try_from00Bc_
FN:259,_RNCNCNvXs_NtNtCs5hCjilINUCv_17hyperlight_common19flatbuffer_wrappers13function_callNtB8_12FunctionCallINtNtCs649FzoMgw5V_4core7convert7TryFromRShE8try_from0s_0Bc_
FN:97,_RNCNvMNtNtCs5hCjilINUCv_17hyperlight_common19flatbuffer_wrappers13function_callNtB4_12FunctionCall6encode0B8_
FN:72,_RNvMNtNtCs5hCjilINUCv_17hyperlight_common19flatbuffer_wrappers13function_callNtB2_12FunctionCall18function_call_type
FN:57,_RNvMNtNtCs5hCjilINUCv_17hyperlight_common19flatbuffer_wrappers13function_callNtB2_12FunctionCall3new
FN:83,_RNvMNtNtCs5hCjilINUCv_17hyperlight_common19flatbuffer_wrappers13function_callNtB2_12FunctionCall6encode
FN:230,_RNvNtNtCs5hCjilINUCv_17hyperlight_common19flatbuffer_wrappers13function_call34validate_host_function_call_buffer
FN:218,_RNvNtNtCs5hCjilINUCv_17hyperlight_common19flatbuffer_wrappers13function_call35validate_guest_function_call_buffer
FN:244,_RNvXs_NtNtCs5hCjilINUCv_17hyperlight_common19flatbuffer_wrappers13function_callNtB4_12FunctionCallINtNtCs649FzoMgw5V_4core7convert7TryFromRShE8try_from
FNDA:0,_RNCNCNCNvXs_NtNtCs5hCjilINUCv_17hyperlight_common19flatbuffer_wrappers13function_callNtBa_12FunctionCallINtNtCs649FzoMgw5V_4core7convert7TryFromRShE8try_from0s_00Be_
FNDA:0,_RNCNCNvNtNtCs5hCjilINUCv_17hyperlight_common19flatbuffer_wrappers13function_call34validate_host_function_call_buffer00B9_
FNDA:0,_RNCNCNvNtNtCs5hCjilINUCv_17hyperlight_common19flatbuffer_wrappers13function_call35validate_guest_function_call_buffer00B9_
FNDA:0,_RNCNCNvXs_NtNtCs5hCjilINUCv_17hyperlight_common19flatbuffer_wrappers13function_callNtB8_12FunctionCallINtNtCs649FzoMgw5V_4core7convert7TryFromRShE8try_from00Bc_
FNDA:0,_RNCNCNvXs_NtNtCs5hCjilINUCv_17hyperlight_common19flatbuffer_wrappers13function_callNtB8_12FunctionCallINtNtCs649FzoMgw5V_4core7convert7TryFromRShE8try_from0s_0Bc_
FNDA:0,_RNCNvMNtNtCs5hCjilINUCv_17hyperlight_common19flatbuffer_wrappers13function_callNtB4_12FunctionCall6encode0B8_
FNDA:0,_RNvMNtNtCs5hCjilINUCv_17hyperlight_common19flatbuffer_wrappers13function_callNtB2_12FunctionCall18function_call_type
FNDA:0,_RNvMNtNtCs5hCjilINUCv_17hyperlight_common19flatbuffer_wrappers13function_callNtB2_12FunctionCall3new
FNDA:0,_RNvMNtNtCs5hCjilINUCv_17hyperlight_common19flatbuffer_wrappers13function_callNtB2_12FunctionCall6encode
FNDA:0,_RNvNtNtCs5hCjilINUCv_17hyperlight_common19flatbuffer_wrappers13function_call34validate_host_function_call_buffer
FNDA:0,_RNvNtNtCs5hCjilINUCv_17hyperlight_common19flatbuffer_wrappers13function_call35validate_guest_function_call_buffer
FNDA:0,_RNvXs_NtNtCs5hCjilINUCv_17hyperlight_common19flatbuffer_wrappers13function_callNtB4_12FunctionCallINtNtCs649FzoMgw5V_4core7convert7TryFromRShE8try_from
FNF:12
FNH:0
DA:57,0
DA:58,0
DA:59,0
DA:60,0
DA:61,0
DA:62,0
DA:63,0
DA:64,0
DA:65,0
DA:66,0
DA:67,0
DA:68,0
DA:69,0
DA:72,0
DA:73,0
DA:74,0
DA:83,0
DA:84,0
DA:86,0
DA:87,0
DA:88,0
DA:91,0
DA:93,0
DA:94,0
DA:95,0
DA:96,0
DA:97,0
DA:98,0
DA:99,0
DA:100,0
DA:101,0
DA:102,0
DA:103,0
DA:104,0
DA:105,0
DA:106,0
DA:108,0
DA:109,0
DA:110,0
DA:111,0
DA:112,0
DA:113,0
DA:114,0
DA:115,0
DA:116,0
DA:118,0
DA:119,0
DA:120,0
DA:121,0
DA:122,0
DA:123,0
DA:124,0
DA:125,0
DA:126,0
DA:128,0
DA:129,0
DA:130,0
DA:131,0
DA:132,0
DA:133,0
DA:134,0
DA:135,0
DA:136,0
DA:138,0
DA:139,0
DA:140,0
DA:141,0
DA:142,0
DA:143,0
DA:144,0
DA:145,0
DA:146,0
DA:148,0
DA:149,0
DA:150,0
DA:151,0
DA:152,0
DA:153,0
DA:154,0
DA:155,0
DA:156,0
DA:158,0
DA:159,0
DA:160,0
DA:161,0
DA:162,0
DA:163,0
DA:164,0
DA:165,0
DA:166,0
DA:168,0
DA:169,0
DA:170,0
DA:171,0
DA:172,0
DA:173,0
DA:174,0
DA:175,0
DA:176,0
DA:177,0
DA:178,0
DA:180,0
DA:181,0
DA:182,0
DA:183,0
DA:184,0
DA:185,0
DA:186,0
DA:187,0
DA:188,0
DA:189,0
DA:190,0
DA:191,0
DA:192,0
DA:193,0
DA:194,0
DA:196,0
DA:197,0
DA:198,0
DA:200,0
DA:203,0
DA:204,0
DA:205,0
DA:206,0
DA:207,0
DA:208,0
DA:209,0
DA:210,0
DA:211,0
DA:212,0
DA:213,0
DA:214,0
DA:218,0
DA:220,0
DA:227,0
DA:230,0
DA:232,0
DA:239,0
DA:244,0
DA:246,0
DA:259,0
DA:260,0
DA:261,0
DA:262,0
DA:263,0
DA:272,0
BRF:0
BRH:0
LF:149
LH:0
end_of_record
SF:/home/runner/work/hyperlight/hyperlight/src/hyperlight_common/src/flatbuffer_wrappers/function_types.rs
FN:161,_RNCNCNvXs_NtNtCs5hCjilINUCv_17hyperlight_common19flatbuffer_wrappers14function_typesNtB8_14ParameterValueINtNtCs649FzoMgw5V_4core7convert7TryFromNtNtNtNtNtBc_11flatbuffers10hyperlight9generated19parameter_generated9ParameterE8try_from00Bc_
FN:167,_RNCNCNvXs_NtNtCs5hCjilINUCv_17hyperlight_common19flatbuffer_wrappers14function_typesNtB8_14ParameterValueINtNtCs649FzoMgw5V_4core7convert7TryFromNtNtNtNtNtBc_11flatbuffers10hyperlight9generated19parameter_generated9ParameterE8try_from0s0_0Bc_
FN:170,_RNCNCNvXs_NtNtCs5hCjilINUCv_17hyperlight_common19flatbuffer_wrappers14function_typesNtB8_14ParameterValueINtNtCs649FzoMgw5V_4core7convert7TryFromNtNtNtNtNtBc_11flatbuffers10hyperlight9generated19parameter_generated9ParameterE8try_from0s1_0Bc_
FN:173,_RNCNCNvXs_NtNtCs5hCjilINUCv_17hyperlight_common19flatbuffer_wrappers14function_typesNtB8_14ParameterValueINtNtCs649FzoMgw5V_4core7convert7TryFromNtNtNtNtNtBc_11flatbuffers10hyperlight9generated19parameter_generated9ParameterE8try_from0s2_0Bc_
FN:176,_RNCNCNvXs_NtNtCs5hCjilINUCv_17hyperlight_common19flatbuffer_wrappers14function_typesNtB8_14ParameterValueINtNtCs649FzoMgw5V_4core7convert7TryFromNtNtNtNtNtBc_11flatbuffers10hyperlight9generated19parameter_generated9ParameterE8try_from0s3_0Bc_
FN:179,_RNCNCNvXs_NtNtCs5hCjilINUCv_17hyperlight_common19flatbuffer_wrappers14function_typesNtB8_14ParameterValueINtNtCs649FzoMgw5V_4core7convert7TryFromNtNtNtNtNtBc_11flatbuffers10hyperlight9generated19parameter_generated9ParameterE8try_from0s4_0Bc_
FN:180,_RNCNCNvXs_NtNtCs5hCjilINUCv_17hyperlight_common19flatbuffer_wrappers14function_typesNtB8_14ParameterValueINtNtCs649FzoMgw5V_4core7convert7TryFromNtNtNtNtNtBc_11flatbuffers10hyperlight9generated19parameter_generated9ParameterE8try_from0s5_0Bc_
FN:183,_RNCNCNvXs_NtNtCs5hCjilINUCv_17hyperlight_common19flatbuffer_wrappers14function_typesNtB8_14ParameterValueINtNtCs649FzoMgw5V_4core7convert7TryFromNtNtNtNtNtBc_11flatbuffers10hyperlight9generated19parameter_generated9ParameterE8try_from0s6_0Bc_
FN:190,_RNCNCNvXs_NtNtCs5hCjilINUCv_17hyperlight_common19flatbuffer_wrappers14function_typesNtB8_14ParameterValueINtNtCs649FzoMgw5V_4core7convert7TryFromNtNtNtNtNtBc_11flatbuffers10hyperlight9generated19parameter_generated9ParameterE8try_from0s7_0Bc_
FN:164,_RNCNCNvXs_NtNtCs5hCjilINUCv_17hyperlight_common19flatbuffer_wrappers14function_typesNtB8_14ParameterValueINtNtCs649FzoMgw5V_4core7convert7TryFromNtNtNtNtNtBc_11flatbuffers10hyperlight9generated19parameter_generated9ParameterE8try_from0s_0Bc_
FN:527,_RNCNCNvXsn_NtNtCs5hCjilINUCv_17hyperlight_common19flatbuffer_wrappers14function_typesNtB9_11ReturnValueINtNtCs649FzoMgw5V_4core7convert7TryFromNtNtNtNtNtBd_11flatbuffers10hyperlight9generated30function_call_result_generated18FunctionCallResultE8try_from00Bd_
FN:539,_RNCNCNvXsn_NtNtCs5hCjilINUCv_17hyperlight_common19flatbuffer_wrappers14function_typesNtB9_11ReturnValueINtNtCs649FzoMgw5V_4core7convert7TryFromNtNtNtNtNtBd_11flatbuffers10hyperlight9generated30function_call_result_generated18FunctionCallResultE8try_from0s0_0Bd_
FN:545,_RNCNCNvXsn_NtNtCs5hCjilINUCv_17hyperlight_common19flatbuffer_wrappers14function_typesNtB9_11ReturnValueINtNtCs649FzoMgw5V_4core7convert7TryFromNtNtNtNtNtBd_11flatbuffers10hyperlight9generated30function_call_result_generated18FunctionCallResultE8try_from0s1_0Bd_
FN:551,_RNCNCNvXsn_NtNtCs5hCjilINUCv_17hyperlight_common19flatbuffer_wrappers14function_typesNtB9_11ReturnValueINtNtCs649FzoMgw5V_4core7convert7TryFromNtNtNtNtNtBd_11flatbuffers10hyperlight9generated30function_call_result_generated18FunctionCallResultE8try_from0s2_0Bd_
FN:557,_RNCNCNvXsn_NtNtCs5hCjilINUCv_17hyperlight_common19flatbuffer_wrappers14function_typesNtB9_11ReturnValueINtNtCs649FzoMgw5V_4core7convert7TryFromNtNtNtNtNtBd_11flatbuffers10hyperlight9generated30function_call_result_generated18FunctionCallResultE8try_from0s3_0Bd_
FN:563,_RNCNCNvXsn_NtNtCs5hCjilINUCv_17hyperlight_common19flatbuffer_wrappers14function_typesNtB9_11ReturnValueINtNtCs649FzoMgw5V_4core7convert7TryFromNtNtNtNtNtBd_11flatbuffers10hyperlight9generated30function_call_result_generated18FunctionCallResultE8try_from0s4_0Bd_
FN:568,_RNCNCNvXsn_NtNtCs5hCjilINUCv_17hyperlight_common19flatbuffer_wrappers14function_typesNtB9_11ReturnValueINtNtCs649FzoMgw5V_4core7convert7TryFromNtNtNtNtNtBd_11flatbuffers10hyperlight9generated30function_call_result_generated18FunctionCallResultE8try_from0s5_0Bd_
FN:579,_RNCNCNvXsn_NtNtCs5hCjilINUCv_17hyperlight_common19flatbuffer_wrappers14function_typesNtB9_11ReturnValueINtNtCs649FzoMgw5V_4core7convert7TryFromNtNtNtNtNtBd_11flatbuffers10hyperlight9generated30function_call_result_generated18FunctionCallResultE8try_from0s6_0Bd_
FN:533,_RNCNCNvXsn_NtNtCs5hCjilINUCv_17hyperlight_common19flatbuffer_wrappers14function_typesNtB9_11ReturnValueINtNtCs649FzoMgw5V_4core7convert7TryFromNtNtNtNtNtBd_11flatbuffers10hyperlight9generated30function_call_result_generated18FunctionCallResultE8try_from0s_0Bd_
FN:596,_RNCNCNvXso_NtNtCs5hCjilINUCv_17hyperlight_common19flatbuffer_wrappers14function_typesNtB9_11ReturnValueINtNtCs649FzoMgw5V_4core7convert7TryFromRShE8try_from00Bd_
FN:137,_RNvXNtNtCs5hCjilINUCv_17hyperlight_common19flatbuffer_wrappers14function_typesNtB2_13ParameterTypeINtNtCs649FzoMgw5V_4core7convert4FromRNtB2_14ParameterValueE4from
FN:232,_RNvXs2_NtNtCs5hCjilINUCv_17hyperlight_common19flatbuffer_wrappers14function_typesNtB5_13ParameterTypeINtNtCs649FzoMgw5V_4core7convert7TryFromNtNtNtNtNtB9_11flatbuffers10hyperlight9generated24parameter_type_generated13ParameterTypeE8try_from
FN:253,_RNvXs3_NtNtCs5hCjilINUCv_17hyperlight_common19flatbuffer_wrappers14function_typesNtB5_10ReturnTypeINtNtCs649FzoMgw5V_4core7convert7TryFromNtNtNtNtNtB9_11flatbuffers10hyperlight9generated21return_type_generated10ReturnTypeE8try_from
FN:275,_RNvXs4_NtNtCs5hCjilINUCv_17hyperlight_common19flatbuffer_wrappers14function_typeslINtNtCs649FzoMgw5V_4core7convert7TryFromNtB5_14ParameterValueE8try_from
FN:288,_RNvXs5_NtNtCs5hCjilINUCv_17hyperlight_common19flatbuffer_wrappers14function_typesmINtNtCs649FzoMgw5V_4core7convert7TryFromNtB5_14ParameterValueE8try_from
FN:301,_RNvXs6_NtNtCs5hCjilINUCv_17hyperlight_common19flatbuffer_wrappers14function_typesxINtNtCs649FzoMgw5V_4core7convert7TryFromNtB5_14ParameterValueE8try_from
FN:314,_RNvXs7_NtNtCs5hCjilINUCv_17hyperlight_common19flatbuffer_wrappers14function_typesyINtNtCs649FzoMgw5V_4core7convert7TryFromNtB5_14ParameterValueE8try_from
FN:327,_RNvXs8_NtNtCs5hCjilINUCv_17hyperlight_common19flatbuffer_wrappers14function_typesfINtNtCs649FzoMgw5V_4core7convert7TryFromNtB5_14ParameterValueE8try_from
FN:340,_RNvXs9_NtNtCs5hCjilINUCv_17hyperlight_common19flatbuffer_wrappers14function_typesdINtNtCs649FzoMgw5V_4core7convert7TryFromNtB5_14ParameterValueE8try_from
FN:156,_RNvXs_NtNtCs5hCjilINUCv_17hyperlight_common19flatbuffer_wrappers14function_typesNtB4_14ParameterValueINtNtCs649FzoMgw5V_4core7convert7TryFromNtNtNtNtNtB8_11flatbuffers10hyperlight9generated19parameter_generated9ParameterE8try_from
FN:366,_RNvXsb_NtNtCs5hCjilINUCv_17hyperlight_common19flatbuffer_wrappers14function_typesbINtNtCs649FzoMgw5V_4core7convert7TryFromNtB5_14ParameterValueE8try_from
FN:392,_RNvXsd_NtNtCs5hCjilINUCv_17hyperlight_common19flatbuffer_wrappers14function_typeslINtNtCs649FzoMgw5V_4core7convert7TryFromNtB5_11ReturnValueE8try_from
FN:405,_RNvXse_NtNtCs5hCjilINUCv_17hyperlight_common19flatbuffer_wrappers14function_typesmINtNtCs649FzoMgw5V_4core7convert7TryFromNtB5_11ReturnValueE8try_from
FN:418,_RNvXsf_NtNtCs5hCjilINUCv_17hyperlight_common19flatbuffer_wrappers14function_typesxINtNtCs649FzoMgw5V_4core7convert7TryFromNtB5_11ReturnValueE8try_from
FN:431,_RNvXsg_NtNtCs5hCjilINUCv_17hyperlight_common19flatbuffer_wrappers14function_typesyINtNtCs649FzoMgw5V_4core7convert7TryFromNtB5_11ReturnValueE8try_from
FN:444,_RNvXsh_NtNtCs5hCjilINUCv_17hyperlight_common19flatbuffer_wrappers14function_typesfINtNtCs649FzoMgw5V_4core7convert7TryFromNtB5_11ReturnValueE8try_from
FN:457,_RNvXsi_NtNtCs5hCjilINUCv_17hyperlight_common19flatbuffer_wrappers14function_typesdINtNtCs649FzoMgw5V_4core7convert7TryFromNtB5_11ReturnValueE8try_from
FN:483,_RNvXsk_NtNtCs5hCjilINUCv_17hyperlight_common19flatbuffer_wrappers14function_typesbINtNtCs649FzoMgw5V_4core7convert7TryFromNtB5_11ReturnValueE8try_from
FN:509,_RNvXsm_NtNtCs5hCjilINUCv_17hyperlight_common19flatbuffer_wrappers14function_typesuINtNtCs649FzoMgw5V_4core7convert7TryFromNtB5_11ReturnValueE8try_from
FN:522,_RNvXsn_NtNtCs5hCjilINUCv_17hyperlight_common19flatbuffer_wrappers14function_typesNtB5_11ReturnValueINtNtCs649FzoMgw5V_4core7convert7TryFromNtNtNtNtNtB9_11flatbuffers10hyperlight9generated30function_call_result_generated18FunctionCallResultE8try_from
FN:594,_RNvXso_NtNtCs5hCjilINUCv_17hyperlight_common19flatbuffer_wrappers14function_typesNtB5_11ReturnValueINtNtCs649FzoMgw5V_4core7convert7TryFromRShE8try_from
FN:379,_RNvXsc_NtNtCs5hCjilINUCv_17hyperlight_common19flatbuffer_wrappers14function_typesINtNtCs7h7qHWfF5BF_5alloc3vec3VechEINtNtCs649FzoMgw5V_4core7convert7TryFromNtB5_14ParameterValueE8try_from
FN:496,_RNvXsl_NtNtCs5hCjilINUCv_17hyperlight_common19flatbuffer_wrappers14function_typesINtNtCs7h7qHWfF5BF_5alloc3vec3VechEINtNtCs649FzoMgw5V_4core7convert7TryFromNtB5_11ReturnValueE8try_from
FN:604,_RNvXsp_NtNtCs5hCjilINUCv_17hyperlight_common19flatbuffer_wrappers14function_typesINtNtCs7h7qHWfF5BF_5alloc3vec3VechEINtNtCs649FzoMgw5V_4core7convert7TryFromRNtB5_11ReturnValueE8try_from
FN:196,_RNvXs0_NtNtCs5hCjilINUCv_17hyperlight_common19flatbuffer_wrappers14function_typesNtNtNtNtNtB9_11flatbuffers10hyperlight9generated24parameter_type_generated13ParameterTypeINtNtCs649FzoMgw5V_4core7convert4FromNtB5_13ParameterTypeE4from
FN:213,_RNvXs1_NtNtCs5hCjilINUCv_17hyperlight_common19flatbuffer_wrappers14function_typesNtNtNtNtNtB9_11flatbuffers10hyperlight9generated21return_type_generated10ReturnTypeINtNtCs649FzoMgw5V_4core7convert4FromNtB5_10ReturnTypeE4from
FN:353,_RNvXsa_NtNtCs5hCjilINUCv_17hyperlight_common19flatbuffer_wrappers14function_typesNtNtCs7h7qHWfF5BF_5alloc6string6StringINtNtCs649FzoMgw5V_4core7convert7TryFromNtB5_14ParameterValueE8try_from
FN:470,_RNvXsj_NtNtCs5hCjilINUCv_17hyperlight_common19flatbuffer_wrappers14function_typesNtNtCs7h7qHWfF5BF_5alloc6string6StringINtNtCs649FzoMgw5V_4core7convert7TryFromNtB5_11ReturnValueE8try_from
FNDA:0,_RNCNCNvXs_NtNtCs5hCjilINUCv_17hyperlight_common19flatbuffer_wrappers14function_typesNtB8_14ParameterValueINtNtCs649FzoMgw5V_4core7convert7TryFromNtNtNtNtNtBc_11flatbuffers10hyperlight9generated19parameter_generated9ParameterE8try_from00Bc_
FNDA:0,_RNCNCNvXs_NtNtCs5hCjilINUCv_17hyperlight_common19flatbuffer_wrappers14function_typesNtB8_14ParameterValueINtNtCs649FzoMgw5V_4core7convert7TryFromNtNtNtNtNtBc_11flatbuffers10hyperlight9generated19parameter_generated9ParameterE8try_from0s0_0Bc_
FNDA:0,_RNCNCNvXs_NtNtCs5hCjilINUCv_17hyperlight_common19flatbuffer_wrappers14function_typesNtB8_14ParameterValueINtNtCs649FzoMgw5V_4core7convert7TryFromNtNtNtNtNtBc_11flatbuffers10hyperlight9generated19parameter_generated9ParameterE8try_from0s1_0Bc_
FNDA:0,_RNCNCNvXs_NtNtCs5hCjilINUCv_17hyperlight_common19flatbuffer_wrappers14function_typesNtB8_14ParameterValueINtNtCs649FzoMgw5V_4core7convert7TryFromNtNtNtNtNtBc_11flatbuffers10hyperlight9generated19parameter_generated9ParameterE8try_from0s2_0Bc_
FNDA:0,_RNCNCNvXs_NtNtCs5hCjilINUCv_17hyperlight_common19flatbuffer_wrappers14function_typesNtB8_14ParameterValueINtNtCs649FzoMgw5V_4core7convert7TryFromNtNtNtNtNtBc_11flatbuffers10hyperlight9generated19parameter_generated9ParameterE8try_from0s3_0Bc_
FNDA:0,_RNCNCNvXs_NtNtCs5hCjilINUCv_17hyperlight_common19flatbuffer_wrappers14function_typesNtB8_14ParameterValueINtNtCs649FzoMgw5V_4core7convert7TryFromNtNtNtNtNtBc_11flatbuffers10hyperlight9generated19parameter_generated9ParameterE8try_from0s4_0Bc_
FNDA:0,_RNCNCNvXs_NtNtCs5hCjilINUCv_17hyperlight_common19flatbuffer_wrappers14function_typesNtB8_14ParameterValueINtNtCs649FzoMgw5V_4core7convert7TryFromNtNtNtNtNtBc_11flatbuffers10hyperlight9generated19parameter_generated9ParameterE8try_from0s5_0Bc_
FNDA:0,_RNCNCNvXs_NtNtCs5hCjilINUCv_17hyperlight_common19flatbuffer_wrappers14function_typesNtB8_14ParameterValueINtNtCs649FzoMgw5V_4core7convert7TryFromNtNtNtNtNtBc_11flatbuffers10hyperlight9generated19parameter_generated9ParameterE8try_from0s6_0Bc_
FNDA:0,_RNCNCNvXs_NtNtCs5hCjilINUCv_17hyperlight_common19flatbuffer_wrappers14function_typesNtB8_14ParameterValueINtNtCs649FzoMgw5V_4core7convert7TryFromNtNtNtNtNtBc_11flatbuffers10hyperlight9generated19parameter_generated9ParameterE8try_from0s7_0Bc_
FNDA:0,_RNCNCNvXs_NtNtCs5hCjilINUCv_17hyperlight_common19flatbuffer_wrappers14function_typesNtB8_14ParameterValueINtNtCs649FzoMgw5V_4core7convert7TryFromNtNtNtNtNtBc_11flatbuffers10hyperlight9generated19parameter_generated9ParameterE8try_from0s_0Bc_
FNDA:0,_RNCNCNvXsn_NtNtCs5hCjilINUCv_17hyperlight_common19flatbuffer_wrappers14function_typesNtB9_11ReturnValueINtNtCs649FzoMgw5V_4core7convert7TryFromNtNtNtNtNtBd_11flatbuffers10hyperlight9generated30function_call_result_generated18FunctionCallResultE8try_from00Bd_
FNDA:0,_RNCNCNvXsn_NtNtCs5hCjilINUCv_17hyperlight_common19flatbuffer_wrappers14function_typesNtB9_11ReturnValueINtNtCs649FzoMgw5V_4core7convert7TryFromNtNtNtNtNtBd_11flatbuffers10hyperlight9generated30function_call_result_generated18FunctionCallResultE8try_from0s0_0Bd_
FNDA:0,_RNCNCNvXsn_NtNtCs5hCjilINUCv_17hyperlight_common19flatbuffer_wrappers14function_typesNtB9_11ReturnValueINtNtCs649FzoMgw5V_4core7convert7TryFromNtNtNtNtNtBd_11flatbuffers10hyperlight9generated30function_call_result_generated18FunctionCallResultE8try_from0s1_0Bd_
FNDA:0,_RNCNCNvXsn_NtNtCs5hCjilINUCv_17hyperlight_common19flatbuffer_wrappers14function_typesNtB9_11ReturnValueINtNtCs649FzoMgw5V_4core7convert7TryFromNtNtNtNtNtBd_11flatbuffers10hyperlight9generated30function_call_result_generated18FunctionCallResultE8try_from0s2_0Bd_
FNDA:0,_RNCNCNvXsn_NtNtCs5hCjilINUCv_17hyperlight_common19flatbuffer_wrappers14function_typesNtB9_11ReturnValueINtNtCs649FzoMgw5V_4core7convert7TryFromNtNtNtNtNtBd_11flatbuffers10hyperlight9generated30function_call_result_generated18FunctionCallResultE8try_from0s3_0Bd_
FNDA:0,_RNCNCNvXsn_NtNtCs5hCjilINUCv_17hyperlight_common19flatbuffer_wrappers14function_typesNtB9_11ReturnValueINtNtCs649FzoMgw5V_4core7convert7TryFromNtNtNtNtNtBd_11flatbuffers10hyperlight9generated30function_call_result_generated18FunctionCallResultE8try_from0s4_0Bd_
FNDA:0,_RNCNCNvXsn_NtNtCs5hCjilINUCv_17hyperlight_common19flatbuffer_wrappers14function_typesNtB9_11ReturnValueINtNtCs649FzoMgw5V_4core7convert7TryFromNtNtNtNtNtBd_11flatbuffers10hyperlight9generated30function_call_result_generated18FunctionCallResultE8try_from0s5_0Bd_
FNDA:0,_RNCNCNvXsn_NtNtCs5hCjilINUCv_17hyperlight_common19flatbuffer_wrappers14function_typesNtB9_11ReturnValueINtNtCs649FzoMgw5V_4core7convert7TryFromNtNtNtNtNtBd_11flatbuffers10hyperlight9generated30function_call_result_generated18FunctionCallResultE8try_from0s6_0Bd_
FNDA:0,_RNCNCNvXsn_NtNtCs5hCjilINUCv_17hyperlight_common19flatbuffer_wrappers14function_typesNtB9_11ReturnValueINtNtCs649FzoMgw5V_4core7convert7TryFromNtNtNtNtNtBd_11flatbuffers10hyperlight9generated30function_call_result_generated18FunctionCallResultE8try_from0s_0Bd_
FNDA:0,_RNCNCNvXso_NtNtCs5hCjilINUCv_17hyperlight_common19flatbuffer_wrappers14function_typesNtB9_11ReturnValueINtNtCs649FzoMgw5V_4core7convert7TryFromRShE8try_from00Bd_
FNDA:0,_RNvXNtNtCs5hCjilINUCv_17hyperlight_common19flatbuffer_wrappers14function_typesNtB2_13ParameterTypeINtNtCs649FzoMgw5V_4core7convert4FromRNtB2_14ParameterValueE4from
FNDA:72,_RNvXs2_NtNtCs5hCjilINUCv_17hyperlight_common19flatbuffer_wrappers14function_typesNtB5_13ParameterTypeINtNtCs649FzoMgw5V_4core7convert7TryFromNtNtNtNtNtB9_11flatbuffers10hyperlight9generated24parameter_type_generated13ParameterTypeE8try_from
FNDA:75,_RNvXs3_NtNtCs5hCjilINUCv_17hyperlight_common19flatbuffer_wrappers14function_typesNtB5_10ReturnTypeINtNtCs649FzoMgw5V_4core7convert7TryFromNtNtNtNtNtB9_11flatbuffers10hyperlight9generated21return_type_generated10ReturnTypeE8try_from
FNDA:0,_RNvXs4_NtNtCs5hCjilINUCv_17hyperlight_common19flatbuffer_wrappers14function_typeslINtNtCs649FzoMgw5V_4core7convert7TryFromNtB5_14ParameterValueE8try_from
FNDA:0,_RNvXs5_NtNtCs5hCjilINUCv_17hyperlight_common19flatbuffer_wrappers14function_typesmINtNtCs649FzoMgw5V_4core7convert7TryFromNtB5_14ParameterValueE8try_from
FNDA:0,_RNvXs6_NtNtCs5hCjilINUCv_17hyperlight_common19flatbuffer_wrappers14function_typesxINtNtCs649FzoMgw5V_4core7convert7TryFromNtB5_14ParameterValueE8try_from
FNDA:0,_RNvXs7_NtNtCs5hCjilINUCv_17hyperlight_common19flatbuffer_wrappers14function_typesyINtNtCs649FzoMgw5V_4core7convert7TryFromNtB5_14ParameterValueE8try_from
FNDA:0,_RNvXs8_NtNtCs5hCjilINUCv_17hyperlight_common19flatbuffer_wrappers14function_typesfINtNtCs649FzoMgw5V_4core7convert7TryFromNtB5_14ParameterValueE8try_from
FNDA:0,_RNvXs9_NtNtCs5hCjilINUCv_17hyperlight_common19flatbuffer_wrappers14function_typesdINtNtCs649FzoMgw5V_4core7convert7TryFromNtB5_14ParameterValueE8try_from
FNDA:0,_RNvXs_NtNtCs5hCjilINUCv_17hyperlight_common19flatbuffer_wrappers14function_typesNtB4_14ParameterValueINtNtCs649FzoMgw5V_4core7convert7TryFromNtNtNtNtNtB8_11flatbuffers10hyperlight9generated19parameter_generated9ParameterE8try_from
FNDA:0,_RNvXsb_NtNtCs5hCjilINUCv_17hyperlight_common19flatbuffer_wrappers14function_typesbINtNtCs649FzoMgw5V_4core7convert7TryFromNtB5_14ParameterValueE8try_from
FNDA:23,_RNvXsd_NtNtCs5hCjilINUCv_17hyperlight_common19flatbuffer_wrappers14function_typeslINtNtCs649FzoMgw5V_4core7convert7TryFromNtB5_11ReturnValueE8try_from
FNDA:0,_RNvXse_NtNtCs5hCjilINUCv_17hyperlight_common19flatbuffer_wrappers14function_typesmINtNtCs649FzoMgw5V_4core7convert7TryFromNtB5_11ReturnValueE8try_from
FNDA:0,_RNvXsf_NtNtCs5hCjilINUCv_17hyperlight_common19flatbuffer_wrappers14function_typesxINtNtCs649FzoMgw5V_4core7convert7TryFromNtB5_11ReturnValueE8try_from
FNDA:0,_RNvXsg_NtNtCs5hCjilINUCv_17hyperlight_common19flatbuffer_wrappers14function_typesyINtNtCs649FzoMgw5V_4core7convert7TryFromNtB5_11ReturnValueE8try_from
FNDA:0,_RNvXsh_NtNtCs5hCjilINUCv_17hyperlight_common19flatbuffer_wrappers14function_typesfINtNtCs649FzoMgw5V_4core7convert7TryFromNtB5_11ReturnValueE8try_from
FNDA:0,_RNvXsi_NtNtCs5hCjilINUCv_17hyperlight_common19flatbuffer_wrappers14function_typesdINtNtCs649FzoMgw5V_4core7convert7TryFromNtB5_11ReturnValueE8try_from
FNDA:0,_RNvXsk_NtNtCs5hCjilINUCv_17hyperlight_common19flatbuffer_wrappers14function_typesbINtNtCs649FzoMgw5V_4core7convert7TryFromNtB5_11ReturnValueE8try_from
FNDA:0,_RNvXsm_NtNtCs5hCjilINUCv_17hyperlight_common19flatbuffer_wrappers14function_typesuINtNtCs649FzoMgw5V_4core7convert7TryFromNtB5_11ReturnValueE8try_from
FNDA:0,_RNvXsn_NtNtCs5hCjilINUCv_17hyperlight_common19flatbuffer_wrappers14function_typesNtB5_11ReturnValueINtNtCs649FzoMgw5V_4core7convert7TryFromNtNtNtNtNtB9_11flatbuffers10hyperlight9generated30function_call_result_generated18FunctionCallResultE8try_from
FNDA:0,_RNvXso_NtNtCs5hCjilINUCv_17hyperlight_common19flatbuffer_wrappers14function_typesNtB5_11ReturnValueINtNtCs649FzoMgw5V_4core7convert7TryFromRShE8try_from
FNDA:0,_RNvXsc_NtNtCs5hCjilINUCv_17hyperlight_common19flatbuffer_wrappers14function_typesINtNtCs7h7qHWfF5BF_5alloc3vec3VechEINtNtCs649FzoMgw5V_4core7convert7TryFromNtB5_14ParameterValueE8try_from
FNDA:0,_RNvXsl_NtNtCs5hCjilINUCv_17hyperlight_common19flatbuffer_wrappers14function_typesINtNtCs7h7qHWfF5BF_5alloc3vec3VechEINtNtCs649FzoMgw5V_4core7convert7TryFromNtB5_11ReturnValueE8try_from
FNDA:0,_RNvXsp_NtNtCs5hCjilINUCv_17hyperlight_common19flatbuffer_wrappers14function_typesINtNtCs7h7qHWfF5BF_5alloc3vec3VechEINtNtCs649FzoMgw5V_4core7convert7TryFromRNtB5_11ReturnValueE8try_from
FNDA:144,_RNvXs0_NtNtCs5hCjilINUCv_17hyperlight_common19flatbuffer_wrappers14function_typesNtNtNtNtNtB9_11flatbuffers10hyperlight9generated24parameter_type_generated13ParameterTypeINtNtCs649FzoMgw5V_4core7convert4FromNtB5_13ParameterTypeE4from
FNDA:150,_RNvXs1_NtNtCs5hCjilINUCv_17hyperlight_common19flatbuffer_wrappers14function_typesNtNtNtNtNtB9_11flatbuffers10hyperlight9generated21return_type_generated10ReturnTypeINtNtCs649FzoMgw5V_4core7convert4FromNtB5_10ReturnTypeE4from
FNDA:0,_RNvXsa_NtNtCs5hCjilINUCv_17hyperlight_common19flatbuffer_wrappers14function_typesNtNtCs7h7qHWfF5BF_5alloc6string6StringINtNtCs649FzoMgw5V_4core7convert7TryFromNtB5_14ParameterValueE8try_from
FNDA:0,_RNvXsj_NtNtCs5hCjilINUCv_17hyperlight_common19flatbuffer_wrappers14function_typesNtNtCs7h7qHWfF5BF_5alloc6string6StringINtNtCs649FzoMgw5V_4core7convert7TryFromNtB5_11ReturnValueE8try_from
FNF:48
FNH:5
DA:137,0
DA:138,0
DA:139,0
DA:140,0
DA:141,0
DA:142,0
DA:143,0
DA:144,0
DA:145,0
DA:146,0
DA:147,0
DA:149,0
DA:156,0
DA:161,0
DA:164,0
DA:167,0
DA:170,0
DA:173,0
DA:176,0
DA:179,0
DA:180,0
DA:181,0
DA:182,0
DA:183,0
DA:184,0
DA:185,0
DA:190,0
DA:191,0
DA:196,144
DA:197,144
DA:198,2
DA:199,0
DA:200,0
DA:201,0
DA:202,0
DA:203,0
DA:204,142
DA:205,0
DA:206,0
DA:208,144
DA:213,150
DA:214,150
DA:215,144
DA:216,0
DA:217,2
DA:218,0
DA:219,0
DA:220,0
DA:221,0
DA:222,0
DA:223,4
DA:224,0
DA:226,150
DA:232,72
DA:233,72
DA:247,72
DA:253,75
DA:254,75
DA:269,75
DA:275,0
DA:276,0
DA:282,0
DA:288,0
DA:289,0
DA:295,0
DA:301,0
DA:302,0
DA:308,0
DA:314,0
DA:315,0
DA:321,0
DA:327,0
DA:328,0
DA:334,0
DA:340,0
DA:341,0
DA:347,0
DA:353,0
DA:354,0
DA:360,0
DA:366,0
DA:367,0
DA:373,0
DA:379,0
DA:380,0
DA:386,0
DA:392,23
DA:393,23
DA:399,23
DA:405,0
DA:406,0
DA:412,0
DA:418,0
DA:419,0
DA:425,0
DA:431,0
DA:432,0
DA:438,0
DA:444,0
DA:445,0
DA:451,0
DA:457,0
DA:458,0
DA:464,0
DA:470,0
DA:471,0
DA:477,0
DA:483,0
DA:484,0
DA:490,0
DA:496,0
DA:497,0
DA:503,0
DA:509,0
DA:510,0
DA:516,0
DA:522,0
DA:527,0
DA:533,0
DA:539,0
DA:545,0
DA:551,0
DA:557,0
DA:563,0
DA:568,0
DA:579,0
DA:588,0
DA:594,0
DA:596,0
DA:598,0
DA:604,0
DA:606,0
DA:742,0
BRF:0
BRH:0
LF:133
LH:20
end_of_record
SF:/home/runner/work/hyperlight/hyperlight/src/hyperlight_common/src/flatbuffer_wrappers/guest_error.rs
FN:217,_RNvXs5_NtNtCs5hCjilINUCv_17hyperlight_common19flatbuffer_wrappers11guest_errorINtNtCs7h7qHWfF5BF_5alloc3vec3VechEINtNtCs649FzoMgw5V_4core7convert7TryFromRNtB5_10GuestErrorE8try_from
FN:201,_RNCNvXs4_NtNtCs5hCjilINUCv_17hyperlight_common19flatbuffer_wrappers11guest_errorNtB7_10GuestErrorINtNtCs649FzoMgw5V_4core7convert7TryFromRShE8try_from0Bb_
FN:192,_RNvMs3_NtNtCs5hCjilINUCv_17hyperlight_common19flatbuffer_wrappers11guest_errorNtB5_10GuestError3new
FN:108,_RNvXs0_NtNtCs5hCjilINUCv_17hyperlight_common19flatbuffer_wrappers11guest_errorNtB5_9ErrorCodeINtNtCs649FzoMgw5V_4core7convert4FromyE4from
FN:132,_RNvXs1_NtNtCs5hCjilINUCv_17hyperlight_common19flatbuffer_wrappers11guest_erroryINtNtCs649FzoMgw5V_4core7convert4FromNtB5_9ErrorCodeE4from
FN:199,_RNvXs4_NtNtCs5hCjilINUCv_17hyperlight_common19flatbuffer_wrappers11guest_errorNtB5_10GuestErrorINtNtCs649FzoMgw5V_4core7convert7TryFromRShE8try_from
FN:237,_RNvXs6_NtNtCs5hCjilINUCv_17hyperlight_common19flatbuffer_wrappers11guest_errorNtB5_10GuestErrorNtNtCs649FzoMgw5V_4core7default7Default7default
FN:81,_RNvXs_NtNtCs5hCjilINUCv_17hyperlight_common19flatbuffer_wrappers11guest_errorNtB4_9ErrorCodeINtNtCs649FzoMgw5V_4core7convert4FromNtNtNtNtNtB8_11flatbuffers10hyperlight9generated20error_code_generated9ErrorCodeE4from
FN:54,_RNvXNtNtCs5hCjilINUCv_17hyperlight_common19flatbuffer_wrappers11guest_errorNtNtNtNtNtB6_11flatbuffers10hyperlight9generated20error_code_generated9ErrorCodeINtNtCs649FzoMgw5V_4core7convert4FromNtB2_9ErrorCodeE4from
FN:155,_RNvXs2_NtNtCs5hCjilINUCv_17hyperlight_common19flatbuffer_wrappers11guest_errorNtNtCs7h7qHWfF5BF_5alloc6string6StringINtNtCs649FzoMgw5V_4core7convert4FromNtB5_9ErrorCodeE4from
FNDA:0,_RNvXs5_NtNtCs5hCjilINUCv_17hyperlight_common19flatbuffer_wrappers11guest_errorINtNtCs7h7qHWfF5BF_5alloc3vec3VechEINtNtCs649FzoMgw5V_4core7convert7TryFromRNtB5_10GuestErrorE8try_from
FNDA:0,_RNCNvXs4_NtNtCs5hCjilINUCv_17hyperlight_common19flatbuffer_wrappers11guest_errorNtB7_10GuestErrorINtNtCs649FzoMgw5V_4core7convert7TryFromRShE8try_from0Bb_
FNDA:0,_RNvMs3_NtNtCs5hCjilINUCv_17hyperlight_common19flatbuffer_wrappers11guest_errorNtB5_10GuestError3new
FNDA:0,_RNvXs0_NtNtCs5hCjilINUCv_17hyperlight_common19flatbuffer_wrappers11guest_errorNtB5_9ErrorCodeINtNtCs649FzoMgw5V_4core7convert4FromyE4from
FNDA:0,_RNvXs1_NtNtCs5hCjilINUCv_17hyperlight_common19flatbuffer_wrappers11guest_erroryINtNtCs649FzoMgw5V_4core7convert4FromNtB5_9ErrorCodeE4from
FNDA:0,_RNvXs4_NtNtCs5hCjilINUCv_17hyperlight_common19flatbuffer_wrappers11guest_errorNtB5_10GuestErrorINtNtCs649FzoMgw5V_4core7convert7TryFromRShE8try_from
FNDA:0,_RNvXs6_NtNtCs5hCjilINUCv_17hyperlight_common19flatbuffer_wrappers11guest_errorNtB5_10GuestErrorNtNtCs649FzoMgw5V_4core7default7Default7default
FNDA:0,_RNvXs_NtNtCs5hCjilINUCv_17hyperlight_common19flatbuffer_wrappers11guest_errorNtB4_9ErrorCodeINtNtCs649FzoMgw5V_4core7convert4FromNtNtNtNtNtB8_11flatbuffers10hyperlight9generated20error_code_generated9ErrorCodeE4from
FNDA:0,_RNvXNtNtCs5hCjilINUCv_17hyperlight_common19flatbuffer_wrappers11guest_errorNtNtNtNtNtB6_11flatbuffers10hyperlight9generated20error_code_generated9ErrorCodeINtNtCs649FzoMgw5V_4core7convert4FromNtB2_9ErrorCodeE4from
FNDA:0,_RNvXs2_NtNtCs5hCjilINUCv_17hyperlight_common19flatbuffer_wrappers11guest_errorNtNtCs7h7qHWfF5BF_5alloc6string6StringINtNtCs649FzoMgw5V_4core7convert4FromNtB5_9ErrorCodeE4from
FNF:10
FNH:0
DA:54,0
DA:55,0
DA:56,0
DA:57,0
DA:58,0
DA:59,0
DA:61,0
DA:63,0
DA:64,0
DA:65,0
DA:66,0
DA:67,0
DA:68,0
DA:69,0
DA:70,0
DA:72,0
DA:74,0
DA:75,0
DA:77,0
DA:81,0
DA:82,0
DA:83,0
DA:84,0
DA:85,0
DA:86,0
DA:88,0
DA:90,0
DA:91,0
DA:92,0
DA:93,0
DA:94,0
DA:95,0
DA:96,0
DA:98,0
DA:100,0
DA:101,0
DA:102,0
DA:104,0
DA:108,0
DA:109,0
DA:110,0
DA:111,0
DA:112,0
DA:113,0
DA:114,0
DA:115,0
DA:116,0
DA:117,0
DA:118,0
DA:119,0
DA:120,0
DA:121,0
DA:122,0
DA:123,0
DA:124,0
DA:125,0
DA:126,0
DA:128,0
DA:132,0
DA:133,0
DA:134,0
DA:135,0
DA:136,0
DA:137,0
DA:138,0
DA:139,0
DA:140,0
DA:141,0
DA:142,0
DA:143,0
DA:144,0
DA:145,0
DA:146,0
DA:147,0
DA:148,0
DA:149,0
DA:151,0
DA:155,0
DA:156,0
DA:157,0
DA:158,0
DA:159,0
DA:160,0
DA:162,0
DA:164,0
DA:165,0
DA:166,0
DA:167,0
DA:168,0
DA:169,0
DA:170,0
DA:171,0
DA:173,0
DA:175,0
DA:176,0
DA:178,0
DA:192,0
DA:193,0
DA:194,0
DA:199,0
DA:200,0
DA:201,0
DA:202,0
DA:203,0
DA:204,0
DA:205,0
DA:207,0
DA:208,0
DA:209,0
DA:210,0
DA:211,0
DA:217,0
DA:232,0
DA:237,0
DA:238,0
DA:239,0
DA:240,0
DA:241,0
DA:242,0
BRF:0
BRH:0
LF:120
LH:0
end_of_record
SF:/home/runner/work/hyperlight/hyperlight/src/hyperlight_common/src/flatbuffer_wrappers/guest_log_data.rs
FN:90,_RNvXs0_NtNtCs5hCjilINUCv_17hyperlight_common19flatbuffer_wrappers14guest_log_dataINtNtCs7h7qHWfF5BF_5alloc3vec3VechEINtNtCs649FzoMgw5V_4core7convert7TryFromRNtB5_12GuestLogDataE8try_from
FN:119,_RNvXs1_NtNtCs5hCjilINUCv_17hyperlight_common19flatbuffer_wrappers14guest_log_dataINtNtCs7h7qHWfF5BF_5alloc3vec3VechEINtNtCs649FzoMgw5V_4core7convert7TryFromNtB5_12GuestLogDataE8try_from
FN:126,_RNCNCNvNtNtCs5hCjilINUCv_17hyperlight_common19flatbuffer_wrappers14guest_log_data24convert_generated_option00B9_
FN:127,_RNCNCNvNtNtCs5hCjilINUCv_17hyperlight_common19flatbuffer_wrappers14guest_log_data24convert_generated_option0s_0B9_
FN:68,_RNCNCNvXs_NtNtCs5hCjilINUCv_17hyperlight_common19flatbuffer_wrappers14guest_log_dataNtB8_12GuestLogDataINtNtCs649FzoMgw5V_4core7convert7TryFromRShE8try_from00Bc_
FN:44,_RNvMNtNtCs5hCjilINUCv_17hyperlight_common19flatbuffer_wrappers14guest_log_dataNtB2_12GuestLogData3new
FN:125,_RNvNtNtCs5hCjilINUCv_17hyperlight_common19flatbuffer_wrappers14guest_log_data24convert_generated_option
FN:66,_RNvXs_NtNtCs5hCjilINUCv_17hyperlight_common19flatbuffer_wrappers14guest_log_dataNtB4_12GuestLogDataINtNtCs649FzoMgw5V_4core7convert7TryFromRShE8try_from
FNDA:0,_RNvXs0_NtNtCs5hCjilINUCv_17hyperlight_common19flatbuffer_wrappers14guest_log_dataINtNtCs7h7qHWfF5BF_5alloc3vec3VechEINtNtCs649FzoMgw5V_4core7convert7TryFromRNtB5_12GuestLogDataE8try_from
FNDA:0,_RNvXs1_NtNtCs5hCjilINUCv_17hyperlight_common19flatbuffer_wrappers14guest_log_dataINtNtCs7h7qHWfF5BF_5alloc3vec3VechEINtNtCs649FzoMgw5V_4core7convert7TryFromNtB5_12GuestLogDataE8try_from
FNDA:0,_RNCNCNvNtNtCs5hCjilINUCv_17hyperlight_common19flatbuffer_wrappers14guest_log_data24convert_generated_option00B9_
FNDA:0,_RNCNCNvNtNtCs5hCjilINUCv_17hyperlight_common19flatbuffer_wrappers14guest_log_data24convert_generated_option0s_0B9_
FNDA:0,_RNCNCNvXs_NtNtCs5hCjilINUCv_17hyperlight_common19flatbuffer_wrappers14guest_log_dataNtB8_12GuestLogDataINtNtCs649FzoMgw5V_4core7convert7TryFromRShE8try_from00Bc_
FNDA:0,_RNvMNtNtCs5hCjilINUCv_17hyperlight_common19flatbuffer_wrappers14guest_log_dataNtB2_12GuestLogData3new
FNDA:0,_RNvNtNtCs5hCjilINUCv_17hyperlight_common19flatbuffer_wrappers14guest_log_data24convert_generated_option
FNDA:0,_RNvXs_NtNtCs5hCjilINUCv_17hyperlight_common19flatbuffer_wrappers14guest_log_dataNtB4_12GuestLogDataINtNtCs649FzoMgw5V_4core7convert7TryFromRShE8try_from
FNF:8
FNH:0
DA:44,0
DA:45,0
DA:46,0
DA:47,0
DA:48,0
DA:49,0
DA:50,0
DA:51,0
DA:52,0
DA:53,0
DA:54,0
DA:55,0
DA:56,0
DA:57,0
DA:58,0
DA:59,0
DA:60,0
DA:66,0
DA:68,0
DA:84,0
DA:90,0
DA:113,0
DA:119,0
DA:121,0
DA:125,0
DA:126,0
DA:127,0
DA:128,0
BRF:0
BRH:0
LF:28
LH:0
end_of_record
SF:/home/runner/work/hyperlight/hyperlight/src/hyperlight_common/src/flatbuffer_wrappers/guest_log_level.rs
FN:38,_RNvXNtNtCs5hCjilINUCv_17hyperlight_common19flatbuffer_wrappers15guest_log_levelNtB2_8LogLevelINtNtCs649FzoMgw5V_4core7convert4FromhE4from
FN:105,_RNvXs2_NtNtCs5hCjilINUCv_17hyperlight_common19flatbuffer_wrappers15guest_log_levelNtB5_8LogLevelINtNtCs649FzoMgw5V_4core7convert4FromNtCs6LoaI5J4jQ3_3log5LevelE4from
FN:54,_RNvXs_NtNtCs5hCjilINUCv_17hyperlight_common19flatbuffer_wrappers15guest_log_levelNtB4_8LogLevelINtNtCs649FzoMgw5V_4core7convert7TryFromRNtNtNtNtNtB8_11flatbuffers10hyperlight9generated19log_level_generated8LogLevelE8try_from
FN:72,_RNvXs0_NtNtCs5hCjilINUCv_17hyperlight_common19flatbuffer_wrappers15guest_log_levelNtNtNtNtNtB9_11flatbuffers10hyperlight9generated19log_level_generated8LogLevelINtNtCs649FzoMgw5V_4core7convert4FromRNtB5_8LogLevelE4from
FN:90,_RNvXs1_NtNtCs5hCjilINUCv_17hyperlight_common19flatbuffer_wrappers15guest_log_levelNtCs6LoaI5J4jQ3_3log5LevelINtNtCs649FzoMgw5V_4core7convert4FromRNtB5_8LogLevelE4from
FNDA:0,_RNvXNtNtCs5hCjilINUCv_17hyperlight_common19flatbuffer_wrappers15guest_log_levelNtB2_8LogLevelINtNtCs649FzoMgw5V_4core7convert4FromhE4from
FNDA:0,_RNvXs2_NtNtCs5hCjilINUCv_17hyperlight_common19flatbuffer_wrappers15guest_log_levelNtB5_8LogLevelINtNtCs649FzoMgw5V_4core7convert4FromNtCs6LoaI5J4jQ3_3log5LevelE4from
FNDA:0,_RNvXs_NtNtCs5hCjilINUCv_17hyperlight_common19flatbuffer_wrappers15guest_log_levelNtB4_8LogLevelINtNtCs649FzoMgw5V_4core7convert7TryFromRNtNtNtNtNtB8_11flatbuffers10hyperlight9generated19log_level_generated8LogLevelE8try_from
FNDA:0,_RNvXs0_NtNtCs5hCjilINUCv_17hyperlight_common19flatbuffer_wrappers15guest_log_levelNtNtNtNtNtB9_11flatbuffers10hyperlight9generated19log_level_generated8LogLevelINtNtCs649FzoMgw5V_4core7convert4FromRNtB5_8LogLevelE4from
FNDA:0,_RNvXs1_NtNtCs5hCjilINUCv_17hyperlight_common19flatbuffer_wrappers15guest_log_levelNtCs6LoaI5J4jQ3_3log5LevelINtNtCs649FzoMgw5V_4core7convert4FromRNtB5_8LogLevelE4from
FNF:5
FNH:0
DA:38,0
DA:39,0
DA:40,0
DA:41,0
DA:42,0
DA:43,0
DA:44,0
DA:45,0
DA:46,0
DA:48,0
DA:54,0
DA:55,0
DA:67,0
DA:72,0
DA:73,0
DA:74,0
DA:75,0
DA:76,0
DA:77,0
DA:78,0
DA:79,0
DA:80,0
DA:82,0
DA:90,0
DA:91,0
DA:92,0
DA:93,0
DA:94,0
DA:95,0
DA:96,0
DA:97,0
DA:99,0
DA:101,0
DA:105,0
DA:106,0
DA:107,0
DA:108,0
DA:109,0
DA:110,0
DA:111,0
DA:113,0
BRF:0
BRH:0
LF:41
LH:0
end_of_record
SF:/home/runner/work/hyperlight/hyperlight/src/hyperlight_common/src/flatbuffer_wrappers/host_function_definition.rs
FN:154,_RNvXs1_NtNtCs5hCjilINUCv_17hyperlight_common19flatbuffer_wrappers24host_function_definitionINtNtCs7h7qHWfF5BF_5alloc3vec3VechEINtNtCs649FzoMgw5V_4core7convert7TryFromRNtB5_22HostFunctionDefinitionE8try_from
FN:146,_RNCNCNvXs0_NtNtCs5hCjilINUCv_17hyperlight_common19flatbuffer_wrappers24host_function_definitionNtB9_22HostFunctionDefinitionINtNtCs649FzoMgw5V_4core7convert7TryFromRShE8try_from00Bd_
FN:113,_RNCNCNvXs_NtNtCs5hCjilINUCv_17hyperlight_common19flatbuffer_wrappers24host_function_definitionNtB8_22HostFunctionDefinitionINtNtCs649FzoMgw5V_4core7convert7TryFromRNtNtNtNtNtBc_11flatbuffers10hyperlight9generated34host_function_definition_generated22HostFunctionDefinitionE8try_from00Bc_
FN:124,_RNCNCNvXs_NtNtCs5hCjilINUCv_17hyperlight_common19flatbuffer_wrappers24host_function_definitionNtB8_22HostFunctionDefinitionINtNtCs649FzoMgw5V_4core7convert7TryFromRNtNtNtNtNtBc_11flatbuffers10hyperlight9generated34host_function_definition_generated22HostFunctionDefinitionE8try_from0s_0Bc_
FN:59,_RNvMNtNtCs5hCjilINUCv_17hyperlight_common19flatbuffer_wrappers24host_function_definitionNtB2_22HostFunctionDefinition25convert_to_flatbuffer_def
FN:93,_RNvMNtNtCs5hCjilINUCv_17hyperlight_common19flatbuffer_wrappers24host_function_definitionNtB2_22HostFunctionDefinition28verify_equal_parameter_types
FN:45,_RNvMNtNtCs5hCjilINUCv_17hyperlight_common19flatbuffer_wrappers24host_function_definitionNtB2_22HostFunctionDefinition3new
FN:144,_RNvXs0_NtNtCs5hCjilINUCv_17hyperlight_common19flatbuffer_wrappers24host_function_definitionNtB5_22HostFunctionDefinitionINtNtCs649FzoMgw5V_4core7convert7TryFromRShE8try_from
FN:111,_RNvXs_NtNtCs5hCjilINUCv_17hyperlight_common19flatbuffer_wrappers24host_function_definitionNtB4_22HostFunctionDefinitionINtNtCs649FzoMgw5V_4core7convert7TryFromRNtNtNtNtNtB8_11flatbuffers10hyperlight9generated34host_function_definition_generated22HostFunctionDefinitionE8try_from
FNDA:0,_RNvXs1_NtNtCs5hCjilINUCv_17hyperlight_common19flatbuffer_wrappers24host_function_definitionINtNtCs7h7qHWfF5BF_5alloc3vec3VechEINtNtCs649FzoMgw5V_4core7convert7TryFromRNtB5_22HostFunctionDefinitionE8try_from
FNDA:0,_RNCNCNvXs0_NtNtCs5hCjilINUCv_17hyperlight_common19flatbuffer_wrappers24host_function_definitionNtB9_22HostFunctionDefinitionINtNtCs649FzoMgw5V_4core7convert7TryFromRShE8try_from00Bd_
FNDA:0,_RNCNCNvXs_NtNtCs5hCjilINUCv_17hyperlight_common19flatbuffer_wrappers24host_function_definitionNtB8_22HostFunctionDefinitionINtNtCs649FzoMgw5V_4core7convert7TryFromRNtNtNtNtNtBc_11flatbuffers10hyperlight9generated34host_function_definition_generated22HostFunctionDefinitionE8try_from00Bc_
FNDA:0,_RNCNCNvXs_NtNtCs5hCjilINUCv_17hyperlight_common19flatbuffer_wrappers24host_function_definitionNtB8_22HostFunctionDefinitionINtNtCs649FzoMgw5V_4core7convert7TryFromRNtNtNtNtNtBc_11flatbuffers10hyperlight9generated34host_function_definition_generated22HostFunctionDefinitionE8try_from0s_0Bc_
FNDA:150,_RNvMNtNtCs5hCjilINUCv_17hyperlight_common19flatbuffer_wrappers24host_function_definitionNtB2_22HostFunctionDefinition25convert_to_flatbuffer_def
FNDA:0,_RNvMNtNtCs5hCjilINUCv_17hyperlight_common19flatbuffer_wrappers24host_function_definitionNtB2_22HostFunctionDefinition28verify_equal_parameter_types
FNDA:75,_RNvMNtNtCs5hCjilINUCv_17hyperlight_common19flatbuffer_wrappers24host_function_definitionNtB2_22HostFunctionDefinition3new
FNDA:0,_RNvXs0_NtNtCs5hCjilINUCv_17hyperlight_common19flatbuffer_wrappers24host_function_definitionNtB5_22HostFunctionDefinitionINtNtCs649FzoMgw5V_4core7convert7TryFromRShE8try_from
FNDA:75,_RNvXs_NtNtCs5hCjilINUCv_17hyperlight_common19flatbuffer_wrappers24host_function_definitionNtB4_22HostFunctionDefinitionINtNtCs649FzoMgw5V_4core7convert7TryFromRNtNtNtNtNtB8_11flatbuffers10hyperlight9generated34host_function_definition_generated22HostFunctionDefinitionE8try_from
FNF:9
FNH:3
DA:45,75
DA:46,75
DA:47,75
DA:48,75
DA:49,75
DA:50,75
DA:51,75
DA:52,75
DA:53,75
DA:54,75
DA:55,75
DA:59,150
DA:60,150
DA:61,150
DA:62,150
DA:89,150
DA:93,0
DA:94,0
DA:95,0
DA:96,0
DA:105,0
DA:111,75
DA:113,0
DA:114,0
DA:115,0
DA:116,0
DA:117,0
DA:118,0
DA:124,0
DA:125,0
DA:126,0
DA:127,0
DA:128,0
DA:129,0
DA:138,75
DA:144,0
DA:146,0
DA:148,0
DA:154,0
DA:159,0
BRF:0
BRH:0
LF:40
LH:18
end_of_record
SF:/home/runner/work/hyperlight/hyperlight/src/hyperlight_common/src/flatbuffer_wrappers/host_function_details.rs
FN:70,_RNvXs_NtNtCs5hCjilINUCv_17hyperlight_common19flatbuffer_wrappers21host_function_detailsINtNtCs7h7qHWfF5BF_5alloc3vec3VechEINtNtCs649FzoMgw5V_4core7convert7TryFromRNtB4_19HostFunctionDetailsE8try_from
FN:43,_RNCNCNvXNtNtCs5hCjilINUCv_17hyperlight_common19flatbuffer_wrappers21host_function_detailsNtB6_19HostFunctionDetailsINtNtCs649FzoMgw5V_4core7convert7TryFromRShE8try_from00Ba_
FN:89,_RNCNCNvXs_NtNtCs5hCjilINUCv_17hyperlight_common19flatbuffer_wrappers21host_function_detailsINtNtCs7h7qHWfF5BF_5alloc3vec3VechEINtNtCs649FzoMgw5V_4core7convert7TryFromRNtB8_19HostFunctionDetailsE8try_from00Bc_
FN:41,_RNvXNtNtCs5hCjilINUCv_17hyperlight_common19flatbuffer_wrappers21host_function_detailsNtB2_19HostFunctionDetailsINtNtCs649FzoMgw5V_4core7convert7TryFromRShE8try_from
FNDA:142,_RNvXs_NtNtCs5hCjilINUCv_17hyperlight_common19flatbuffer_wrappers21host_function_detailsINtNtCs7h7qHWfF5BF_5alloc3vec3VechEINtNtCs649FzoMgw5V_4core7convert7TryFromRNtB4_19HostFunctionDetailsE8try_from
FNDA:0,_RNCNCNvXNtNtCs5hCjilINUCv_17hyperlight_common19flatbuffer_wrappers21host_function_detailsNtB6_19HostFunctionDetailsINtNtCs649FzoMgw5V_4core7convert7TryFromRShE8try_from00Ba_
FNDA:142,_RNCNCNvXs_NtNtCs5hCjilINUCv_17hyperlight_common19flatbuffer_wrappers21host_function_detailsINtNtCs7h7qHWfF5BF_5alloc3vec3VechEINtNtCs649FzoMgw5V_4core7convert7TryFromRNtB8_19HostFunctionDetailsE8try_from00Bc_
FNDA:71,_RNvXNtNtCs5hCjilINUCv_17hyperlight_common19flatbuffer_wrappers21host_function_detailsNtB2_19HostFunctionDetailsINtNtCs649FzoMgw5V_4core7convert7TryFromRShE8try_from
FNF:4
FNH:3
DA:41,71
DA:43,0
DA:64,71
DA:70,142
DA:89,142
DA:101,142
BRF:0
BRH:0
LF:6
LH:5
end_of_record
SF:/home/runner/work/hyperlight/hyperlight/src/hyperlight_common/src/flatbuffer_wrappers/util.rs
FN:187,_RNvNtNtCs5hCjilINUCv_17hyperlight_common19flatbuffer_wrappers4util28estimate_flatbuffer_capacityCsbhnjpcZuJYb_15hyperlight_host
FN:52,_RNvXNtNtCs5hCjilINUCv_17hyperlight_common19flatbuffer_wrappers4utiluNtB2_22FlatbufferSerializable9serialize
FN:79,_RNvXs0_NtNtCs5hCjilINUCv_17hyperlight_common19flatbuffer_wrappers4utilRShNtB5_22FlatbufferSerializable9serialize
FN:98,_RNvXs1_NtNtCs5hCjilINUCv_17hyperlight_common19flatbuffer_wrappers4utilfNtB5_22FlatbufferSerializable9serialize
FN:109,_RNvXs2_NtNtCs5hCjilINUCv_17hyperlight_common19flatbuffer_wrappers4utildNtB5_22FlatbufferSerializable9serialize
FN:120,_RNvXs3_NtNtCs5hCjilINUCv_17hyperlight_common19flatbuffer_wrappers4utillNtB5_22FlatbufferSerializable9serialize
FN:131,_RNvXs4_NtNtCs5hCjilINUCv_17hyperlight_common19flatbuffer_wrappers4utilxNtB5_22FlatbufferSerializable9serialize
FN:142,_RNvXs5_NtNtCs5hCjilINUCv_17hyperlight_common19flatbuffer_wrappers4utilmNtB5_22FlatbufferSerializable9serialize
FN:153,_RNvXs6_NtNtCs5hCjilINUCv_17hyperlight_common19flatbuffer_wrappers4utilyNtB5_22FlatbufferSerializable9serialize
FN:164,_RNvXs7_NtNtCs5hCjilINUCv_17hyperlight_common19flatbuffer_wrappers4utilbNtB5_22FlatbufferSerializable9serialize
FN:61,_RNvXs_NtNtCs5hCjilINUCv_17hyperlight_common19flatbuffer_wrappers4utilReNtB4_22FlatbufferSerializable9serialize
FN:35,_RINvNtNtCs5hCjilINUCv_17hyperlight_common19flatbuffer_wrappers4util21get_flatbuffer_resultpEB6_
FN:187,_RNvNtNtCs5hCjilINUCv_17hyperlight_common19flatbuffer_wrappers4util28estimate_flatbuffer_capacityB5_
FN:187,_RNvNtNtCs5hCjilINUCv_17hyperlight_common19flatbuffer_wrappers4util28estimate_flatbuffer_capacityCs9Wvk7SR8Ovp_15hyperlight_host
FNDA:0,_RNvNtNtCs5hCjilINUCv_17hyperlight_common19flatbuffer_wrappers4util28estimate_flatbuffer_capacityCsbhnjpcZuJYb_15hyperlight_host
FNDA:0,_RNvXNtNtCs5hCjilINUCv_17hyperlight_common19flatbuffer_wrappers4utiluNtB2_22FlatbufferSerializable9serialize
FNDA:0,_RNvXs0_NtNtCs5hCjilINUCv_17hyperlight_common19flatbuffer_wrappers4utilRShNtB5_22FlatbufferSerializable9serialize
FNDA:0,_RNvXs1_NtNtCs5hCjilINUCv_17hyperlight_common19flatbuffer_wrappers4utilfNtB5_22FlatbufferSerializable9serialize
FNDA:0,_RNvXs2_NtNtCs5hCjilINUCv_17hyperlight_common19flatbuffer_wrappers4utildNtB5_22FlatbufferSerializable9serialize
FNDA:0,_RNvXs3_NtNtCs5hCjilINUCv_17hyperlight_common19flatbuffer_wrappers4utillNtB5_22FlatbufferSerializable9serialize
FNDA:0,_RNvXs4_NtNtCs5hCjilINUCv_17hyperlight_common19flatbuffer_wrappers4utilxNtB5_22FlatbufferSerializable9serialize
FNDA:0,_RNvXs5_NtNtCs5hCjilINUCv_17hyperlight_common19flatbuffer_wrappers4utilmNtB5_22FlatbufferSerializable9serialize
FNDA:0,_RNvXs6_NtNtCs5hCjilINUCv_17hyperlight_common19flatbuffer_wrappers4utilyNtB5_22FlatbufferSerializable9serialize
FNDA:0,_RNvXs7_NtNtCs5hCjilINUCv_17hyperlight_common19flatbuffer_wrappers4utilbNtB5_22FlatbufferSerializable9serialize
FNDA:0,_RNvXs_NtNtCs5hCjilINUCv_17hyperlight_common19flatbuffer_wrappers4utilReNtB4_22FlatbufferSerializable9serialize
FNDA:0,_RINvNtNtCs5hCjilINUCv_17hyperlight_common19flatbuffer_wrappers4util21get_flatbuffer_resultpEB6_
FNDA:0,_RNvNtNtCs5hCjilINUCv_17hyperlight_common19flatbuffer_wrappers4util28estimate_flatbuffer_capacityB5_
FNDA:0,_RNvNtNtCs5hCjilINUCv_17hyperlight_common19flatbuffer_wrappers4util28estimate_flatbuffer_capacityCs9Wvk7SR8Ovp_15hyperlight_host
FNF:12
FNH:0
DA:35,0
DA:36,0
DA:37,0
DA:38,0
DA:39,0
DA:40,0
DA:41,0
DA:42,0
DA:43,0
DA:52,0
DA:53,0
DA:54,0
DA:55,0
DA:56,0
DA:57,0
DA:61,0
DA:62,0
DA:63,0
DA:64,0
DA:65,0
DA:66,0
DA:67,0
DA:68,0
DA:69,0
DA:70,0
DA:71,0
DA:72,0
DA:73,0
DA:74,0
DA:75,0
DA:79,0
DA:80,0
DA:81,0
DA:82,0
DA:83,0
DA:84,0
DA:85,0
DA:86,0
DA:87,0
DA:88,0
DA:89,0
DA:90,0
DA:91,0
DA:92,0
DA:93,0
DA:94,0
DA:98,0
DA:99,0
DA:100,0
DA:101,0
DA:102,0
DA:103,0
DA:104,0
DA:105,0
DA:109,0
DA:110,0
DA:111,0
DA:112,0
DA:113,0
DA:114,0
DA:115,0
DA:116,0
DA:120,0
DA:121,0
DA:122,0
DA:123,0
DA:124,0
DA:125,0
DA:126,0
DA:127,0
DA:131,0
DA:132,0
DA:133,0
DA:134,0
DA:135,0
DA:136,0
DA:137,0
DA:138,0
DA:142,0
DA:143,0
DA:144,0
DA:145,0
DA:146,0
DA:147,0
DA:148,0
DA:149,0
DA:153,0
DA:154,0
DA:155,0
DA:156,0
DA:157,0
DA:158,0
DA:159,0
DA:160,0
DA:164,0
DA:165,0
DA:166,0
DA:167,0
DA:168,0
DA:169,0
DA:170,0
DA:171,0
DA:187,0
DA:188,0
DA:189,0
DA:190,0
DA:191,0
DA:192,0
DA:193,0
DA:194,0
DA:197,0
DA:198,0
DA:199,0
DA:200,0
DA:201,0
DA:202,0
DA:203,0
DA:204,0
DA:205,0
DA:206,0
DA:211,0
DA:212,0
BRF:0
BRH:0
LF:122
LH:0
end_of_record
SF:/home/runner/work/hyperlight/hyperlight/src/hyperlight_common/src/flatbuffers/hyperlight/generated/error_code_generated.rs
FN:143,_RNvXs2_NtNtNtNtCs5hCjilINUCv_17hyperlight_common11flatbuffers10hyperlight9generated20error_code_generatedNtB5_9ErrorCodeNtNtCsdyFvlONsh1u_11flatbuffers13endian_scalar12EndianScalar16to_little_endianBd_
FN:148,_RNvXs2_NtNtNtNtCs5hCjilINUCv_17hyperlight_common11flatbuffers10hyperlight9generated20error_code_generatedNtB5_9ErrorCodeNtNtCsdyFvlONsh1u_11flatbuffers13endian_scalar12EndianScalar18from_little_endianBd_
FN:90,_RNvMNtNtNtNtCs5hCjilINUCv_17hyperlight_common11flatbuffers10hyperlight9generated20error_code_generatedNtB2_9ErrorCode12variant_name
FN:126,_RNvXs0_NtNtNtNtCs5hCjilINUCv_17hyperlight_common11flatbuffers10hyperlight9generated20error_code_generatedNtB5_9ErrorCodeNtNtCsdyFvlONsh1u_11flatbuffers6follow6Follow6followBd_
FN:135,_RNvXs1_NtNtNtNtCs5hCjilINUCv_17hyperlight_common11flatbuffers10hyperlight9generated20error_code_generatedNtB5_9ErrorCodeNtNtCsdyFvlONsh1u_11flatbuffers4push4Push4pushBd_
FN:156,_RNvXs3_NtNtNtNtCs5hCjilINUCv_17hyperlight_common11flatbuffers10hyperlight9generated20error_code_generatedNtB5_9ErrorCodeNtNtCsdyFvlONsh1u_11flatbuffers8verifier10Verifiable12run_verifierBd_
FN:115,_RNvXs_NtNtNtNtCs5hCjilINUCv_17hyperlight_common11flatbuffers10hyperlight9generated20error_code_generatedNtB4_9ErrorCodeNtNtCs649FzoMgw5V_4core3fmt5Debug3fmt
FNDA:0,_RNvXs2_NtNtNtNtCs5hCjilINUCv_17hyperlight_common11flatbuffers10hyperlight9generated20error_code_generatedNtB5_9ErrorCodeNtNtCsdyFvlONsh1u_11flatbuffers13endian_scalar12EndianScalar16to_little_endianBd_
FNDA:0,_RNvXs2_NtNtNtNtCs5hCjilINUCv_17hyperlight_common11flatbuffers10hyperlight9generated20error_code_generatedNtB5_9ErrorCodeNtNtCsdyFvlONsh1u_11flatbuffers13endian_scalar12EndianScalar18from_little_endianBd_
FNDA:0,_RNvMNtNtNtNtCs5hCjilINUCv_17hyperlight_common11flatbuffers10hyperlight9generated20error_code_generatedNtB2_9ErrorCode12variant_name
FNDA:0,_RNvXs0_NtNtNtNtCs5hCjilINUCv_17hyperlight_common11flatbuffers10hyperlight9generated20error_code_generatedNtB5_9ErrorCodeNtNtCsdyFvlONsh1u_11flatbuffers6follow6Follow6followBd_
FNDA:0,_RNvXs1_NtNtNtNtCs5hCjilINUCv_17hyperlight_common11flatbuffers10hyperlight9generated20error_code_generatedNtB5_9ErrorCodeNtNtCsdyFvlONsh1u_11flatbuffers4push4Push4pushBd_
FNDA:0,_RNvXs3_NtNtNtNtCs5hCjilINUCv_17hyperlight_common11flatbuffers10hyperlight9generated20error_code_generatedNtB5_9ErrorCodeNtNtCsdyFvlONsh1u_11flatbuffers8verifier10Verifiable12run_verifierBd_
FNDA:0,_RNvXs_NtNtNtNtCs5hCjilINUCv_17hyperlight_common11flatbuffers10hyperlight9generated20error_code_generatedNtB4_9ErrorCodeNtNtCs649FzoMgw5V_4core3fmt5Debug3fmt
FNF:7
FNH:0
DA:90,0
DA:91,0
DA:92,0
DA:93,0
DA:94,0
DA:95,0
DA:97,0
DA:99,0
DA:100,0
DA:101,0
DA:102,0
DA:103,0
DA:104,0
DA:105,0
DA:106,0
DA:107,0
DA:108,0
DA:109,0
DA:110,0
DA:112,0
DA:115,0
DA:116,0
DA:117,0
DA:119,0
DA:121,0
DA:126,0
DA:127,0
DA:128,0
DA:129,0
DA:135,0
DA:136,0
DA:137,0
DA:143,0
DA:144,0
DA:145,0
DA:148,0
DA:149,0
DA:150,0
DA:151,0
DA:156,0
DA:157,0
DA:158,0
DA:159,0
DA:161,0
DA:162,0
BRF:0
BRH:0
LF:45
LH:0
end_of_record
SF:/home/runner/work/hyperlight/hyperlight/src/hyperlight_common/src/flatbuffers/hyperlight/generated/function_call_generated.rs
FN:303,_RINvNtNtNtNtCs5hCjilINUCv_17hyperlight_common11flatbuffers10hyperlight9generated23function_call_generated27finish_function_call_bufferpEBa_
FN:311,_RINvNtNtNtNtCs5hCjilINUCv_17hyperlight_common11flatbuffers10hyperlight9generated23function_call_generated41finish_size_prefixed_function_call_bufferpEBa_
FN:37,_RNvMs_NtNtNtNtCs5hCjilINUCv_17hyperlight_common11flatbuffers10hyperlight9generated23function_call_generatedNtB4_12FunctionCall15init_from_tableBc_
FN:69,_RNvMs_NtNtNtNtCs5hCjilINUCv_17hyperlight_common11flatbuffers10hyperlight9generated23function_call_generatedNtB4_12FunctionCall21key_compare_less_thanBc_
FN:74,_RNvMs_NtNtNtNtCs5hCjilINUCv_17hyperlight_common11flatbuffers10hyperlight9generated23function_call_generatedNtB4_12FunctionCall22key_compare_with_valueBc_
FN:247,_RNvNtNtNtNtCs5hCjilINUCv_17hyperlight_common11flatbuffers10hyperlight9generated23function_call_generated21root_as_function_callB9_
FN:292,_RNvNtNtNtNtCs5hCjilINUCv_17hyperlight_common11flatbuffers10hyperlight9generated23function_call_generated31root_as_function_call_uncheckedB9_
FN:269,_RNvNtNtNtNtCs5hCjilINUCv_17hyperlight_common11flatbuffers10hyperlight9generated23function_call_generated31root_as_function_call_with_optsB9_
FN:257,_RNvNtNtNtNtCs5hCjilINUCv_17hyperlight_common11flatbuffers10hyperlight9generated23function_call_generated35size_prefixed_root_as_function_callB9_
FN:299,_RNvNtNtNtNtCs5hCjilINUCv_17hyperlight_common11flatbuffers10hyperlight9generated23function_call_generated45size_prefixed_root_as_function_call_uncheckedB9_
FN:282,_RNvNtNtNtNtCs5hCjilINUCv_17hyperlight_common11flatbuffers10hyperlight9generated23function_call_generated45size_prefixed_root_as_function_call_with_optsB9_
FN:163,_RNvXs1_NtNtNtNtCs5hCjilINUCv_17hyperlight_common11flatbuffers10hyperlight9generated23function_call_generatedNtB5_16FunctionCallArgsNtNtCs649FzoMgw5V_4core7default7Default7defaultBd_
FN:41,_RINvMs_NtNtNtNtCs5hCjilINUCv_17hyperlight_common11flatbuffers10hyperlight9generated23function_call_generatedNtB5_12FunctionCall6createNtNtCsdyFvlONsh1u_11flatbuffers7builder16DefaultAllocatorEBd_
FN:186,_RNvMs2_NtNtNtNtCs5hCjilINUCv_17hyperlight_common11flatbuffers10hyperlight9generated23function_call_generatedINtB5_19FunctionCallBuilderNtNtCsdyFvlONsh1u_11flatbuffers7builder16DefaultAllocatorE14add_parametersBd_
FN:179,_RNvMs2_NtNtNtNtCs5hCjilINUCv_17hyperlight_common11flatbuffers10hyperlight9generated23function_call_generatedINtB5_19FunctionCallBuilderNtNtCsdyFvlONsh1u_11flatbuffers7builder16DefaultAllocatorE17add_function_nameBd_
FN:196,_RNvMs2_NtNtNtNtCs5hCjilINUCv_17hyperlight_common11flatbuffers10hyperlight9generated23function_call_generatedINtB5_19FunctionCallBuilderNtNtCsdyFvlONsh1u_11flatbuffers7builder16DefaultAllocatorE22add_function_call_typeBd_
FN:204,_RNvMs2_NtNtNtNtCs5hCjilINUCv_17hyperlight_common11flatbuffers10hyperlight9generated23function_call_generatedINtB5_19FunctionCallBuilderNtNtCsdyFvlONsh1u_11flatbuffers7builder16DefaultAllocatorE24add_expected_return_typeBd_
FN:212,_RNvMs2_NtNtNtNtCs5hCjilINUCv_17hyperlight_common11flatbuffers10hyperlight9generated23function_call_generatedINtB5_19FunctionCallBuilderNtNtCsdyFvlONsh1u_11flatbuffers7builder16DefaultAllocatorE3newBd_
FN:222,_RNvMs2_NtNtNtNtCs5hCjilINUCv_17hyperlight_common11flatbuffers10hyperlight9generated23function_call_generatedINtB5_19FunctionCallBuilderNtNtCsdyFvlONsh1u_11flatbuffers7builder16DefaultAllocatorE6finishBd_
FN:79,_RNvMs_NtNtNtNtCs5hCjilINUCv_17hyperlight_common11flatbuffers10hyperlight9generated23function_call_generatedNtB4_12FunctionCall10parametersBc_
FN:58,_RNvMs_NtNtNtNtCs5hCjilINUCv_17hyperlight_common11flatbuffers10hyperlight9generated23function_call_generatedNtB4_12FunctionCall13function_nameBc_
FN:92,_RNvMs_NtNtNtNtCs5hCjilINUCv_17hyperlight_common11flatbuffers10hyperlight9generated23function_call_generatedNtB4_12FunctionCall18function_call_typeBc_
FN:106,_RNvMs_NtNtNtNtCs5hCjilINUCv_17hyperlight_common11flatbuffers10hyperlight9generated23function_call_generatedNtB4_12FunctionCall20expected_return_typeBc_
FN:23,_RNvXNtNtNtNtCs5hCjilINUCv_17hyperlight_common11flatbuffers10hyperlight9generated23function_call_generatedNtB2_12FunctionCallNtNtCsdyFvlONsh1u_11flatbuffers6follow6Follow6followBa_
FN:123,_RNvXs0_NtNtNtNtCs5hCjilINUCv_17hyperlight_common11flatbuffers10hyperlight9generated23function_call_generatedNtB5_12FunctionCallNtNtCsdyFvlONsh1u_11flatbuffers8verifier10Verifiable12run_verifierBd_
FN:231,_RNvXs3_NtNtNtNtCs5hCjilINUCv_17hyperlight_common11flatbuffers10hyperlight9generated23function_call_generatedNtB5_12FunctionCallNtNtCs649FzoMgw5V_4core3fmt5Debug3fmt
FNDA:0,_RINvNtNtNtNtCs5hCjilINUCv_17hyperlight_common11flatbuffers10hyperlight9generated23function_call_generated27finish_function_call_bufferpEBa_
FNDA:0,_RINvNtNtNtNtCs5hCjilINUCv_17hyperlight_common11flatbuffers10hyperlight9generated23function_call_generated41finish_size_prefixed_function_call_bufferpEBa_
FNDA:0,_RNvMs_NtNtNtNtCs5hCjilINUCv_17hyperlight_common11flatbuffers10hyperlight9generated23function_call_generatedNtB4_12FunctionCall15init_from_tableBc_
FNDA:0,_RNvMs_NtNtNtNtCs5hCjilINUCv_17hyperlight_common11flatbuffers10hyperlight9generated23function_call_generatedNtB4_12FunctionCall21key_compare_less_thanBc_
FNDA:0,_RNvMs_NtNtNtNtCs5hCjilINUCv_17hyperlight_common11flatbuffers10hyperlight9generated23function_call_generatedNtB4_12FunctionCall22key_compare_with_valueBc_
FNDA:0,_RNvNtNtNtNtCs5hCjilINUCv_17hyperlight_common11flatbuffers10hyperlight9generated23function_call_generated21root_as_function_callB9_
FNDA:0,_RNvNtNtNtNtCs5hCjilINUCv_17hyperlight_common11flatbuffers10hyperlight9generated23function_call_generated31root_as_function_call_uncheckedB9_
FNDA:0,_RNvNtNtNtNtCs5hCjilINUCv_17hyperlight_common11flatbuffers10hyperlight9generated23function_call_generated31root_as_function_call_with_optsB9_
FNDA:0,_RNvNtNtNtNtCs5hCjilINUCv_17hyperlight_common11flatbuffers10hyperlight9generated23function_call_generated35size_prefixed_root_as_function_callB9_
FNDA:0,_RNvNtNtNtNtCs5hCjilINUCv_17hyperlight_common11flatbuffers10hyperlight9generated23function_call_generated45size_prefixed_root_as_function_call_uncheckedB9_
FNDA:0,_RNvNtNtNtNtCs5hCjilINUCv_17hyperlight_common11flatbuffers10hyperlight9generated23function_call_generated45size_prefixed_root_as_function_call_with_optsB9_
FNDA:0,_RNvXs1_NtNtNtNtCs5hCjilINUCv_17hyperlight_common11flatbuffers10hyperlight9generated23function_call_generatedNtB5_16FunctionCallArgsNtNtCs649FzoMgw5V_4core7default7Default7defaultBd_
FNDA:0,_RINvMs_NtNtNtNtCs5hCjilINUCv_17hyperlight_common11flatbuffers10hyperlight9generated23function_call_generatedNtB5_12FunctionCall6createNtNtCsdyFvlONsh1u_11flatbuffers7builder16DefaultAllocatorEBd_
FNDA:0,_RNvMs2_NtNtNtNtCs5hCjilINUCv_17hyperlight_common11flatbuffers10hyperlight9generated23function_call_generatedINtB5_19FunctionCallBuilderNtNtCsdyFvlONsh1u_11flatbuffers7builder16DefaultAllocatorE14add_parametersBd_
FNDA:0,_RNvMs2_NtNtNtNtCs5hCjilINUCv_17hyperlight_common11flatbuffers10hyperlight9generated23function_call_generatedINtB5_19FunctionCallBuilderNtNtCsdyFvlONsh1u_11flatbuffers7builder16DefaultAllocatorE17add_function_nameBd_
FNDA:0,_RNvMs2_NtNtNtNtCs5hCjilINUCv_17hyperlight_common11flatbuffers10hyperlight9generated23function_call_generatedINtB5_19FunctionCallBuilderNtNtCsdyFvlONsh1u_11flatbuffers7builder16DefaultAllocatorE22add_function_call_typeBd_
FNDA:0,_RNvMs2_NtNtNtNtCs5hCjilINUCv_17hyperlight_common11flatbuffers10hyperlight9generated23function_call_generatedINtB5_19FunctionCallBuilderNtNtCsdyFvlONsh1u_11flatbuffers7builder16DefaultAllocatorE24add_expected_return_typeBd_
FNDA:0,_RNvMs2_NtNtNtNtCs5hCjilINUCv_17hyperlight_common11flatbuffers10hyperlight9generated23function_call_generatedINtB5_19FunctionCallBuilderNtNtCsdyFvlONsh1u_11flatbuffers7builder16DefaultAllocatorE3newBd_
FNDA:0,_RNvMs2_NtNtNtNtCs5hCjilINUCv_17hyperlight_common11flatbuffers10hyperlight9generated23function_call_generatedINtB5_19FunctionCallBuilderNtNtCsdyFvlONsh1u_11flatbuffers7builder16DefaultAllocatorE6finishBd_
FNDA:0,_RNvMs_NtNtNtNtCs5hCjilINUCv_17hyperlight_common11flatbuffers10hyperlight9generated23function_call_generatedNtB4_12FunctionCall10parametersBc_
FNDA:0,_RNvMs_NtNtNtNtCs5hCjilINUCv_17hyperlight_common11flatbuffers10hyperlight9generated23function_call_generatedNtB4_12FunctionCall13function_nameBc_
FNDA:0,_RNvMs_NtNtNtNtCs5hCjilINUCv_17hyperlight_common11flatbuffers10hyperlight9generated23function_call_generatedNtB4_12FunctionCall18function_call_typeBc_
FNDA:0,_RNvMs_NtNtNtNtCs5hCjilINUCv_17hyperlight_common11flatbuffers10hyperlight9generated23function_call_generatedNtB4_12FunctionCall20expected_return_typeBc_
FNDA:0,_RNvXNtNtNtNtCs5hCjilINUCv_17hyperlight_common11flatbuffers10hyperlight9generated23function_call_generatedNtB2_12FunctionCallNtNtCsdyFvlONsh1u_11flatbuffers6follow6Follow6followBa_
FNDA:0,_RNvXs0_NtNtNtNtCs5hCjilINUCv_17hyperlight_common11flatbuffers10hyperlight9generated23function_call_generatedNtB5_12FunctionCallNtNtCsdyFvlONsh1u_11flatbuffers8verifier10Verifiable12run_verifierBd_
FNDA:0,_RNvXs3_NtNtNtNtCs5hCjilINUCv_17hyperlight_common11flatbuffers10hyperlight9generated23function_call_generatedNtB5_12FunctionCallNtNtCs649FzoMgw5V_4core3fmt5Debug3fmt
FNF:26
FNH:0
DA:23,0
DA:24,0
DA:25,0
DA:26,0
DA:27,0
DA:37,0
DA:38,0
DA:39,0
DA:41,0
DA:42,0
DA:43,0
DA:44,0
DA:45,0
DA:46,0
DA:47,0
DA:48,0
DA:49,0
DA:50,0
DA:51,0
DA:52,0
DA:53,0
DA:54,0
DA:55,0
DA:58,0
DA:59,0
DA:60,0
DA:61,0
DA:62,0
DA:63,0
DA:64,0
DA:65,0
DA:66,0
DA:67,0
DA:69,0
DA:70,0
DA:71,0
DA:74,0
DA:75,0
DA:76,0
DA:77,0
DA:79,0
DA:80,0
DA:81,0
DA:82,0
DA:83,0
DA:84,0
DA:85,0
DA:86,0
DA:87,0
DA:88,0
DA:89,0
DA:90,0
DA:92,0
DA:93,0
DA:94,0
DA:95,0
DA:96,0
DA:97,0
DA:98,0
DA:99,0
DA:100,0
DA:101,0
DA:102,0
DA:103,0
DA:104,0
DA:106,0
DA:107,0
DA:108,0
DA:109,0
DA:110,0
DA:111,0
DA:112,0
DA:113,0
DA:114,0
DA:115,0
DA:116,0
DA:117,0
DA:118,0
DA:123,0
DA:124,0
DA:125,0
DA:126,0
DA:128,0
DA:129,0
DA:130,0
DA:131,0
DA:132,0
DA:133,0
DA:134,0
DA:135,0
DA:136,0
DA:137,0
DA:138,0
DA:139,0
DA:140,0
DA:141,0
DA:142,0
DA:143,0
DA:144,0
DA:145,0
DA:146,0
DA:147,0
DA:148,0
DA:149,0
DA:163,0
DA:164,0
DA:165,0
DA:166,0
DA:167,0
DA:168,0
DA:169,0
DA:170,0
DA:179,0
DA:180,0
DA:181,0
DA:182,0
DA:183,0
DA:184,0
DA:186,0
DA:187,0
DA:188,0
DA:189,0
DA:190,0
DA:191,0
DA:192,0
DA:193,0
DA:194,0
DA:196,0
DA:197,0
DA:198,0
DA:199,0
DA:200,0
DA:201,0
DA:202,0
DA:204,0
DA:205,0
DA:206,0
DA:207,0
DA:208,0
DA:209,0
DA:210,0
DA:212,0
DA:213,0
DA:214,0
DA:215,0
DA:216,0
DA:217,0
DA:218,0
DA:219,0
DA:220,0
DA:222,0
DA:223,0
DA:224,0
DA:225,0
DA:226,0
DA:227,0
DA:231,0
DA:232,0
DA:233,0
DA:234,0
DA:235,0
DA:236,0
DA:237,0
DA:238,0
DA:247,0
DA:248,0
DA:249,0
DA:257,0
DA:258,0
DA:259,0
DA:260,0
DA:261,0
DA:269,0
DA:270,0
DA:271,0
DA:272,0
DA:273,0
DA:274,0
DA:282,0
DA:283,0
DA:284,0
DA:285,0
DA:286,0
DA:287,0
DA:292,0
DA:293,0
DA:294,0
DA:299,0
DA:300,0
DA:301,0
DA:303,0
DA:304,0
DA:305,0
DA:306,0
DA:307,0
DA:308,0
DA:311,0
DA:312,0
DA:313,0
DA:314,0
DA:315,0
DA:316,0
BRF:0
BRH:0
LF:202
LH:0
end_of_record
SF:/home/runner/work/hyperlight/hyperlight/src/hyperlight_common/src/flatbuffers/hyperlight/generated/function_call_result_generated.rs
FN:528,_RINvNtNtNtNtCs5hCjilINUCv_17hyperlight_common11flatbuffers10hyperlight9generated30function_call_result_generated34finish_function_call_result_bufferpEBa_
FN:536,_RINvNtNtNtNtCs5hCjilINUCv_17hyperlight_common11flatbuffers10hyperlight9generated30function_call_result_generated48finish_size_prefixed_function_call_result_bufferpEBa_
FN:35,_RNvMs_NtNtNtNtCs5hCjilINUCv_17hyperlight_common11flatbuffers10hyperlight9generated30function_call_result_generatedNtB4_18FunctionCallResult15init_from_tableBc_
FN:468,_RNvNtNtNtNtCs5hCjilINUCv_17hyperlight_common11flatbuffers10hyperlight9generated30function_call_result_generated28root_as_function_call_resultB9_
FN:515,_RNvNtNtNtNtCs5hCjilINUCv_17hyperlight_common11flatbuffers10hyperlight9generated30function_call_result_generated38root_as_function_call_result_uncheckedB9_
FN:492,_RNvNtNtNtNtCs5hCjilINUCv_17hyperlight_common11flatbuffers10hyperlight9generated30function_call_result_generated38root_as_function_call_result_with_optsB9_
FN:480,_RNvNtNtNtNtCs5hCjilINUCv_17hyperlight_common11flatbuffers10hyperlight9generated30function_call_result_generated42size_prefixed_root_as_function_call_resultB9_
FN:522,_RNvNtNtNtNtCs5hCjilINUCv_17hyperlight_common11flatbuffers10hyperlight9generated30function_call_result_generated52size_prefixed_root_as_function_call_result_uncheckedB9_
FN:505,_RNvNtNtNtNtCs5hCjilINUCv_17hyperlight_common11flatbuffers10hyperlight9generated30function_call_result_generated52size_prefixed_root_as_function_call_result_with_optsB9_
FN:298,_RNvXs1_NtNtNtNtCs5hCjilINUCv_17hyperlight_common11flatbuffers10hyperlight9generated30function_call_result_generatedNtB5_22FunctionCallResultArgsNtNtCs649FzoMgw5V_4core7default7Default7defaultBd_
FN:39,_RINvMs_NtNtNtNtCs5hCjilINUCv_17hyperlight_common11flatbuffers10hyperlight9generated30function_call_result_generatedNtB5_18FunctionCallResult6createNtNtCsdyFvlONsh1u_11flatbuffers7builder16DefaultAllocatorEBd_
FN:234,_RNCNvXs0_NtNtNtNtCs5hCjilINUCv_17hyperlight_common11flatbuffers10hyperlight9generated30function_call_result_generatedNtB7_18FunctionCallResultNtNtCsdyFvlONsh1u_11flatbuffers8verifier10Verifiable12run_verifier0Bf_
FN:320,_RNvMs2_NtNtNtNtCs5hCjilINUCv_17hyperlight_common11flatbuffers10hyperlight9generated30function_call_result_generatedINtB5_25FunctionCallResultBuilderNtNtCsdyFvlONsh1u_11flatbuffers7builder16DefaultAllocatorE16add_return_valueBd_
FN:312,_RNvMs2_NtNtNtNtCs5hCjilINUCv_17hyperlight_common11flatbuffers10hyperlight9generated30function_call_result_generatedINtB5_25FunctionCallResultBuilderNtNtCsdyFvlONsh1u_11flatbuffers7builder16DefaultAllocatorE21add_return_value_typeBd_
FN:330,_RNvMs2_NtNtNtNtCs5hCjilINUCv_17hyperlight_common11flatbuffers10hyperlight9generated30function_call_result_generatedINtB5_25FunctionCallResultBuilderNtNtCsdyFvlONsh1u_11flatbuffers7builder16DefaultAllocatorE3newBd_
FN:340,_RNvMs2_NtNtNtNtCs5hCjilINUCv_17hyperlight_common11flatbuffers10hyperlight9generated30function_call_result_generatedINtB5_25FunctionCallResultBuilderNtNtCsdyFvlONsh1u_11flatbuffers7builder16DefaultAllocatorE6finishBd_
FN:66,_RNvMs_NtNtNtNtCs5hCjilINUCv_17hyperlight_common11flatbuffers10hyperlight9generated30function_call_result_generatedNtB4_18FunctionCallResult12return_valueBc_
FN:52,_RNvMs_NtNtNtNtCs5hCjilINUCv_17hyperlight_common11flatbuffers10hyperlight9generated30function_call_result_generatedNtB4_18FunctionCallResult17return_value_typeBc_
FN:81,_RNvMs_NtNtNtNtCs5hCjilINUCv_17hyperlight_common11flatbuffers10hyperlight9generated30function_call_result_generatedNtB4_18FunctionCallResult21return_value_as_hlintBc_
FN:179,_RNvMs_NtNtNtNtCs5hCjilINUCv_17hyperlight_common11flatbuffers10hyperlight9generated30function_call_result_generatedNtB4_18FunctionCallResult22return_value_as_hlboolBc_
FN:109,_RNvMs_NtNtNtNtCs5hCjilINUCv_17hyperlight_common11flatbuffers10hyperlight9generated30function_call_result_generatedNtB4_18FunctionCallResult22return_value_as_hllongBc_
FN:95,_RNvMs_NtNtNtNtCs5hCjilINUCv_17hyperlight_common11flatbuffers10hyperlight9generated30function_call_result_generatedNtB4_18FunctionCallResult22return_value_as_hluintBc_
FN:193,_RNvMs_NtNtNtNtCs5hCjilINUCv_17hyperlight_common11flatbuffers10hyperlight9generated30function_call_result_generatedNtB4_18FunctionCallResult22return_value_as_hlvoidBc_
FN:137,_RNvMs_NtNtNtNtCs5hCjilINUCv_17hyperlight_common11flatbuffers10hyperlight9generated30function_call_result_generatedNtB4_18FunctionCallResult23return_value_as_hlfloatBc_
FN:123,_RNvMs_NtNtNtNtCs5hCjilINUCv_17hyperlight_common11flatbuffers10hyperlight9generated30function_call_result_generatedNtB4_18FunctionCallResult23return_value_as_hlulongBc_
FN:151,_RNvMs_NtNtNtNtCs5hCjilINUCv_17hyperlight_common11flatbuffers10hyperlight9generated30function_call_result_generatedNtB4_18FunctionCallResult24return_value_as_hldoubleBc_
FN:165,_RNvMs_NtNtNtNtCs5hCjilINUCv_17hyperlight_common11flatbuffers10hyperlight9generated30function_call_result_generatedNtB4_18FunctionCallResult24return_value_as_hlstringBc_
FN:207,_RNvMs_NtNtNtNtCs5hCjilINUCv_17hyperlight_common11flatbuffers10hyperlight9generated30function_call_result_generatedNtB4_18FunctionCallResult36return_value_as_hlsizeprefixedbufferBc_
FN:23,_RNvXNtNtNtNtCs5hCjilINUCv_17hyperlight_common11flatbuffers10hyperlight9generated30function_call_result_generatedNtB2_18FunctionCallResultNtNtCsdyFvlONsh1u_11flatbuffers6follow6Follow6followBa_
FN:222,_RNvXs0_NtNtNtNtCs5hCjilINUCv_17hyperlight_common11flatbuffers10hyperlight9generated30function_call_result_generatedNtB5_18FunctionCallResultNtNtCsdyFvlONsh1u_11flatbuffers8verifier10Verifiable12run_verifierBd_
FN:349,_RNvXs3_NtNtNtNtCs5hCjilINUCv_17hyperlight_common11flatbuffers10hyperlight9generated30function_call_result_generatedNtB5_18FunctionCallResultNtNtCs649FzoMgw5V_4core3fmt5Debug3fmt
FNDA:0,_RINvNtNtNtNtCs5hCjilINUCv_17hyperlight_common11flatbuffers10hyperlight9generated30function_call_result_generated34finish_function_call_result_bufferpEBa_
FNDA:0,_RINvNtNtNtNtCs5hCjilINUCv_17hyperlight_common11flatbuffers10hyperlight9generated30function_call_result_generated48finish_size_prefixed_function_call_result_bufferpEBa_
FNDA:0,_RNvMs_NtNtNtNtCs5hCjilINUCv_17hyperlight_common11flatbuffers10hyperlight9generated30function_call_result_generatedNtB4_18FunctionCallResult15init_from_tableBc_
FNDA:0,_RNvNtNtNtNtCs5hCjilINUCv_17hyperlight_common11flatbuffers10hyperlight9generated30function_call_result_generated28root_as_function_call_resultB9_
FNDA:0,_RNvNtNtNtNtCs5hCjilINUCv_17hyperlight_common11flatbuffers10hyperlight9generated30function_call_result_generated38root_as_function_call_result_uncheckedB9_
FNDA:0,_RNvNtNtNtNtCs5hCjilINUCv_17hyperlight_common11flatbuffers10hyperlight9generated30function_call_result_generated38root_as_function_call_result_with_optsB9_
FNDA:0,_RNvNtNtNtNtCs5hCjilINUCv_17hyperlight_common11flatbuffers10hyperlight9generated30function_call_result_generated42size_prefixed_root_as_function_call_resultB9_
FNDA:0,_RNvNtNtNtNtCs5hCjilINUCv_17hyperlight_common11flatbuffers10hyperlight9generated30function_call_result_generated52size_prefixed_root_as_function_call_result_uncheckedB9_
FNDA:0,_RNvNtNtNtNtCs5hCjilINUCv_17hyperlight_common11flatbuffers10hyperlight9generated30function_call_result_generated52size_prefixed_root_as_function_call_result_with_optsB9_
FNDA:0,_RNvXs1_NtNtNtNtCs5hCjilINUCv_17hyperlight_common11flatbuffers10hyperlight9generated30function_call_result_generatedNtB5_22FunctionCallResultArgsNtNtCs649FzoMgw5V_4core7default7Default7defaultBd_
FNDA:0,_RINvMs_NtNtNtNtCs5hCjilINUCv_17hyperlight_common11flatbuffers10hyperlight9generated30function_call_result_generatedNtB5_18FunctionCallResult6createNtNtCsdyFvlONsh1u_11flatbuffers7builder16DefaultAllocatorEBd_
FNDA:0,_RNCNvXs0_NtNtNtNtCs5hCjilINUCv_17hyperlight_common11flatbuffers10hyperlight9generated30function_call_result_generatedNtB7_18FunctionCallResultNtNtCsdyFvlONsh1u_11flatbuffers8verifier10Verifiable12run_verifier0Bf_
FNDA:0,_RNvMs2_NtNtNtNtCs5hCjilINUCv_17hyperlight_common11flatbuffers10hyperlight9generated30function_call_result_generatedINtB5_25FunctionCallResultBuilderNtNtCsdyFvlONsh1u_11flatbuffers7builder16DefaultAllocatorE16add_return_valueBd_
FNDA:0,_RNvMs2_NtNtNtNtCs5hCjilINUCv_17hyperlight_common11flatbuffers10hyperlight9generated30function_call_result_generatedINtB5_25FunctionCallResultBuilderNtNtCsdyFvlONsh1u_11flatbuffers7builder16DefaultAllocatorE21add_return_value_typeBd_
FNDA:0,_RNvMs2_NtNtNtNtCs5hCjilINUCv_17hyperlight_common11flatbuffers10hyperlight9generated30function_call_result_generatedINtB5_25FunctionCallResultBuilderNtNtCsdyFvlONsh1u_11flatbuffers7builder16DefaultAllocatorE3newBd_
FNDA:0,_RNvMs2_NtNtNtNtCs5hCjilINUCv_17hyperlight_common11flatbuffers10hyperlight9generated30function_call_result_generatedINtB5_25FunctionCallResultBuilderNtNtCsdyFvlONsh1u_11flatbuffers7builder16DefaultAllocatorE6finishBd_
FNDA:0,_RNvMs_NtNtNtNtCs5hCjilINUCv_17hyperlight_common11flatbuffers10hyperlight9generated30function_call_result_generatedNtB4_18FunctionCallResult12return_valueBc_
FNDA:0,_RNvMs_NtNtNtNtCs5hCjilINUCv_17hyperlight_common11flatbuffers10hyperlight9generated30function_call_result_generatedNtB4_18FunctionCallResult17return_value_typeBc_
FNDA:0,_RNvMs_NtNtNtNtCs5hCjilINUCv_17hyperlight_common11flatbuffers10hyperlight9generated30function_call_result_generatedNtB4_18FunctionCallResult21return_value_as_hlintBc_
FNDA:0,_RNvMs_NtNtNtNtCs5hCjilINUCv_17hyperlight_common11flatbuffers10hyperlight9generated30function_call_result_generatedNtB4_18FunctionCallResult22return_value_as_hlboolBc_
FNDA:0,_RNvMs_NtNtNtNtCs5hCjilINUCv_17hyperlight_common11flatbuffers10hyperlight9generated30function_call_result_generatedNtB4_18FunctionCallResult22return_value_as_hllongBc_
FNDA:0,_RNvMs_NtNtNtNtCs5hCjilINUCv_17hyperlight_common11flatbuffers10hyperlight9generated30function_call_result_generatedNtB4_18FunctionCallResult22return_value_as_hluintBc_
FNDA:0,_RNvMs_NtNtNtNtCs5hCjilINUCv_17hyperlight_common11flatbuffers10hyperlight9generated30function_call_result_generatedNtB4_18FunctionCallResult22return_value_as_hlvoidBc_
FNDA:0,_RNvMs_NtNtNtNtCs5hCjilINUCv_17hyperlight_common11flatbuffers10hyperlight9generated30function_call_result_generatedNtB4_18FunctionCallResult23return_value_as_hlfloatBc_
FNDA:0,_RNvMs_NtNtNtNtCs5hCjilINUCv_17hyperlight_common11flatbuffers10hyperlight9generated30function_call_result_generatedNtB4_18FunctionCallResult23return_value_as_hlulongBc_
FNDA:0,_RNvMs_NtNtNtNtCs5hCjilINUCv_17hyperlight_common11flatbuffers10hyperlight9generated30function_call_result_generatedNtB4_18FunctionCallResult24return_value_as_hldoubleBc_
FNDA:0,_RNvMs_NtNtNtNtCs5hCjilINUCv_17hyperlight_common11flatbuffers10hyperlight9generated30function_call_result_generatedNtB4_18FunctionCallResult24return_value_as_hlstringBc_
FNDA:0,_RNvMs_NtNtNtNtCs5hCjilINUCv_17hyperlight_common11flatbuffers10hyperlight9generated30function_call_result_generatedNtB4_18FunctionCallResult36return_value_as_hlsizeprefixedbufferBc_
FNDA:0,_RNvXNtNtNtNtCs5hCjilINUCv_17hyperlight_common11flatbuffers10hyperlight9generated30function_call_result_generatedNtB2_18FunctionCallResultNtNtCsdyFvlONsh1u_11flatbuffers6follow6Follow6followBa_
FNDA:0,_RNvXs0_NtNtNtNtCs5hCjilINUCv_17hyperlight_common11flatbuffers10hyperlight9generated30function_call_result_generatedNtB5_18FunctionCallResultNtNtCsdyFvlONsh1u_11flatbuffers8verifier10Verifiable12run_verifierBd_
FNDA:0,_RNvXs3_NtNtNtNtCs5hCjilINUCv_17hyperlight_common11flatbuffers10hyperlight9generated30function_call_result_generatedNtB5_18FunctionCallResultNtNtCs649FzoMgw5V_4core3fmt5Debug3fmt
FNF:31
FNH:0
DA:23,0
DA:24,0
DA:25,0
DA:26,0
DA:27,0
DA:35,0
DA:36,0
DA:37,0
DA:39,0
DA:40,0
DA:41,0
DA:42,0
DA:43,0
DA:44,0
DA:45,0
DA:46,0
DA:47,0
DA:48,0
DA:49,0
DA:52,0
DA:53,0
DA:54,0
DA:55,0
DA:56,0
DA:57,0
DA:58,0
DA:59,0
DA:60,0
DA:61,0
DA:62,0
DA:63,0
DA:64,0
DA:66,0
DA:67,0
DA:68,0
DA:69,0
DA:70,0
DA:71,0
DA:72,0
DA:73,0
DA:74,0
DA:75,0
DA:76,0
DA:77,0
DA:78,0
DA:81,0
DA:82,0
DA:83,0
DA:84,0
DA:85,0
DA:86,0
DA:87,0
DA:89,0
DA:91,0
DA:95,0
DA:96,0
DA:97,0
DA:98,0
DA:99,0
DA:100,0
DA:101,0
DA:103,0
DA:105,0
DA:109,0
DA:110,0
DA:111,0
DA:112,0
DA:113,0
DA:114,0
DA:115,0
DA:117,0
DA:119,0
DA:123,0
DA:124,0
DA:125,0
DA:126,0
DA:127,0
DA:128,0
DA:129,0
DA:131,0
DA:133,0
DA:137,0
DA:138,0
DA:139,0
DA:140,0
DA:141,0
DA:142,0
DA:143,0
DA:145,0
DA:147,0
DA:151,0
DA:152,0
DA:153,0
DA:154,0
DA:155,0
DA:156,0
DA:157,0
DA:159,0
DA:161,0
DA:165,0
DA:166,0
DA:167,0
DA:168,0
DA:169,0
DA:170,0
DA:171,0
DA:173,0
DA:175,0
DA:179,0
DA:180,0
DA:181,0
DA:182,0
DA:183,0
DA:184,0
DA:185,0
DA:187,0
DA:189,0
DA:193,0
DA:194,0
DA:195,0
DA:196,0
DA:197,0
DA:198,0
DA:199,0
DA:201,0
DA:203,0
DA:207,0
DA:208,0
DA:209,0
DA:210,0
DA:211,0
DA:212,0
DA:213,0
DA:215,0
DA:217,0
DA:222,0
DA:223,0
DA:224,0
DA:225,0
DA:227,0
DA:228,0
DA:229,0
DA:230,0
DA:231,0
DA:232,0
DA:233,0
DA:234,0
DA:235,0
DA:236,0
DA:237,0
DA:238,0
DA:239,0
DA:240,0
DA:241,0
DA:242,0
DA:243,0
DA:244,0
DA:245,0
DA:246,0
DA:247,0
DA:248,0
DA:249,0
DA:250,0
DA:251,0
DA:252,0
DA:253,0
DA:254,0
DA:255,0
DA:256,0
DA:257,0
DA:258,0
DA:259,0
DA:260,0
DA:261,0
DA:262,0
DA:263,0
DA:264,0
DA:265,0
DA:266,0
DA:267,0
DA:268,0
DA:269,0
DA:270,0
DA:271,0
DA:272,0
DA:273,0
DA:274,0
DA:275,0
DA:276,0
DA:277,0
DA:278,0
DA:279,0
DA:280,0
DA:281,0
DA:282,0
DA:283,0
DA:284,0
DA:285,0
DA:286,0
DA:287,0
DA:288,0
DA:289,0
DA:290,0
DA:298,0
DA:299,0
DA:300,0
DA:301,0
DA:302,0
DA:303,0
DA:312,0
DA:313,0
DA:314,0
DA:315,0
DA:316,0
DA:317,0
DA:318,0
DA:320,0
DA:321,0
DA:322,0
DA:323,0
DA:324,0
DA:325,0
DA:326,0
DA:327,0
DA:328,0
DA:330,0
DA:331,0
DA:332,0
DA:333,0
DA:334,0
DA:335,0
DA:336,0
DA:337,0
DA:338,0
DA:340,0
DA:341,0
DA:342,0
DA:343,0
DA:344,0
DA:345,0
DA:349,0
DA:350,0
DA:351,0
DA:352,0
DA:354,0
DA:355,0
DA:357,0
DA:358,0
DA:359,0
DA:360,0
DA:364,0
DA:365,0
DA:367,0
DA:368,0
DA:369,0
DA:370,0
DA:374,0
DA:375,0
DA:377,0
DA:378,0
DA:379,0
DA:380,0
DA:384,0
DA:385,0
DA:387,0
DA:388,0
DA:389,0
DA:390,0
DA:394,0
DA:395,0
DA:397,0
DA:398,0
DA:399,0
DA:400,0
DA:404,0
DA:405,0
DA:407,0
DA:408,0
DA:409,0
DA:410,0
DA:414,0
DA:415,0
DA:417,0
DA:418,0
DA:419,0
DA:420,0
DA:424,0
DA:425,0
DA:427,0
DA:428,0
DA:429,0
DA:430,0
DA:434,0
DA:435,0
DA:437,0
DA:438,0
DA:439,0
DA:440,0
DA:444,0
DA:445,0
DA:447,0
DA:448,0
DA:449,0
DA:450,0
DA:454,0
DA:455,0
DA:458,0
DA:459,0
DA:468,0
DA:469,0
DA:470,0
DA:471,0
DA:472,0
DA:480,0
DA:481,0
DA:482,0
DA:483,0
DA:484,0
DA:492,0
DA:493,0
DA:494,0
DA:495,0
DA:496,0
DA:497,0
DA:505,0
DA:506,0
DA:507,0
DA:508,0
DA:509,0
DA:510,0
DA:515,0
DA:516,0
DA:517,0
DA:522,0
DA:523,0
DA:524,0
DA:525,0
DA:526,0
DA:528,0
DA:529,0
DA:530,0
DA:531,0
DA:532,0
DA:533,0
DA:536,0
DA:537,0
DA:538,0
DA:539,0
DA:540,0
DA:541,0
BRF:0
BRH:0
LF:352
LH:0
end_of_record
SF:/home/runner/work/hyperlight/hyperlight/src/hyperlight_common/src/flatbuffers/hyperlight/generated/function_call_type_generated.rs
FN:85,_RNvXs2_NtNtNtNtCs5hCjilINUCv_17hyperlight_common11flatbuffers10hyperlight9generated28function_call_type_generatedNtB5_16FunctionCallTypeNtNtCsdyFvlONsh1u_11flatbuffers13endian_scalar12EndianScalar16to_little_endianBd_
FN:90,_RNvXs2_NtNtNtNtCs5hCjilINUCv_17hyperlight_common11flatbuffers10hyperlight9generated28function_call_type_generatedNtB5_16FunctionCallTypeNtNtCsdyFvlONsh1u_11flatbuffers13endian_scalar12EndianScalar18from_little_endianBd_
FN:47,_RNvMNtNtNtNtCs5hCjilINUCv_17hyperlight_common11flatbuffers10hyperlight9generated28function_call_type_generatedNtB2_16FunctionCallType12variant_name
FN:68,_RNvXs0_NtNtNtNtCs5hCjilINUCv_17hyperlight_common11flatbuffers10hyperlight9generated28function_call_type_generatedNtB5_16FunctionCallTypeNtNtCsdyFvlONsh1u_11flatbuffers6follow6Follow6followBd_
FN:77,_RNvXs1_NtNtNtNtCs5hCjilINUCv_17hyperlight_common11flatbuffers10hyperlight9generated28function_call_type_generatedNtB5_16FunctionCallTypeNtNtCsdyFvlONsh1u_11flatbuffers4push4Push4pushBd_
FN:98,_RNvXs3_NtNtNtNtCs5hCjilINUCv_17hyperlight_common11flatbuffers10hyperlight9generated28function_call_type_generatedNtB5_16FunctionCallTypeNtNtCsdyFvlONsh1u_11flatbuffers8verifier10Verifiable12run_verifierBd_
FN:57,_RNvXs_NtNtNtNtCs5hCjilINUCv_17hyperlight_common11flatbuffers10hyperlight9generated28function_call_type_generatedNtB4_16FunctionCallTypeNtNtCs649FzoMgw5V_4core3fmt5Debug3fmt
FNDA:0,_RNvXs2_NtNtNtNtCs5hCjilINUCv_17hyperlight_common11flatbuffers10hyperlight9generated28function_call_type_generatedNtB5_16FunctionCallTypeNtNtCsdyFvlONsh1u_11flatbuffers13endian_scalar12EndianScalar16to_little_endianBd_
FNDA:0,_RNvXs2_NtNtNtNtCs5hCjilINUCv_17hyperlight_common11flatbuffers10hyperlight9generated28function_call_type_generatedNtB5_16FunctionCallTypeNtNtCsdyFvlONsh1u_11flatbuffers13endian_scalar12EndianScalar18from_little_endianBd_
FNDA:0,_RNvMNtNtNtNtCs5hCjilINUCv_17hyperlight_common11flatbuffers10hyperlight9generated28function_call_type_generatedNtB2_16FunctionCallType12variant_name
FNDA:0,_RNvXs0_NtNtNtNtCs5hCjilINUCv_17hyperlight_common11flatbuffers10hyperlight9generated28function_call_type_generatedNtB5_16FunctionCallTypeNtNtCsdyFvlONsh1u_11flatbuffers6follow6Follow6followBd_
FNDA:0,_RNvXs1_NtNtNtNtCs5hCjilINUCv_17hyperlight_common11flatbuffers10hyperlight9generated28function_call_type_generatedNtB5_16FunctionCallTypeNtNtCsdyFvlONsh1u_11flatbuffers4push4Push4pushBd_
FNDA:0,_RNvXs3_NtNtNtNtCs5hCjilINUCv_17hyperlight_common11flatbuffers10hyperlight9generated28function_call_type_generatedNtB5_16FunctionCallTypeNtNtCsdyFvlONsh1u_11flatbuffers8verifier10Verifiable12run_verifierBd_
FNDA:0,_RNvXs_NtNtNtNtCs5hCjilINUCv_17hyperlight_common11flatbuffers10hyperlight9generated28function_call_type_generatedNtB4_16FunctionCallTypeNtNtCs649FzoMgw5V_4core3fmt5Debug3fmt
FNF:7
FNH:0
DA:47,0
DA:48,0
DA:49,0
DA:50,0
DA:51,0
DA:52,0
DA:54,0
DA:57,0
DA:58,0
DA:59,0
DA:61,0
DA:63,0
DA:68,0
DA:69,0
DA:70,0
DA:71,0
DA:77,0
DA:78,0
DA:79,0
DA:85,0
DA:86,0
DA:87,0
DA:90,0
DA:91,0
DA:92,0
DA:93,0
DA:98,0
DA:99,0
DA:100,0
DA:101,0
DA:103,0
DA:104,0
BRF:0
BRH:0
LF:32
LH:0
end_of_record
SF:/home/runner/work/hyperlight/hyperlight/src/hyperlight_common/src/flatbuffers/hyperlight/generated/guest_error_generated.rs
FN:205,_RINvNtNtNtNtCs5hCjilINUCv_17hyperlight_common11flatbuffers10hyperlight9generated21guest_error_generated25finish_guest_error_bufferpEBa_
FN:213,_RINvNtNtNtNtCs5hCjilINUCv_17hyperlight_common11flatbuffers10hyperlight9generated21guest_error_generated39finish_size_prefixed_guest_error_bufferpEBa_
FN:35,_RNvMs_NtNtNtNtCs5hCjilINUCv_17hyperlight_common11flatbuffers10hyperlight9generated21guest_error_generatedNtB4_10GuestError15init_from_tableBc_
FN:149,_RNvNtNtNtNtCs5hCjilINUCv_17hyperlight_common11flatbuffers10hyperlight9generated21guest_error_generated19root_as_guest_errorB9_
FN:194,_RNvNtNtNtNtCs5hCjilINUCv_17hyperlight_common11flatbuffers10hyperlight9generated21guest_error_generated29root_as_guest_error_uncheckedB9_
FN:171,_RNvNtNtNtNtCs5hCjilINUCv_17hyperlight_common11flatbuffers10hyperlight9generated21guest_error_generated29root_as_guest_error_with_optsB9_
FN:159,_RNvNtNtNtNtCs5hCjilINUCv_17hyperlight_common11flatbuffers10hyperlight9generated21guest_error_generated33size_prefixed_root_as_guest_errorB9_
FN:201,_RNvNtNtNtNtCs5hCjilINUCv_17hyperlight_common11flatbuffers10hyperlight9generated21guest_error_generated43size_prefixed_root_as_guest_error_uncheckedB9_
FN:184,_RNvNtNtNtNtCs5hCjilINUCv_17hyperlight_common11flatbuffers10hyperlight9generated21guest_error_generated43size_prefixed_root_as_guest_error_with_optsB9_
FN:94,_RNvXs1_NtNtNtNtCs5hCjilINUCv_17hyperlight_common11flatbuffers10hyperlight9generated21guest_error_generatedNtB5_14GuestErrorArgsNtNtCs649FzoMgw5V_4core7default7Default7defaultBd_
FN:39,_RINvMs_NtNtNtNtCs5hCjilINUCv_17hyperlight_common11flatbuffers10hyperlight9generated21guest_error_generatedNtB5_10GuestError6createNtNtCsdyFvlONsh1u_11flatbuffers7builder16DefaultAllocatorEBd_
FN:113,_RNvMs2_NtNtNtNtCs5hCjilINUCv_17hyperlight_common11flatbuffers10hyperlight9generated21guest_error_generatedINtB5_17GuestErrorBuilderNtNtCsdyFvlONsh1u_11flatbuffers7builder16DefaultAllocatorE11add_messageBd_
FN:118,_RNvMs2_NtNtNtNtCs5hCjilINUCv_17hyperlight_common11flatbuffers10hyperlight9generated21guest_error_generatedINtB5_17GuestErrorBuilderNtNtCsdyFvlONsh1u_11flatbuffers7builder16DefaultAllocatorE3newBd_
FN:128,_RNvMs2_NtNtNtNtCs5hCjilINUCv_17hyperlight_common11flatbuffers10hyperlight9generated21guest_error_generatedINtB5_17GuestErrorBuilderNtNtCsdyFvlONsh1u_11flatbuffers7builder16DefaultAllocatorE6finishBd_
FN:108,_RNvMs2_NtNtNtNtCs5hCjilINUCv_17hyperlight_common11flatbuffers10hyperlight9generated21guest_error_generatedINtB5_17GuestErrorBuilderNtNtCsdyFvlONsh1u_11flatbuffers7builder16DefaultAllocatorE8add_codeBd_
FN:52,_RNvMs_NtNtNtNtCs5hCjilINUCv_17hyperlight_common11flatbuffers10hyperlight9generated21guest_error_generatedNtB4_10GuestError4codeBc_
FN:63,_RNvMs_NtNtNtNtCs5hCjilINUCv_17hyperlight_common11flatbuffers10hyperlight9generated21guest_error_generatedNtB4_10GuestError7messageBc_
FN:23,_RNvXNtNtNtNtCs5hCjilINUCv_17hyperlight_common11flatbuffers10hyperlight9generated21guest_error_generatedNtB2_10GuestErrorNtNtCsdyFvlONsh1u_11flatbuffers6follow6Follow6followBa_
FN:76,_RNvXs0_NtNtNtNtCs5hCjilINUCv_17hyperlight_common11flatbuffers10hyperlight9generated21guest_error_generatedNtB5_10GuestErrorNtNtCsdyFvlONsh1u_11flatbuffers8verifier10Verifiable12run_verifierBd_
FN:135,_RNvXs3_NtNtNtNtCs5hCjilINUCv_17hyperlight_common11flatbuffers10hyperlight9generated21guest_error_generatedNtB5_10GuestErrorNtNtCs649FzoMgw5V_4core3fmt5Debug3fmt
FNDA:0,_RINvNtNtNtNtCs5hCjilINUCv_17hyperlight_common11flatbuffers10hyperlight9generated21guest_error_generated25finish_guest_error_bufferpEBa_
FNDA:0,_RINvNtNtNtNtCs5hCjilINUCv_17hyperlight_common11flatbuffers10hyperlight9generated21guest_error_generated39finish_size_prefixed_guest_error_bufferpEBa_
FNDA:0,_RNvMs_NtNtNtNtCs5hCjilINUCv_17hyperlight_common11flatbuffers10hyperlight9generated21guest_error_generatedNtB4_10GuestError15init_from_tableBc_
FNDA:0,_RNvNtNtNtNtCs5hCjilINUCv_17hyperlight_common11flatbuffers10hyperlight9generated21guest_error_generated19root_as_guest_errorB9_
FNDA:0,_RNvNtNtNtNtCs5hCjilINUCv_17hyperlight_common11flatbuffers10hyperlight9generated21guest_error_generated29root_as_guest_error_uncheckedB9_
FNDA:0,_RNvNtNtNtNtCs5hCjilINUCv_17hyperlight_common11flatbuffers10hyperlight9generated21guest_error_generated29root_as_guest_error_with_optsB9_
FNDA:0,_RNvNtNtNtNtCs5hCjilINUCv_17hyperlight_common11flatbuffers10hyperlight9generated21guest_error_generated33size_prefixed_root_as_guest_errorB9_
FNDA:0,_RNvNtNtNtNtCs5hCjilINUCv_17hyperlight_common11flatbuffers10hyperlight9generated21guest_error_generated43size_prefixed_root_as_guest_error_uncheckedB9_
FNDA:0,_RNvNtNtNtNtCs5hCjilINUCv_17hyperlight_common11flatbuffers10hyperlight9generated21guest_error_generated43size_prefixed_root_as_guest_error_with_optsB9_
FNDA:0,_RNvXs1_NtNtNtNtCs5hCjilINUCv_17hyperlight_common11flatbuffers10hyperlight9generated21guest_error_generatedNtB5_14GuestErrorArgsNtNtCs649FzoMgw5V_4core7default7Default7defaultBd_
FNDA:0,_RINvMs_NtNtNtNtCs5hCjilINUCv_17hyperlight_common11flatbuffers10hyperlight9generated21guest_error_generatedNtB5_10GuestError6createNtNtCsdyFvlONsh1u_11flatbuffers7builder16DefaultAllocatorEBd_
FNDA:0,_RNvMs2_NtNtNtNtCs5hCjilINUCv_17hyperlight_common11flatbuffers10hyperlight9generated21guest_error_generatedINtB5_17GuestErrorBuilderNtNtCsdyFvlONsh1u_11flatbuffers7builder16DefaultAllocatorE11add_messageBd_
FNDA:0,_RNvMs2_NtNtNtNtCs5hCjilINUCv_17hyperlight_common11flatbuffers10hyperlight9generated21guest_error_generatedINtB5_17GuestErrorBuilderNtNtCsdyFvlONsh1u_11flatbuffers7builder16DefaultAllocatorE3newBd_
FNDA:0,_RNvMs2_NtNtNtNtCs5hCjilINUCv_17hyperlight_common11flatbuffers10hyperlight9generated21guest_error_generatedINtB5_17GuestErrorBuilderNtNtCsdyFvlONsh1u_11flatbuffers7builder16DefaultAllocatorE6finishBd_
FNDA:0,_RNvMs2_NtNtNtNtCs5hCjilINUCv_17hyperlight_common11flatbuffers10hyperlight9generated21guest_error_generatedINtB5_17GuestErrorBuilderNtNtCsdyFvlONsh1u_11flatbuffers7builder16DefaultAllocatorE8add_codeBd_
FNDA:0,_RNvMs_NtNtNtNtCs5hCjilINUCv_17hyperlight_common11flatbuffers10hyperlight9generated21guest_error_generatedNtB4_10GuestError4codeBc_
FNDA:0,_RNvMs_NtNtNtNtCs5hCjilINUCv_17hyperlight_common11flatbuffers10hyperlight9generated21guest_error_generatedNtB4_10GuestError7messageBc_
FNDA:0,_RNvXNtNtNtNtCs5hCjilINUCv_17hyperlight_common11flatbuffers10hyperlight9generated21guest_error_generatedNtB2_10GuestErrorNtNtCsdyFvlONsh1u_11flatbuffers6follow6Follow6followBa_
FNDA:0,_RNvXs0_NtNtNtNtCs5hCjilINUCv_17hyperlight_common11flatbuffers10hyperlight9generated21guest_error_generatedNtB5_10GuestErrorNtNtCsdyFvlONsh1u_11flatbuffers8verifier10Verifiable12run_verifierBd_
FNDA:0,_RNvXs3_NtNtNtNtCs5hCjilINUCv_17hyperlight_common11flatbuffers10hyperlight9generated21guest_error_generatedNtB5_10GuestErrorNtNtCs649FzoMgw5V_4core3fmt5Debug3fmt
FNF:20
FNH:0
DA:23,0
DA:24,0
DA:25,0
DA:26,0
DA:27,0
DA:35,0
DA:36,0
DA:37,0
DA:39,0
DA:40,0
DA:41,0
DA:42,0
DA:43,0
DA:44,0
DA:45,0
DA:46,0
DA:47,0
DA:48,0
DA:49,0
DA:52,0
DA:53,0
DA:54,0
DA:55,0
DA:56,0
DA:57,0
DA:58,0
DA:59,0
DA:60,0
DA:61,0
DA:63,0
DA:64,0
DA:65,0
DA:66,0
DA:67,0
DA:68,0
DA:69,0
DA:70,0
DA:71,0
DA:76,0
DA:77,0
DA:78,0
DA:79,0
DA:81,0
DA:82,0
DA:83,0
DA:84,0
DA:85,0
DA:86,0
DA:94,0
DA:95,0
DA:96,0
DA:97,0
DA:98,0
DA:99,0
DA:108,0
DA:109,0
DA:110,0
DA:111,0
DA:113,0
DA:114,0
DA:115,0
DA:116,0
DA:118,0
DA:119,0
DA:120,0
DA:121,0
DA:122,0
DA:123,0
DA:124,0
DA:125,0
DA:126,0
DA:128,0
DA:129,0
DA:130,0
DA:131,0
DA:135,0
DA:136,0
DA:137,0
DA:138,0
DA:139,0
DA:140,0
DA:149,0
DA:150,0
DA:151,0
DA:159,0
DA:160,0
DA:161,0
DA:162,0
DA:163,0
DA:171,0
DA:172,0
DA:173,0
DA:174,0
DA:175,0
DA:176,0
DA:184,0
DA:185,0
DA:186,0
DA:187,0
DA:188,0
DA:189,0
DA:194,0
DA:195,0
DA:196,0
DA:201,0
DA:202,0
DA:203,0
DA:205,0
DA:206,0
DA:207,0
DA:208,0
DA:209,0
DA:210,0
DA:213,0
DA:214,0
DA:215,0
DA:216,0
DA:217,0
DA:218,0
BRF:0
BRH:0
LF:119
LH:0
end_of_record
SF:/home/runner/work/hyperlight/hyperlight/src/hyperlight_common/src/flatbuffers/hyperlight/generated/guest_log_data_generated.rs
FN:43,_RINvMs_NtNtNtNtCs5hCjilINUCv_17hyperlight_common11flatbuffers10hyperlight9generated24guest_log_data_generatedNtB5_12GuestLogData6createNtNtCsdyFvlONsh1u_11flatbuffers7builder16DefaultAllocatorEBd_
FN:194,_RNvMs2_NtNtNtNtCs5hCjilINUCv_17hyperlight_common11flatbuffers10hyperlight9generated24guest_log_data_generatedINtB5_19GuestLogDataBuilderNtNtCsdyFvlONsh1u_11flatbuffers7builder16DefaultAllocatorE10add_callerBd_
FN:184,_RNvMs2_NtNtNtNtCs5hCjilINUCv_17hyperlight_common11flatbuffers10hyperlight9generated24guest_log_data_generatedINtB5_19GuestLogDataBuilderNtNtCsdyFvlONsh1u_11flatbuffers7builder16DefaultAllocatorE10add_sourceBd_
FN:179,_RNvMs2_NtNtNtNtCs5hCjilINUCv_17hyperlight_common11flatbuffers10hyperlight9generated24guest_log_data_generatedINtB5_19GuestLogDataBuilderNtNtCsdyFvlONsh1u_11flatbuffers7builder16DefaultAllocatorE11add_messageBd_
FN:199,_RNvMs2_NtNtNtNtCs5hCjilINUCv_17hyperlight_common11flatbuffers10hyperlight9generated24guest_log_data_generatedINtB5_19GuestLogDataBuilderNtNtCsdyFvlONsh1u_11flatbuffers7builder16DefaultAllocatorE15add_source_fileBd_
FN:210,_RNvMs2_NtNtNtNtCs5hCjilINUCv_17hyperlight_common11flatbuffers10hyperlight9generated24guest_log_data_generatedINtB5_19GuestLogDataBuilderNtNtCsdyFvlONsh1u_11flatbuffers7builder16DefaultAllocatorE3newBd_
FN:220,_RNvMs2_NtNtNtNtCs5hCjilINUCv_17hyperlight_common11flatbuffers10hyperlight9generated24guest_log_data_generatedINtB5_19GuestLogDataBuilderNtNtCsdyFvlONsh1u_11flatbuffers7builder16DefaultAllocatorE6finishBd_
FN:206,_RNvMs2_NtNtNtNtCs5hCjilINUCv_17hyperlight_common11flatbuffers10hyperlight9generated24guest_log_data_generatedINtB5_19GuestLogDataBuilderNtNtCsdyFvlONsh1u_11flatbuffers7builder16DefaultAllocatorE8add_lineBd_
FN:189,_RNvMs2_NtNtNtNtCs5hCjilINUCv_17hyperlight_common11flatbuffers10hyperlight9generated24guest_log_data_generatedINtB5_19GuestLogDataBuilderNtNtCsdyFvlONsh1u_11flatbuffers7builder16DefaultAllocatorE9add_levelBd_
FN:107,_RNvMs_NtNtNtNtCs5hCjilINUCv_17hyperlight_common11flatbuffers10hyperlight9generated24guest_log_data_generatedNtB4_12GuestLogData11source_fileBc_
FN:117,_RNvMs_NtNtNtNtCs5hCjilINUCv_17hyperlight_common11flatbuffers10hyperlight9generated24guest_log_data_generatedNtB4_12GuestLogData4lineBc_
FN:86,_RNvMs_NtNtNtNtCs5hCjilINUCv_17hyperlight_common11flatbuffers10hyperlight9generated24guest_log_data_generatedNtB4_12GuestLogData5levelBc_
FN:97,_RNvMs_NtNtNtNtCs5hCjilINUCv_17hyperlight_common11flatbuffers10hyperlight9generated24guest_log_data_generatedNtB4_12GuestLogData6callerBc_
FN:76,_RNvMs_NtNtNtNtCs5hCjilINUCv_17hyperlight_common11flatbuffers10hyperlight9generated24guest_log_data_generatedNtB4_12GuestLogData6sourceBc_
FN:66,_RNvMs_NtNtNtNtCs5hCjilINUCv_17hyperlight_common11flatbuffers10hyperlight9generated24guest_log_data_generatedNtB4_12GuestLogData7messageBc_
FN:23,_RNvXNtNtNtNtCs5hCjilINUCv_17hyperlight_common11flatbuffers10hyperlight9generated24guest_log_data_generatedNtB2_12GuestLogDataNtNtCsdyFvlONsh1u_11flatbuffers6follow6Follow6followBa_
FN:131,_RNvXs0_NtNtNtNtCs5hCjilINUCv_17hyperlight_common11flatbuffers10hyperlight9generated24guest_log_data_generatedNtB5_12GuestLogDataNtNtCsdyFvlONsh1u_11flatbuffers8verifier10Verifiable12run_verifierBd_
FN:227,_RNvXs3_NtNtNtNtCs5hCjilINUCv_17hyperlight_common11flatbuffers10hyperlight9generated24guest_log_data_generatedNtB5_12GuestLogDataNtNtCs649FzoMgw5V_4core3fmt5Debug3fmt
FN:301,_RINvNtNtNtNtCs5hCjilINUCv_17hyperlight_common11flatbuffers10hyperlight9generated24guest_log_data_generated28finish_guest_log_data_bufferpEBa_
FN:309,_RINvNtNtNtNtCs5hCjilINUCv_17hyperlight_common11flatbuffers10hyperlight9generated24guest_log_data_generated42finish_size_prefixed_guest_log_data_bufferpEBa_
FN:39,_RNvMs_NtNtNtNtCs5hCjilINUCv_17hyperlight_common11flatbuffers10hyperlight9generated24guest_log_data_generatedNtB4_12GuestLogData15init_from_tableBc_
FN:245,_RNvNtNtNtNtCs5hCjilINUCv_17hyperlight_common11flatbuffers10hyperlight9generated24guest_log_data_generated22root_as_guest_log_dataB9_
FN:290,_RNvNtNtNtNtCs5hCjilINUCv_17hyperlight_common11flatbuffers10hyperlight9generated24guest_log_data_generated32root_as_guest_log_data_uncheckedB9_
FN:267,_RNvNtNtNtNtCs5hCjilINUCv_17hyperlight_common11flatbuffers10hyperlight9generated24guest_log_data_generated32root_as_guest_log_data_with_optsB9_
FN:255,_RNvNtNtNtNtCs5hCjilINUCv_17hyperlight_common11flatbuffers10hyperlight9generated24guest_log_data_generated36size_prefixed_root_as_guest_log_dataB9_
FN:297,_RNvNtNtNtNtCs5hCjilINUCv_17hyperlight_common11flatbuffers10hyperlight9generated24guest_log_data_generated46size_prefixed_root_as_guest_log_data_uncheckedB9_
FN:280,_RNvNtNtNtNtCs5hCjilINUCv_17hyperlight_common11flatbuffers10hyperlight9generated24guest_log_data_generated46size_prefixed_root_as_guest_log_data_with_optsB9_
FN:161,_RNvXs1_NtNtNtNtCs5hCjilINUCv_17hyperlight_common11flatbuffers10hyperlight9generated24guest_log_data_generatedNtB5_16GuestLogDataArgsNtNtCs649FzoMgw5V_4core7default7Default7defaultBd_
FNDA:0,_RINvMs_NtNtNtNtCs5hCjilINUCv_17hyperlight_common11flatbuffers10hyperlight9generated24guest_log_data_generatedNtB5_12GuestLogData6createNtNtCsdyFvlONsh1u_11flatbuffers7builder16DefaultAllocatorEBd_
FNDA:0,_RNvMs2_NtNtNtNtCs5hCjilINUCv_17hyperlight_common11flatbuffers10hyperlight9generated24guest_log_data_generatedINtB5_19GuestLogDataBuilderNtNtCsdyFvlONsh1u_11flatbuffers7builder16DefaultAllocatorE10add_callerBd_
FNDA:0,_RNvMs2_NtNtNtNtCs5hCjilINUCv_17hyperlight_common11flatbuffers10hyperlight9generated24guest_log_data_generatedINtB5_19GuestLogDataBuilderNtNtCsdyFvlONsh1u_11flatbuffers7builder16DefaultAllocatorE10add_sourceBd_
FNDA:0,_RNvMs2_NtNtNtNtCs5hCjilINUCv_17hyperlight_common11flatbuffers10hyperlight9generated24guest_log_data_generatedINtB5_19GuestLogDataBuilderNtNtCsdyFvlONsh1u_11flatbuffers7builder16DefaultAllocatorE11add_messageBd_
FNDA:0,_RNvMs2_NtNtNtNtCs5hCjilINUCv_17hyperlight_common11flatbuffers10hyperlight9generated24guest_log_data_generatedINtB5_19GuestLogDataBuilderNtNtCsdyFvlONsh1u_11flatbuffers7builder16DefaultAllocatorE15add_source_fileBd_
FNDA:0,_RNvMs2_NtNtNtNtCs5hCjilINUCv_17hyperlight_common11flatbuffers10hyperlight9generated24guest_log_data_generatedINtB5_19GuestLogDataBuilderNtNtCsdyFvlONsh1u_11flatbuffers7builder16DefaultAllocatorE3newBd_
FNDA:0,_RNvMs2_NtNtNtNtCs5hCjilINUCv_17hyperlight_common11flatbuffers10hyperlight9generated24guest_log_data_generatedINtB5_19GuestLogDataBuilderNtNtCsdyFvlONsh1u_11flatbuffers7builder16DefaultAllocatorE6finishBd_
FNDA:0,_RNvMs2_NtNtNtNtCs5hCjilINUCv_17hyperlight_common11flatbuffers10hyperlight9generated24guest_log_data_generatedINtB5_19GuestLogDataBuilderNtNtCsdyFvlONsh1u_11flatbuffers7builder16DefaultAllocatorE8add_lineBd_
FNDA:0,_RNvMs2_NtNtNtNtCs5hCjilINUCv_17hyperlight_common11flatbuffers10hyperlight9generated24guest_log_data_generatedINtB5_19GuestLogDataBuilderNtNtCsdyFvlONsh1u_11flatbuffers7builder16DefaultAllocatorE9add_levelBd_
FNDA:0,_RNvMs_NtNtNtNtCs5hCjilINUCv_17hyperlight_common11flatbuffers10hyperlight9generated24guest_log_data_generatedNtB4_12GuestLogData11source_fileBc_
FNDA:0,_RNvMs_NtNtNtNtCs5hCjilINUCv_17hyperlight_common11flatbuffers10hyperlight9generated24guest_log_data_generatedNtB4_12GuestLogData4lineBc_
FNDA:0,_RNvMs_NtNtNtNtCs5hCjilINUCv_17hyperlight_common11flatbuffers10hyperlight9generated24guest_log_data_generatedNtB4_12GuestLogData5levelBc_
FNDA:0,_RNvMs_NtNtNtNtCs5hCjilINUCv_17hyperlight_common11flatbuffers10hyperlight9generated24guest_log_data_generatedNtB4_12GuestLogData6callerBc_
FNDA:0,_RNvMs_NtNtNtNtCs5hCjilINUCv_17hyperlight_common11flatbuffers10hyperlight9generated24guest_log_data_generatedNtB4_12GuestLogData6sourceBc_
FNDA:0,_RNvMs_NtNtNtNtCs5hCjilINUCv_17hyperlight_common11flatbuffers10hyperlight9generated24guest_log_data_generatedNtB4_12GuestLogData7messageBc_
FNDA:0,_RNvXNtNtNtNtCs5hCjilINUCv_17hyperlight_common11flatbuffers10hyperlight9generated24guest_log_data_generatedNtB2_12GuestLogDataNtNtCsdyFvlONsh1u_11flatbuffers6follow6Follow6followBa_
FNDA:0,_RNvXs0_NtNtNtNtCs5hCjilINUCv_17hyperlight_common11flatbuffers10hyperlight9generated24guest_log_data_generatedNtB5_12GuestLogDataNtNtCsdyFvlONsh1u_11flatbuffers8verifier10Verifiable12run_verifierBd_
FNDA:0,_RNvXs3_NtNtNtNtCs5hCjilINUCv_17hyperlight_common11flatbuffers10hyperlight9generated24guest_log_data_generatedNtB5_12GuestLogDataNtNtCs649FzoMgw5V_4core3fmt5Debug3fmt
FNDA:0,_RINvNtNtNtNtCs5hCjilINUCv_17hyperlight_common11flatbuffers10hyperlight9generated24guest_log_data_generated28finish_guest_log_data_bufferpEBa_
FNDA:0,_RINvNtNtNtNtCs5hCjilINUCv_17hyperlight_common11flatbuffers10hyperlight9generated24guest_log_data_generated42finish_size_prefixed_guest_log_data_bufferpEBa_
FNDA:0,_RNvMs_NtNtNtNtCs5hCjilINUCv_17hyperlight_common11flatbuffers10hyperlight9generated24guest_log_data_generatedNtB4_12GuestLogData15init_from_tableBc_
FNDA:0,_RNvNtNtNtNtCs5hCjilINUCv_17hyperlight_common11flatbuffers10hyperlight9generated24guest_log_data_generated22root_as_guest_log_dataB9_
FNDA:0,_RNvNtNtNtNtCs5hCjilINUCv_17hyperlight_common11flatbuffers10hyperlight9generated24guest_log_data_generated32root_as_guest_log_data_uncheckedB9_
FNDA:0,_RNvNtNtNtNtCs5hCjilINUCv_17hyperlight_common11flatbuffers10hyperlight9generated24guest_log_data_generated32root_as_guest_log_data_with_optsB9_
FNDA:0,_RNvNtNtNtNtCs5hCjilINUCv_17hyperlight_common11flatbuffers10hyperlight9generated24guest_log_data_generated36size_prefixed_root_as_guest_log_dataB9_
FNDA:0,_RNvNtNtNtNtCs5hCjilINUCv_17hyperlight_common11flatbuffers10hyperlight9generated24guest_log_data_generated46size_prefixed_root_as_guest_log_data_uncheckedB9_
FNDA:0,_RNvNtNtNtNtCs5hCjilINUCv_17hyperlight_common11flatbuffers10hyperlight9generated24guest_log_data_generated46size_prefixed_root_as_guest_log_data_with_optsB9_
FNDA:0,_RNvXs1_NtNtNtNtCs5hCjilINUCv_17hyperlight_common11flatbuffers10hyperlight9generated24guest_log_data_generatedNtB5_16GuestLogDataArgsNtNtCs649FzoMgw5V_4core7default7Default7defaultBd_
FNF:28
FNH:0
DA:23,0
DA:24,0
DA:25,0
DA:26,0
DA:27,0
DA:39,0
DA:40,0
DA:41,0
DA:43,0
DA:44,0
DA:45,0
DA:46,0
DA:47,0
DA:48,0
DA:49,0
DA:50,0
DA:51,0
DA:52,0
DA:53,0
DA:54,0
DA:55,0
DA:56,0
DA:57,0
DA:58,0
DA:59,0
DA:60,0
DA:61,0
DA:62,0
DA:63,0
DA:66,0
DA:67,0
DA:68,0
DA:69,0
DA:70,0
DA:71,0
DA:72,0
DA:73,0
DA:74,0
DA:76,0
DA:77,0
DA:78,0
DA:79,0
DA:80,0
DA:81,0
DA:82,0
DA:83,0
DA:84,0
DA:86,0
DA:87,0
DA:88,0
DA:89,0
DA:90,0
DA:91,0
DA:92,0
DA:93,0
DA:94,0
DA:95,0
DA:97,0
DA:98,0
DA:99,0
DA:100,0
DA:101,0
DA:102,0
DA:103,0
DA:104,0
DA:105,0
DA:107,0
DA:108,0
DA:109,0
DA:110,0
DA:111,0
DA:112,0
DA:113,0
DA:114,0
DA:115,0
DA:117,0
DA:118,0
DA:119,0
DA:120,0
DA:121,0
DA:122,0
DA:123,0
DA:124,0
DA:125,0
DA:126,0
DA:131,0
DA:132,0
DA:133,0
DA:134,0
DA:136,0
DA:137,0
DA:138,0
DA:139,0
DA:140,0
DA:141,0
DA:142,0
DA:143,0
DA:144,0
DA:145,0
DA:146,0
DA:147,0
DA:148,0
DA:149,0
DA:161,0
DA:162,0
DA:163,0
DA:164,0
DA:165,0
DA:166,0
DA:167,0
DA:168,0
DA:169,0
DA:170,0
DA:179,0
DA:180,0
DA:181,0
DA:182,0
DA:184,0
DA:185,0
DA:186,0
DA:187,0
DA:189,0
DA:190,0
DA:191,0
DA:192,0
DA:194,0
DA:195,0
DA:196,0
DA:197,0
DA:199,0
DA:200,0
DA:201,0
DA:202,0
DA:203,0
DA:204,0
DA:206,0
DA:207,0
DA:208,0
DA:210,0
DA:211,0
DA:212,0
DA:213,0
DA:214,0
DA:215,0
DA:216,0
DA:217,0
DA:218,0
DA:220,0
DA:221,0
DA:222,0
DA:223,0
DA:227,0
DA:228,0
DA:229,0
DA:230,0
DA:231,0
DA:232,0
DA:233,0
DA:234,0
DA:235,0
DA:236,0
DA:245,0
DA:246,0
DA:247,0
DA:255,0
DA:256,0
DA:257,0
DA:258,0
DA:259,0
DA:267,0
DA:268,0
DA:269,0
DA:270,0
DA:271,0
DA:272,0
DA:280,0
DA:281,0
DA:282,0
DA:283,0
DA:284,0
DA:285,0
DA:290,0
DA:291,0
DA:292,0
DA:297,0
DA:298,0
DA:299,0
DA:301,0
DA:302,0
DA:303,0
DA:304,0
DA:305,0
DA:306,0
DA:309,0
DA:310,0
DA:311,0
DA:312,0
DA:313,0
DA:314,0
BRF:0
BRH:0
LF:199
LH:0
end_of_record
SF:/home/runner/work/hyperlight/hyperlight/src/hyperlight_common/src/flatbuffers/hyperlight/generated/hlbool_generated.rs
FN:38,_RINvMs_NtNtNtNtCs5hCjilINUCv_17hyperlight_common11flatbuffers10hyperlight9generated16hlbool_generatedNtB5_6hlbool6createNtNtCsdyFvlONsh1u_11flatbuffers7builder16DefaultAllocatorEBd_
FN:93,_RNvMs2_NtNtNtNtCs5hCjilINUCv_17hyperlight_common11flatbuffers10hyperlight9generated16hlbool_generatedINtB5_13hlboolBuilderNtNtCsdyFvlONsh1u_11flatbuffers7builder16DefaultAllocatorE3newBd_
FN:101,_RNvMs2_NtNtNtNtCs5hCjilINUCv_17hyperlight_common11flatbuffers10hyperlight9generated16hlbool_generatedINtB5_13hlboolBuilderNtNtCsdyFvlONsh1u_11flatbuffers7builder16DefaultAllocatorE6finishBd_
FN:89,_RNvMs2_NtNtNtNtCs5hCjilINUCv_17hyperlight_common11flatbuffers10hyperlight9generated16hlbool_generatedINtB5_13hlboolBuilderNtNtCsdyFvlONsh1u_11flatbuffers7builder16DefaultAllocatorE9add_valueBd_
FN:34,_RNvMs_NtNtNtNtCs5hCjilINUCv_17hyperlight_common11flatbuffers10hyperlight9generated16hlbool_generatedNtB4_6hlbool15init_from_tableBc_
FN:48,_RNvMs_NtNtNtNtCs5hCjilINUCv_17hyperlight_common11flatbuffers10hyperlight9generated16hlbool_generatedNtB4_6hlbool5valueBc_
FN:62,_RNvXs0_NtNtNtNtCs5hCjilINUCv_17hyperlight_common11flatbuffers10hyperlight9generated16hlbool_generatedNtB5_6hlboolNtNtCsdyFvlONsh1u_11flatbuffers8verifier10Verifiable12run_verifierBd_
FN:108,_RNvXs3_NtNtNtNtCs5hCjilINUCv_17hyperlight_common11flatbuffers10hyperlight9generated16hlbool_generatedNtB5_6hlboolNtNtCs649FzoMgw5V_4core3fmt5Debug3fmt
FN:23,_RNvXNtNtNtNtCs5hCjilINUCv_17hyperlight_common11flatbuffers10hyperlight9generated16hlbool_generatedNtB2_6hlboolNtNtCsdyFvlONsh1u_11flatbuffers6follow6Follow6followBa_
FN:78,_RNvXs1_NtNtNtNtCs5hCjilINUCv_17hyperlight_common11flatbuffers10hyperlight9generated16hlbool_generatedNtB5_10hlboolArgsNtNtCs649FzoMgw5V_4core7default7Default7defaultBd_
FNDA:0,_RINvMs_NtNtNtNtCs5hCjilINUCv_17hyperlight_common11flatbuffers10hyperlight9generated16hlbool_generatedNtB5_6hlbool6createNtNtCsdyFvlONsh1u_11flatbuffers7builder16DefaultAllocatorEBd_
FNDA:0,_RNvMs2_NtNtNtNtCs5hCjilINUCv_17hyperlight_common11flatbuffers10hyperlight9generated16hlbool_generatedINtB5_13hlboolBuilderNtNtCsdyFvlONsh1u_11flatbuffers7builder16DefaultAllocatorE3newBd_
FNDA:0,_RNvMs2_NtNtNtNtCs5hCjilINUCv_17hyperlight_common11flatbuffers10hyperlight9generated16hlbool_generatedINtB5_13hlboolBuilderNtNtCsdyFvlONsh1u_11flatbuffers7builder16DefaultAllocatorE6finishBd_
FNDA:0,_RNvMs2_NtNtNtNtCs5hCjilINUCv_17hyperlight_common11flatbuffers10hyperlight9generated16hlbool_generatedINtB5_13hlboolBuilderNtNtCsdyFvlONsh1u_11flatbuffers7builder16DefaultAllocatorE9add_valueBd_
FNDA:0,_RNvMs_NtNtNtNtCs5hCjilINUCv_17hyperlight_common11flatbuffers10hyperlight9generated16hlbool_generatedNtB4_6hlbool15init_from_tableBc_
FNDA:0,_RNvMs_NtNtNtNtCs5hCjilINUCv_17hyperlight_common11flatbuffers10hyperlight9generated16hlbool_generatedNtB4_6hlbool5valueBc_
FNDA:0,_RNvXs0_NtNtNtNtCs5hCjilINUCv_17hyperlight_common11flatbuffers10hyperlight9generated16hlbool_generatedNtB5_6hlboolNtNtCsdyFvlONsh1u_11flatbuffers8verifier10Verifiable12run_verifierBd_
FNDA:0,_RNvXs3_NtNtNtNtCs5hCjilINUCv_17hyperlight_common11flatbuffers10hyperlight9generated16hlbool_generatedNtB5_6hlboolNtNtCs649FzoMgw5V_4core3fmt5Debug3fmt
FNDA:0,_RNvXNtNtNtNtCs5hCjilINUCv_17hyperlight_common11flatbuffers10hyperlight9generated16hlbool_generatedNtB2_6hlboolNtNtCsdyFvlONsh1u_11flatbuffers6follow6Follow6followBa_
FNDA:0,_RNvXs1_NtNtNtNtCs5hCjilINUCv_17hyperlight_common11flatbuffers10hyperlight9generated16hlbool_generatedNtB5_10hlboolArgsNtNtCs649FzoMgw5V_4core7default7Default7defaultBd_
FNF:10
FNH:0
DA:23,0
DA:24,0
DA:25,0
DA:26,0
DA:27,0
DA:34,0
DA:35,0
DA:36,0
DA:38,0
DA:39,0
DA:40,0
DA:41,0
DA:42,0
DA:43,0
DA:44,0
DA:45,0
DA:48,0
DA:49,0
DA:50,0
DA:51,0
DA:52,0
DA:53,0
DA:54,0
DA:55,0
DA:56,0
DA:57,0
DA:62,0
DA:63,0
DA:64,0
DA:65,0
DA:67,0
DA:68,0
DA:69,0
DA:70,0
DA:71,0
DA:78,0
DA:79,0
DA:80,0
DA:89,0
DA:90,0
DA:91,0
DA:93,0
DA:94,0
DA:95,0
DA:96,0
DA:97,0
DA:98,0
DA:99,0
DA:101,0
DA:102,0
DA:103,0
DA:104,0
DA:108,0
DA:109,0
DA:110,0
DA:111,0
DA:112,0
BRF:0
BRH:0
LF:57
LH:0
end_of_record
SF:/home/runner/work/hyperlight/hyperlight/src/hyperlight_common/src/flatbuffers/hyperlight/generated/hldouble_generated.rs
FN:23,_RNvXNtNtNtNtCs5hCjilINUCv_17hyperlight_common11flatbuffers10hyperlight9generated18hldouble_generatedNtB2_8hldoubleNtNtCsdyFvlONsh1u_11flatbuffers6follow6Follow6followBa_
FN:74,_RNvXs1_NtNtNtNtCs5hCjilINUCv_17hyperlight_common11flatbuffers10hyperlight9generated18hldouble_generatedNtB5_12hldoubleArgsNtNtCs649FzoMgw5V_4core7default7Default7defaultBd_
FN:38,_RINvMs_NtNtNtNtCs5hCjilINUCv_17hyperlight_common11flatbuffers10hyperlight9generated18hldouble_generatedNtB5_8hldouble6createNtNtCsdyFvlONsh1u_11flatbuffers7builder16DefaultAllocatorEBd_
FN:89,_RNvMs2_NtNtNtNtCs5hCjilINUCv_17hyperlight_common11flatbuffers10hyperlight9generated18hldouble_generatedINtB5_15hldoubleBuilderNtNtCsdyFvlONsh1u_11flatbuffers7builder16DefaultAllocatorE3newBd_
FN:97,_RNvMs2_NtNtNtNtCs5hCjilINUCv_17hyperlight_common11flatbuffers10hyperlight9generated18hldouble_generatedINtB5_15hldoubleBuilderNtNtCsdyFvlONsh1u_11flatbuffers7builder16DefaultAllocatorE6finishBd_
FN:85,_RNvMs2_NtNtNtNtCs5hCjilINUCv_17hyperlight_common11flatbuffers10hyperlight9generated18hldouble_generatedINtB5_15hldoubleBuilderNtNtCsdyFvlONsh1u_11flatbuffers7builder16DefaultAllocatorE9add_valueBd_
FN:34,_RNvMs_NtNtNtNtCs5hCjilINUCv_17hyperlight_common11flatbuffers10hyperlight9generated18hldouble_generatedNtB4_8hldouble15init_from_tableBc_
FN:48,_RNvMs_NtNtNtNtCs5hCjilINUCv_17hyperlight_common11flatbuffers10hyperlight9generated18hldouble_generatedNtB4_8hldouble5valueBc_
FN:58,_RNvXs0_NtNtNtNtCs5hCjilINUCv_17hyperlight_common11flatbuffers10hyperlight9generated18hldouble_generatedNtB5_8hldoubleNtNtCsdyFvlONsh1u_11flatbuffers8verifier10Verifiable12run_verifierBd_
FN:104,_RNvXs3_NtNtNtNtCs5hCjilINUCv_17hyperlight_common11flatbuffers10hyperlight9generated18hldouble_generatedNtB5_8hldoubleNtNtCs649FzoMgw5V_4core3fmt5Debug3fmt
FNDA:0,_RNvXNtNtNtNtCs5hCjilINUCv_17hyperlight_common11flatbuffers10hyperlight9generated18hldouble_generatedNtB2_8hldoubleNtNtCsdyFvlONsh1u_11flatbuffers6follow6Follow6followBa_
FNDA:0,_RNvXs1_NtNtNtNtCs5hCjilINUCv_17hyperlight_common11flatbuffers10hyperlight9generated18hldouble_generatedNtB5_12hldoubleArgsNtNtCs649FzoMgw5V_4core7default7Default7defaultBd_
FNDA:0,_RINvMs_NtNtNtNtCs5hCjilINUCv_17hyperlight_common11flatbuffers10hyperlight9generated18hldouble_generatedNtB5_8hldouble6createNtNtCsdyFvlONsh1u_11flatbuffers7builder16DefaultAllocatorEBd_
FNDA:0,_RNvMs2_NtNtNtNtCs5hCjilINUCv_17hyperlight_common11flatbuffers10hyperlight9generated18hldouble_generatedINtB5_15hldoubleBuilderNtNtCsdyFvlONsh1u_11flatbuffers7builder16DefaultAllocatorE3newBd_
FNDA:0,_RNvMs2_NtNtNtNtCs5hCjilINUCv_17hyperlight_common11flatbuffers10hyperlight9generated18hldouble_generatedINtB5_15hldoubleBuilderNtNtCsdyFvlONsh1u_11flatbuffers7builder16DefaultAllocatorE6finishBd_
FNDA:0,_RNvMs2_NtNtNtNtCs5hCjilINUCv_17hyperlight_common11flatbuffers10hyperlight9generated18hldouble_generatedINtB5_15hldoubleBuilderNtNtCsdyFvlONsh1u_11flatbuffers7builder16DefaultAllocatorE9add_valueBd_
FNDA:0,_RNvMs_NtNtNtNtCs5hCjilINUCv_17hyperlight_common11flatbuffers10hyperlight9generated18hldouble_generatedNtB4_8hldouble15init_from_tableBc_
FNDA:0,_RNvMs_NtNtNtNtCs5hCjilINUCv_17hyperlight_common11flatbuffers10hyperlight9generated18hldouble_generatedNtB4_8hldouble5valueBc_
FNDA:0,_RNvXs0_NtNtNtNtCs5hCjilINUCv_17hyperlight_common11flatbuffers10hyperlight9generated18hldouble_generatedNtB5_8hldoubleNtNtCsdyFvlONsh1u_11flatbuffers8verifier10Verifiable12run_verifierBd_
FNDA:0,_RNvXs3_NtNtNtNtCs5hCjilINUCv_17hyperlight_common11flatbuffers10hyperlight9generated18hldouble_generatedNtB5_8hldoubleNtNtCs649FzoMgw5V_4core3fmt5Debug3fmt
FNF:10
FNH:0
DA:23,0
DA:24,0
DA:25,0
DA:26,0
DA:27,0
DA:34,0
DA:35,0
DA:36,0
DA:38,0
DA:39,0
DA:40,0
DA:41,0
DA:42,0
DA:43,0
DA:44,0
DA:45,0
DA:48,0
DA:49,0
DA:50,0
DA:51,0
DA:52,0
DA:53,0
DA:58,0
DA:59,0
DA:60,0
DA:61,0
DA:63,0
DA:64,0
DA:65,0
DA:66,0
DA:67,0
DA:74,0
DA:75,0
DA:76,0
DA:85,0
DA:86,0
DA:87,0
DA:89,0
DA:90,0
DA:91,0
DA:92,0
DA:93,0
DA:94,0
DA:95,0
DA:97,0
DA:98,0
DA:99,0
DA:100,0
DA:104,0
DA:105,0
DA:106,0
DA:107,0
DA:108,0
BRF:0
BRH:0
LF:53
LH:0
end_of_record
SF:/home/runner/work/hyperlight/hyperlight/src/hyperlight_common/src/flatbuffers/hyperlight/generated/hlfloat_generated.rs
FN:23,_RNvXNtNtNtNtCs5hCjilINUCv_17hyperlight_common11flatbuffers10hyperlight9generated17hlfloat_generatedNtB2_7hlfloatNtNtCsdyFvlONsh1u_11flatbuffers6follow6Follow6followBa_
FN:74,_RNvXs1_NtNtNtNtCs5hCjilINUCv_17hyperlight_common11flatbuffers10hyperlight9generated17hlfloat_generatedNtB5_11hlfloatArgsNtNtCs649FzoMgw5V_4core7default7Default7defaultBd_
FN:38,_RINvMs_NtNtNtNtCs5hCjilINUCv_17hyperlight_common11flatbuffers10hyperlight9generated17hlfloat_generatedNtB5_7hlfloat6createNtNtCsdyFvlONsh1u_11flatbuffers7builder16DefaultAllocatorEBd_
FN:89,_RNvMs2_NtNtNtNtCs5hCjilINUCv_17hyperlight_common11flatbuffers10hyperlight9generated17hlfloat_generatedINtB5_14hlfloatBuilderNtNtCsdyFvlONsh1u_11flatbuffers7builder16DefaultAllocatorE3newBd_
FN:97,_RNvMs2_NtNtNtNtCs5hCjilINUCv_17hyperlight_common11flatbuffers10hyperlight9generated17hlfloat_generatedINtB5_14hlfloatBuilderNtNtCsdyFvlONsh1u_11flatbuffers7builder16DefaultAllocatorE6finishBd_
FN:85,_RNvMs2_NtNtNtNtCs5hCjilINUCv_17hyperlight_common11flatbuffers10hyperlight9generated17hlfloat_generatedINtB5_14hlfloatBuilderNtNtCsdyFvlONsh1u_11flatbuffers7builder16DefaultAllocatorE9add_valueBd_
FN:34,_RNvMs_NtNtNtNtCs5hCjilINUCv_17hyperlight_common11flatbuffers10hyperlight9generated17hlfloat_generatedNtB4_7hlfloat15init_from_tableBc_
FN:48,_RNvMs_NtNtNtNtCs5hCjilINUCv_17hyperlight_common11flatbuffers10hyperlight9generated17hlfloat_generatedNtB4_7hlfloat5valueBc_
FN:58,_RNvXs0_NtNtNtNtCs5hCjilINUCv_17hyperlight_common11flatbuffers10hyperlight9generated17hlfloat_generatedNtB5_7hlfloatNtNtCsdyFvlONsh1u_11flatbuffers8verifier10Verifiable12run_verifierBd_
FN:104,_RNvXs3_NtNtNtNtCs5hCjilINUCv_17hyperlight_common11flatbuffers10hyperlight9generated17hlfloat_generatedNtB5_7hlfloatNtNtCs649FzoMgw5V_4core3fmt5Debug3fmt
FNDA:0,_RNvXNtNtNtNtCs5hCjilINUCv_17hyperlight_common11flatbuffers10hyperlight9generated17hlfloat_generatedNtB2_7hlfloatNtNtCsdyFvlONsh1u_11flatbuffers6follow6Follow6followBa_
FNDA:0,_RNvXs1_NtNtNtNtCs5hCjilINUCv_17hyperlight_common11flatbuffers10hyperlight9generated17hlfloat_generatedNtB5_11hlfloatArgsNtNtCs649FzoMgw5V_4core7default7Default7defaultBd_
FNDA:0,_RINvMs_NtNtNtNtCs5hCjilINUCv_17hyperlight_common11flatbuffers10hyperlight9generated17hlfloat_generatedNtB5_7hlfloat6createNtNtCsdyFvlONsh1u_11flatbuffers7builder16DefaultAllocatorEBd_
FNDA:0,_RNvMs2_NtNtNtNtCs5hCjilINUCv_17hyperlight_common11flatbuffers10hyperlight9generated17hlfloat_generatedINtB5_14hlfloatBuilderNtNtCsdyFvlONsh1u_11flatbuffers7builder16DefaultAllocatorE3newBd_
FNDA:0,_RNvMs2_NtNtNtNtCs5hCjilINUCv_17hyperlight_common11flatbuffers10hyperlight9generated17hlfloat_generatedINtB5_14hlfloatBuilderNtNtCsdyFvlONsh1u_11flatbuffers7builder16DefaultAllocatorE6finishBd_
FNDA:0,_RNvMs2_NtNtNtNtCs5hCjilINUCv_17hyperlight_common11flatbuffers10hyperlight9generated17hlfloat_generatedINtB5_14hlfloatBuilderNtNtCsdyFvlONsh1u_11flatbuffers7builder16DefaultAllocatorE9add_valueBd_
FNDA:0,_RNvMs_NtNtNtNtCs5hCjilINUCv_17hyperlight_common11flatbuffers10hyperlight9generated17hlfloat_generatedNtB4_7hlfloat15init_from_tableBc_
FNDA:0,_RNvMs_NtNtNtNtCs5hCjilINUCv_17hyperlight_common11flatbuffers10hyperlight9generated17hlfloat_generatedNtB4_7hlfloat5valueBc_
FNDA:0,_RNvXs0_NtNtNtNtCs5hCjilINUCv_17hyperlight_common11flatbuffers10hyperlight9generated17hlfloat_generatedNtB5_7hlfloatNtNtCsdyFvlONsh1u_11flatbuffers8verifier10Verifiable12run_verifierBd_
FNDA:0,_RNvXs3_NtNtNtNtCs5hCjilINUCv_17hyperlight_common11flatbuffers10hyperlight9generated17hlfloat_generatedNtB5_7hlfloatNtNtCs649FzoMgw5V_4core3fmt5Debug3fmt
FNF:10
FNH:0
DA:23,0
DA:24,0
DA:25,0
DA:26,0
DA:27,0
DA:34,0
DA:35,0
DA:36,0
DA:38,0
DA:39,0
DA:40,0
DA:41,0
DA:42,0
DA:43,0
DA:44,0
DA:45,0
DA:48,0
DA:49,0
DA:50,0
DA:51,0
DA:52,0
DA:53,0
DA:58,0
DA:59,0
DA:60,0
DA:61,0
DA:63,0
DA:64,0
DA:65,0
DA:66,0
DA:67,0
DA:74,0
DA:75,0
DA:76,0
DA:85,0
DA:86,0
DA:87,0
DA:89,0
DA:90,0
DA:91,0
DA:92,0
DA:93,0
DA:94,0
DA:95,0
DA:97,0
DA:98,0
DA:99,0
DA:100,0
DA:104,0
DA:105,0
DA:106,0
DA:107,0
DA:108,0
BRF:0
BRH:0
LF:53
LH:0
end_of_record
SF:/home/runner/work/hyperlight/hyperlight/src/hyperlight_common/src/flatbuffers/hyperlight/generated/hlint_generated.rs
FN:23,_RNvXNtNtNtNtCs5hCjilINUCv_17hyperlight_common11flatbuffers10hyperlight9generated15hlint_generatedNtB2_5hlintNtNtCsdyFvlONsh1u_11flatbuffers6follow6Follow6followBa_
FN:74,_RNvXs1_NtNtNtNtCs5hCjilINUCv_17hyperlight_common11flatbuffers10hyperlight9generated15hlint_generatedNtB5_9hlintArgsNtNtCs649FzoMgw5V_4core7default7Default7defaultBd_
FN:38,_RINvMs_NtNtNtNtCs5hCjilINUCv_17hyperlight_common11flatbuffers10hyperlight9generated15hlint_generatedNtB5_5hlint6createNtNtCsdyFvlONsh1u_11flatbuffers7builder16DefaultAllocatorEBd_
FN:89,_RNvMs2_NtNtNtNtCs5hCjilINUCv_17hyperlight_common11flatbuffers10hyperlight9generated15hlint_generatedINtB5_12hlintBuilderNtNtCsdyFvlONsh1u_11flatbuffers7builder16DefaultAllocatorE3newBd_
FN:97,_RNvMs2_NtNtNtNtCs5hCjilINUCv_17hyperlight_common11flatbuffers10hyperlight9generated15hlint_generatedINtB5_12hlintBuilderNtNtCsdyFvlONsh1u_11flatbuffers7builder16DefaultAllocatorE6finishBd_
FN:85,_RNvMs2_NtNtNtNtCs5hCjilINUCv_17hyperlight_common11flatbuffers10hyperlight9generated15hlint_generatedINtB5_12hlintBuilderNtNtCsdyFvlONsh1u_11flatbuffers7builder16DefaultAllocatorE9add_valueBd_
FN:34,_RNvMs_NtNtNtNtCs5hCjilINUCv_17hyperlight_common11flatbuffers10hyperlight9generated15hlint_generatedNtB4_5hlint15init_from_tableBc_
FN:48,_RNvMs_NtNtNtNtCs5hCjilINUCv_17hyperlight_common11flatbuffers10hyperlight9generated15hlint_generatedNtB4_5hlint5valueBc_
FN:58,_RNvXs0_NtNtNtNtCs5hCjilINUCv_17hyperlight_common11flatbuffers10hyperlight9generated15hlint_generatedNtB5_5hlintNtNtCsdyFvlONsh1u_11flatbuffers8verifier10Verifiable12run_verifierBd_
FN:104,_RNvXs3_NtNtNtNtCs5hCjilINUCv_17hyperlight_common11flatbuffers10hyperlight9generated15hlint_generatedNtB5_5hlintNtNtCs649FzoMgw5V_4core3fmt5Debug3fmt
FNDA:0,_RNvXNtNtNtNtCs5hCjilINUCv_17hyperlight_common11flatbuffers10hyperlight9generated15hlint_generatedNtB2_5hlintNtNtCsdyFvlONsh1u_11flatbuffers6follow6Follow6followBa_
FNDA:0,_RNvXs1_NtNtNtNtCs5hCjilINUCv_17hyperlight_common11flatbuffers10hyperlight9generated15hlint_generatedNtB5_9hlintArgsNtNtCs649FzoMgw5V_4core7default7Default7defaultBd_
FNDA:0,_RINvMs_NtNtNtNtCs5hCjilINUCv_17hyperlight_common11flatbuffers10hyperlight9generated15hlint_generatedNtB5_5hlint6createNtNtCsdyFvlONsh1u_11flatbuffers7builder16DefaultAllocatorEBd_
FNDA:0,_RNvMs2_NtNtNtNtCs5hCjilINUCv_17hyperlight_common11flatbuffers10hyperlight9generated15hlint_generatedINtB5_12hlintBuilderNtNtCsdyFvlONsh1u_11flatbuffers7builder16DefaultAllocatorE3newBd_
FNDA:0,_RNvMs2_NtNtNtNtCs5hCjilINUCv_17hyperlight_common11flatbuffers10hyperlight9generated15hlint_generatedINtB5_12hlintBuilderNtNtCsdyFvlONsh1u_11flatbuffers7builder16DefaultAllocatorE6finishBd_
FNDA:0,_RNvMs2_NtNtNtNtCs5hCjilINUCv_17hyperlight_common11flatbuffers10hyperlight9generated15hlint_generatedINtB5_12hlintBuilderNtNtCsdyFvlONsh1u_11flatbuffers7builder16DefaultAllocatorE9add_valueBd_
FNDA:0,_RNvMs_NtNtNtNtCs5hCjilINUCv_17hyperlight_common11flatbuffers10hyperlight9generated15hlint_generatedNtB4_5hlint15init_from_tableBc_
FNDA:0,_RNvMs_NtNtNtNtCs5hCjilINUCv_17hyperlight_common11flatbuffers10hyperlight9generated15hlint_generatedNtB4_5hlint5valueBc_
FNDA:0,_RNvXs0_NtNtNtNtCs5hCjilINUCv_17hyperlight_common11flatbuffers10hyperlight9generated15hlint_generatedNtB5_5hlintNtNtCsdyFvlONsh1u_11flatbuffers8verifier10Verifiable12run_verifierBd_
FNDA:0,_RNvXs3_NtNtNtNtCs5hCjilINUCv_17hyperlight_common11flatbuffers10hyperlight9generated15hlint_generatedNtB5_5hlintNtNtCs649FzoMgw5V_4core3fmt5Debug3fmt
FNF:10
FNH:0
DA:23,0
DA:24,0
DA:25,0
DA:26,0
DA:27,0
DA:34,0
DA:35,0
DA:36,0
DA:38,0
DA:39,0
DA:40,0
DA:41,0
DA:42,0
DA:43,0
DA:44,0
DA:45,0
DA:48,0
DA:49,0
DA:50,0
DA:51,0
DA:52,0
DA:53,0
DA:58,0
DA:59,0
DA:60,0
DA:61,0
DA:63,0
DA:64,0
DA:65,0
DA:66,0
DA:67,0
DA:74,0
DA:75,0
DA:76,0
DA:85,0
DA:86,0
DA:87,0
DA:89,0
DA:90,0
DA:91,0
DA:92,0
DA:93,0
DA:94,0
DA:95,0
DA:97,0
DA:98,0
DA:99,0
DA:100,0
DA:104,0
DA:105,0
DA:106,0
DA:107,0
DA:108,0
BRF:0
BRH:0
LF:53
LH:0
end_of_record
SF:/home/runner/work/hyperlight/hyperlight/src/hyperlight_common/src/flatbuffers/hyperlight/generated/hllong_generated.rs
FN:23,_RNvXNtNtNtNtCs5hCjilINUCv_17hyperlight_common11flatbuffers10hyperlight9generated16hllong_generatedNtB2_6hllongNtNtCsdyFvlONsh1u_11flatbuffers6follow6Follow6followBa_
FN:74,_RNvXs1_NtNtNtNtCs5hCjilINUCv_17hyperlight_common11flatbuffers10hyperlight9generated16hllong_generatedNtB5_10hllongArgsNtNtCs649FzoMgw5V_4core7default7Default7defaultBd_
FN:38,_RINvMs_NtNtNtNtCs5hCjilINUCv_17hyperlight_common11flatbuffers10hyperlight9generated16hllong_generatedNtB5_6hllong6createNtNtCsdyFvlONsh1u_11flatbuffers7builder16DefaultAllocatorEBd_
FN:89,_RNvMs2_NtNtNtNtCs5hCjilINUCv_17hyperlight_common11flatbuffers10hyperlight9generated16hllong_generatedINtB5_13hllongBuilderNtNtCsdyFvlONsh1u_11flatbuffers7builder16DefaultAllocatorE3newBd_
FN:97,_RNvMs2_NtNtNtNtCs5hCjilINUCv_17hyperlight_common11flatbuffers10hyperlight9generated16hllong_generatedINtB5_13hllongBuilderNtNtCsdyFvlONsh1u_11flatbuffers7builder16DefaultAllocatorE6finishBd_
FN:85,_RNvMs2_NtNtNtNtCs5hCjilINUCv_17hyperlight_common11flatbuffers10hyperlight9generated16hllong_generatedINtB5_13hllongBuilderNtNtCsdyFvlONsh1u_11flatbuffers7builder16DefaultAllocatorE9add_valueBd_
FN:34,_RNvMs_NtNtNtNtCs5hCjilINUCv_17hyperlight_common11flatbuffers10hyperlight9generated16hllong_generatedNtB4_6hllong15init_from_tableBc_
FN:48,_RNvMs_NtNtNtNtCs5hCjilINUCv_17hyperlight_common11flatbuffers10hyperlight9generated16hllong_generatedNtB4_6hllong5valueBc_
FN:58,_RNvXs0_NtNtNtNtCs5hCjilINUCv_17hyperlight_common11flatbuffers10hyperlight9generated16hllong_generatedNtB5_6hllongNtNtCsdyFvlONsh1u_11flatbuffers8verifier10Verifiable12run_verifierBd_
FN:104,_RNvXs3_NtNtNtNtCs5hCjilINUCv_17hyperlight_common11flatbuffers10hyperlight9generated16hllong_generatedNtB5_6hllongNtNtCs649FzoMgw5V_4core3fmt5Debug3fmt
FNDA:0,_RNvXNtNtNtNtCs5hCjilINUCv_17hyperlight_common11flatbuffers10hyperlight9generated16hllong_generatedNtB2_6hllongNtNtCsdyFvlONsh1u_11flatbuffers6follow6Follow6followBa_
FNDA:0,_RNvXs1_NtNtNtNtCs5hCjilINUCv_17hyperlight_common11flatbuffers10hyperlight9generated16hllong_generatedNtB5_10hllongArgsNtNtCs649FzoMgw5V_4core7default7Default7defaultBd_
FNDA:0,_RINvMs_NtNtNtNtCs5hCjilINUCv_17hyperlight_common11flatbuffers10hyperlight9generated16hllong_generatedNtB5_6hllong6createNtNtCsdyFvlONsh1u_11flatbuffers7builder16DefaultAllocatorEBd_
FNDA:0,_RNvMs2_NtNtNtNtCs5hCjilINUCv_17hyperlight_common11flatbuffers10hyperlight9generated16hllong_generatedINtB5_13hllongBuilderNtNtCsdyFvlONsh1u_11flatbuffers7builder16DefaultAllocatorE3newBd_
FNDA:0,_RNvMs2_NtNtNtNtCs5hCjilINUCv_17hyperlight_common11flatbuffers10hyperlight9generated16hllong_generatedINtB5_13hllongBuilderNtNtCsdyFvlONsh1u_11flatbuffers7builder16DefaultAllocatorE6finishBd_
FNDA:0,_RNvMs2_NtNtNtNtCs5hCjilINUCv_17hyperlight_common11flatbuffers10hyperlight9generated16hllong_generatedINtB5_13hllongBuilderNtNtCsdyFvlONsh1u_11flatbuffers7builder16DefaultAllocatorE9add_valueBd_
FNDA:0,_RNvMs_NtNtNtNtCs5hCjilINUCv_17hyperlight_common11flatbuffers10hyperlight9generated16hllong_generatedNtB4_6hllong15init_from_tableBc_
FNDA:0,_RNvMs_NtNtNtNtCs5hCjilINUCv_17hyperlight_common11flatbuffers10hyperlight9generated16hllong_generatedNtB4_6hllong5valueBc_
FNDA:0,_RNvXs0_NtNtNtNtCs5hCjilINUCv_17hyperlight_common11flatbuffers10hyperlight9generated16hllong_generatedNtB5_6hllongNtNtCsdyFvlONsh1u_11flatbuffers8verifier10Verifiable12run_verifierBd_
FNDA:0,_RNvXs3_NtNtNtNtCs5hCjilINUCv_17hyperlight_common11flatbuffers10hyperlight9generated16hllong_generatedNtB5_6hllongNtNtCs649FzoMgw5V_4core3fmt5Debug3fmt
FNF:10
FNH:0
DA:23,0
DA:24,0
DA:25,0
DA:26,0
DA:27,0
DA:34,0
DA:35,0
DA:36,0
DA:38,0
DA:39,0
DA:40,0
DA:41,0
DA:42,0
DA:43,0
DA:44,0
DA:45,0
DA:48,0
DA:49,0
DA:50,0
DA:51,0
DA:52,0
DA:53,0
DA:58,0
DA:59,0
DA:60,0
DA:61,0
DA:63,0
DA:64,0
DA:65,0
DA:66,0
DA:67,0
DA:74,0
DA:75,0
DA:76,0
DA:85,0
DA:86,0
DA:87,0
DA:89,0
DA:90,0
DA:91,0
DA:92,0
DA:93,0
DA:94,0
DA:95,0
DA:97,0
DA:98,0
DA:99,0
DA:100,0
DA:104,0
DA:105,0
DA:106,0
DA:107,0
DA:108,0
BRF:0
BRH:0
LF:53
LH:0
end_of_record
SF:/home/runner/work/hyperlight/hyperlight/src/hyperlight_common/src/flatbuffers/hyperlight/generated/hlsizeprefixedbuffer_generated.rs
FN:23,_RNvXNtNtNtNtCs5hCjilINUCv_17hyperlight_common11flatbuffers10hyperlight9generated30hlsizeprefixedbuffer_generatedNtB2_20hlsizeprefixedbufferNtNtCsdyFvlONsh1u_11flatbuffers6follow6Follow6followBa_
FN:101,_RNvXs1_NtNtNtNtCs5hCjilINUCv_17hyperlight_common11flatbuffers10hyperlight9generated30hlsizeprefixedbuffer_generatedNtB5_24hlsizeprefixedbufferArgsNtNtCs649FzoMgw5V_4core7default7Default7defaultBd_
FN:39,_RINvMs_NtNtNtNtCs5hCjilINUCv_17hyperlight_common11flatbuffers10hyperlight9generated30hlsizeprefixedbuffer_generatedNtB5_20hlsizeprefixedbuffer6createNtNtCsdyFvlONsh1u_11flatbuffers7builder16DefaultAllocatorEBd_
FN:125,_RNvMs2_NtNtNtNtCs5hCjilINUCv_17hyperlight_common11flatbuffers10hyperlight9generated30hlsizeprefixedbuffer_generatedINtB5_27hlsizeprefixedbufferBuilderNtNtCsdyFvlONsh1u_11flatbuffers7builder16DefaultAllocatorE3newBd_
FN:135,_RNvMs2_NtNtNtNtCs5hCjilINUCv_17hyperlight_common11flatbuffers10hyperlight9generated30hlsizeprefixedbuffer_generatedINtB5_27hlsizeprefixedbufferBuilderNtNtCsdyFvlONsh1u_11flatbuffers7builder16DefaultAllocatorE6finishBd_
FN:115,_RNvMs2_NtNtNtNtCs5hCjilINUCv_17hyperlight_common11flatbuffers10hyperlight9generated30hlsizeprefixedbuffer_generatedINtB5_27hlsizeprefixedbufferBuilderNtNtCsdyFvlONsh1u_11flatbuffers7builder16DefaultAllocatorE8add_sizeBd_
FN:120,_RNvMs2_NtNtNtNtCs5hCjilINUCv_17hyperlight_common11flatbuffers10hyperlight9generated30hlsizeprefixedbuffer_generatedINtB5_27hlsizeprefixedbufferBuilderNtNtCsdyFvlONsh1u_11flatbuffers7builder16DefaultAllocatorE9add_valueBd_
FN:35,_RNvMs_NtNtNtNtCs5hCjilINUCv_17hyperlight_common11flatbuffers10hyperlight9generated30hlsizeprefixedbuffer_generatedNtB4_20hlsizeprefixedbuffer15init_from_tableBc_
FN:52,_RNvMs_NtNtNtNtCs5hCjilINUCv_17hyperlight_common11flatbuffers10hyperlight9generated30hlsizeprefixedbuffer_generatedNtB4_20hlsizeprefixedbuffer4sizeBc_
FN:63,_RNvMs_NtNtNtNtCs5hCjilINUCv_17hyperlight_common11flatbuffers10hyperlight9generated30hlsizeprefixedbuffer_generatedNtB4_20hlsizeprefixedbuffer5valueBc_
FN:79,_RNvXs0_NtNtNtNtCs5hCjilINUCv_17hyperlight_common11flatbuffers10hyperlight9generated30hlsizeprefixedbuffer_generatedNtB5_20hlsizeprefixedbufferNtNtCsdyFvlONsh1u_11flatbuffers8verifier10Verifiable12run_verifierBd_
FN:142,_RNvXs3_NtNtNtNtCs5hCjilINUCv_17hyperlight_common11flatbuffers10hyperlight9generated30hlsizeprefixedbuffer_generatedNtB5_20hlsizeprefixedbufferNtNtCs649FzoMgw5V_4core3fmt5Debug3fmt
FNDA:0,_RNvXNtNtNtNtCs5hCjilINUCv_17hyperlight_common11flatbuffers10hyperlight9generated30hlsizeprefixedbuffer_generatedNtB2_20hlsizeprefixedbufferNtNtCsdyFvlONsh1u_11flatbuffers6follow6Follow6followBa_
FNDA:0,_RNvXs1_NtNtNtNtCs5hCjilINUCv_17hyperlight_common11flatbuffers10hyperlight9generated30hlsizeprefixedbuffer_generatedNtB5_24hlsizeprefixedbufferArgsNtNtCs649FzoMgw5V_4core7default7Default7defaultBd_
FNDA:0,_RINvMs_NtNtNtNtCs5hCjilINUCv_17hyperlight_common11flatbuffers10hyperlight9generated30hlsizeprefixedbuffer_generatedNtB5_20hlsizeprefixedbuffer6createNtNtCsdyFvlONsh1u_11flatbuffers7builder16DefaultAllocatorEBd_
FNDA:0,_RNvMs2_NtNtNtNtCs5hCjilINUCv_17hyperlight_common11flatbuffers10hyperlight9generated30hlsizeprefixedbuffer_generatedINtB5_27hlsizeprefixedbufferBuilderNtNtCsdyFvlONsh1u_11flatbuffers7builder16DefaultAllocatorE3newBd_
FNDA:0,_RNvMs2_NtNtNtNtCs5hCjilINUCv_17hyperlight_common11flatbuffers10hyperlight9generated30hlsizeprefixedbuffer_generatedINtB5_27hlsizeprefixedbufferBuilderNtNtCsdyFvlONsh1u_11flatbuffers7builder16DefaultAllocatorE6finishBd_
FNDA:0,_RNvMs2_NtNtNtNtCs5hCjilINUCv_17hyperlight_common11flatbuffers10hyperlight9generated30hlsizeprefixedbuffer_generatedINtB5_27hlsizeprefixedbufferBuilderNtNtCsdyFvlONsh1u_11flatbuffers7builder16DefaultAllocatorE8add_sizeBd_
FNDA:0,_RNvMs2_NtNtNtNtCs5hCjilINUCv_17hyperlight_common11flatbuffers10hyperlight9generated30hlsizeprefixedbuffer_generatedINtB5_27hlsizeprefixedbufferBuilderNtNtCsdyFvlONsh1u_11flatbuffers7builder16DefaultAllocatorE9add_valueBd_
FNDA:0,_RNvMs_NtNtNtNtCs5hCjilINUCv_17hyperlight_common11flatbuffers10hyperlight9generated30hlsizeprefixedbuffer_generatedNtB4_20hlsizeprefixedbuffer15init_from_tableBc_
FNDA:0,_RNvMs_NtNtNtNtCs5hCjilINUCv_17hyperlight_common11flatbuffers10hyperlight9generated30hlsizeprefixedbuffer_generatedNtB4_20hlsizeprefixedbuffer4sizeBc_
FNDA:0,_RNvMs_NtNtNtNtCs5hCjilINUCv_17hyperlight_common11flatbuffers10hyperlight9generated30hlsizeprefixedbuffer_generatedNtB4_20hlsizeprefixedbuffer5valueBc_
FNDA:0,_RNvXs0_NtNtNtNtCs5hCjilINUCv_17hyperlight_common11flatbuffers10hyperlight9generated30hlsizeprefixedbuffer_generatedNtB5_20hlsizeprefixedbufferNtNtCsdyFvlONsh1u_11flatbuffers8verifier10Verifiable12run_verifierBd_
FNDA:0,_RNvXs3_NtNtNtNtCs5hCjilINUCv_17hyperlight_common11flatbuffers10hyperlight9generated30hlsizeprefixedbuffer_generatedNtB5_20hlsizeprefixedbufferNtNtCs649FzoMgw5V_4core3fmt5Debug3fmt
FNF:12
FNH:0
DA:23,0
DA:24,0
DA:25,0
DA:26,0
DA:27,0
DA:35,0
DA:36,0
DA:37,0
DA:39,0
DA:40,0
DA:41,0
DA:42,0
DA:43,0
DA:44,0
DA:45,0
DA:46,0
DA:47,0
DA:48,0
DA:49,0
DA:52,0
DA:53,0
DA:54,0
DA:55,0
DA:56,0
DA:57,0
DA:58,0
DA:59,0
DA:60,0
DA:61,0
DA:63,0
DA:64,0
DA:65,0
DA:66,0
DA:67,0
DA:68,0
DA:69,0
DA:70,0
DA:71,0
DA:72,0
DA:73,0
DA:74,0
DA:79,0
DA:80,0
DA:81,0
DA:82,0
DA:84,0
DA:85,0
DA:86,0
DA:87,0
DA:88,0
DA:89,0
DA:90,0
DA:91,0
DA:92,0
DA:93,0
DA:101,0
DA:102,0
DA:103,0
DA:104,0
DA:105,0
DA:106,0
DA:115,0
DA:116,0
DA:117,0
DA:118,0
DA:120,0
DA:121,0
DA:122,0
DA:123,0
DA:125,0
DA:126,0
DA:127,0
DA:128,0
DA:129,0
DA:130,0
DA:131,0
DA:132,0
DA:133,0
DA:135,0
DA:136,0
DA:137,0
DA:138,0
DA:142,0
DA:143,0
DA:144,0
DA:145,0
DA:146,0
DA:147,0
BRF:0
BRH:0
LF:88
LH:0
end_of_record
SF:/home/runner/work/hyperlight/hyperlight/src/hyperlight_common/src/flatbuffers/hyperlight/generated/hlstring_generated.rs
FN:38,_RINvMs_NtNtNtNtCs5hCjilINUCv_17hyperlight_common11flatbuffers10hyperlight9generated18hlstring_generatedNtB5_8hlstring6createNtNtCsdyFvlONsh1u_11flatbuffers7builder16DefaultAllocatorEBd_
FN:95,_RNvMs2_NtNtNtNtCs5hCjilINUCv_17hyperlight_common11flatbuffers10hyperlight9generated18hlstring_generatedINtB5_15hlstringBuilderNtNtCsdyFvlONsh1u_11flatbuffers7builder16DefaultAllocatorE3newBd_
FN:103,_RNvMs2_NtNtNtNtCs5hCjilINUCv_17hyperlight_common11flatbuffers10hyperlight9generated18hlstring_generatedINtB5_15hlstringBuilderNtNtCsdyFvlONsh1u_11flatbuffers7builder16DefaultAllocatorE6finishBd_
FN:90,_RNvMs2_NtNtNtNtCs5hCjilINUCv_17hyperlight_common11flatbuffers10hyperlight9generated18hlstring_generatedINtB5_15hlstringBuilderNtNtCsdyFvlONsh1u_11flatbuffers7builder16DefaultAllocatorE9add_valueBd_
FN:34,_RNvMs_NtNtNtNtCs5hCjilINUCv_17hyperlight_common11flatbuffers10hyperlight9generated18hlstring_generatedNtB4_8hlstring15init_from_tableBc_
FN:50,_RNvMs_NtNtNtNtCs5hCjilINUCv_17hyperlight_common11flatbuffers10hyperlight9generated18hlstring_generatedNtB4_8hlstring5valueBc_
FN:63,_RNvXs0_NtNtNtNtCs5hCjilINUCv_17hyperlight_common11flatbuffers10hyperlight9generated18hlstring_generatedNtB5_8hlstringNtNtCsdyFvlONsh1u_11flatbuffers8verifier10Verifiable12run_verifierBd_
FN:110,_RNvXs3_NtNtNtNtCs5hCjilINUCv_17hyperlight_common11flatbuffers10hyperlight9generated18hlstring_generatedNtB5_8hlstringNtNtCs649FzoMgw5V_4core3fmt5Debug3fmt
FN:23,_RNvXNtNtNtNtCs5hCjilINUCv_17hyperlight_common11flatbuffers10hyperlight9generated18hlstring_generatedNtB2_8hlstringNtNtCsdyFvlONsh1u_11flatbuffers6follow6Follow6followBa_
FN:79,_RNvXs1_NtNtNtNtCs5hCjilINUCv_17hyperlight_common11flatbuffers10hyperlight9generated18hlstring_generatedNtB5_12hlstringArgsNtNtCs649FzoMgw5V_4core7default7Default7defaultBd_
FNDA:0,_RINvMs_NtNtNtNtCs5hCjilINUCv_17hyperlight_common11flatbuffers10hyperlight9generated18hlstring_generatedNtB5_8hlstring6createNtNtCsdyFvlONsh1u_11flatbuffers7builder16DefaultAllocatorEBd_
FNDA:0,_RNvMs2_NtNtNtNtCs5hCjilINUCv_17hyperlight_common11flatbuffers10hyperlight9generated18hlstring_generatedINtB5_15hlstringBuilderNtNtCsdyFvlONsh1u_11flatbuffers7builder16DefaultAllocatorE3newBd_
FNDA:0,_RNvMs2_NtNtNtNtCs5hCjilINUCv_17hyperlight_common11flatbuffers10hyperlight9generated18hlstring_generatedINtB5_15hlstringBuilderNtNtCsdyFvlONsh1u_11flatbuffers7builder16DefaultAllocatorE6finishBd_
FNDA:0,_RNvMs2_NtNtNtNtCs5hCjilINUCv_17hyperlight_common11flatbuffers10hyperlight9generated18hlstring_generatedINtB5_15hlstringBuilderNtNtCsdyFvlONsh1u_11flatbuffers7builder16DefaultAllocatorE9add_valueBd_
FNDA:0,_RNvMs_NtNtNtNtCs5hCjilINUCv_17hyperlight_common11flatbuffers10hyperlight9generated18hlstring_generatedNtB4_8hlstring15init_from_tableBc_
FNDA:0,_RNvMs_NtNtNtNtCs5hCjilINUCv_17hyperlight_common11flatbuffers10hyperlight9generated18hlstring_generatedNtB4_8hlstring5valueBc_
FNDA:0,_RNvXs0_NtNtNtNtCs5hCjilINUCv_17hyperlight_common11flatbuffers10hyperlight9generated18hlstring_generatedNtB5_8hlstringNtNtCsdyFvlONsh1u_11flatbuffers8verifier10Verifiable12run_verifierBd_
FNDA:0,_RNvXs3_NtNtNtNtCs5hCjilINUCv_17hyperlight_common11flatbuffers10hyperlight9generated18hlstring_generatedNtB5_8hlstringNtNtCs649FzoMgw5V_4core3fmt5Debug3fmt
FNDA:0,_RNvXNtNtNtNtCs5hCjilINUCv_17hyperlight_common11flatbuffers10hyperlight9generated18hlstring_generatedNtB2_8hlstringNtNtCsdyFvlONsh1u_11flatbuffers6follow6Follow6followBa_
FNDA:0,_RNvXs1_NtNtNtNtCs5hCjilINUCv_17hyperlight_common11flatbuffers10hyperlight9generated18hlstring_generatedNtB5_12hlstringArgsNtNtCs649FzoMgw5V_4core7default7Default7defaultBd_
FNF:10
FNH:0
DA:23,0
DA:24,0
DA:25,0
DA:26,0
DA:27,0
DA:34,0
DA:35,0
DA:36,0
DA:38,0
DA:39,0
DA:40,0
DA:41,0
DA:42,0
DA:43,0
DA:44,0
DA:45,0
DA:46,0
DA:47,0
DA:50,0
DA:51,0
DA:52,0
DA:53,0
DA:54,0
DA:55,0
DA:56,0
DA:57,0
DA:58,0
DA:63,0
DA:64,0
DA:65,0
DA:66,0
DA:68,0
DA:69,0
DA:70,0
DA:71,0
DA:72,0
DA:79,0
DA:80,0
DA:81,0
DA:90,0
DA:91,0
DA:92,0
DA:93,0
DA:95,0
DA:96,0
DA:97,0
DA:98,0
DA:99,0
DA:100,0
DA:101,0
DA:103,0
DA:104,0
DA:105,0
DA:106,0
DA:110,0
DA:111,0
DA:112,0
DA:113,0
DA:114,0
BRF:0
BRH:0
LF:59
LH:0
end_of_record
SF:/home/runner/work/hyperlight/hyperlight/src/hyperlight_common/src/flatbuffers/hyperlight/generated/hluint_generated.rs
FN:38,_RINvMs_NtNtNtNtCs5hCjilINUCv_17hyperlight_common11flatbuffers10hyperlight9generated16hluint_generatedNtB5_6hluint6createNtNtCsdyFvlONsh1u_11flatbuffers7builder16DefaultAllocatorEBd_
FN:89,_RNvMs2_NtNtNtNtCs5hCjilINUCv_17hyperlight_common11flatbuffers10hyperlight9generated16hluint_generatedINtB5_13hluintBuilderNtNtCsdyFvlONsh1u_11flatbuffers7builder16DefaultAllocatorE3newBd_
FN:97,_RNvMs2_NtNtNtNtCs5hCjilINUCv_17hyperlight_common11flatbuffers10hyperlight9generated16hluint_generatedINtB5_13hluintBuilderNtNtCsdyFvlONsh1u_11flatbuffers7builder16DefaultAllocatorE6finishBd_
FN:85,_RNvMs2_NtNtNtNtCs5hCjilINUCv_17hyperlight_common11flatbuffers10hyperlight9generated16hluint_generatedINtB5_13hluintBuilderNtNtCsdyFvlONsh1u_11flatbuffers7builder16DefaultAllocatorE9add_valueBd_
FN:34,_RNvMs_NtNtNtNtCs5hCjilINUCv_17hyperlight_common11flatbuffers10hyperlight9generated16hluint_generatedNtB4_6hluint15init_from_tableBc_
FN:48,_RNvMs_NtNtNtNtCs5hCjilINUCv_17hyperlight_common11flatbuffers10hyperlight9generated16hluint_generatedNtB4_6hluint5valueBc_
FN:58,_RNvXs0_NtNtNtNtCs5hCjilINUCv_17hyperlight_common11flatbuffers10hyperlight9generated16hluint_generatedNtB5_6hluintNtNtCsdyFvlONsh1u_11flatbuffers8verifier10Verifiable12run_verifierBd_
FN:104,_RNvXs3_NtNtNtNtCs5hCjilINUCv_17hyperlight_common11flatbuffers10hyperlight9generated16hluint_generatedNtB5_6hluintNtNtCs649FzoMgw5V_4core3fmt5Debug3fmt
FN:23,_RNvXNtNtNtNtCs5hCjilINUCv_17hyperlight_common11flatbuffers10hyperlight9generated16hluint_generatedNtB2_6hluintNtNtCsdyFvlONsh1u_11flatbuffers6follow6Follow6followBa_
FN:74,_RNvXs1_NtNtNtNtCs5hCjilINUCv_17hyperlight_common11flatbuffers10hyperlight9generated16hluint_generatedNtB5_10hluintArgsNtNtCs649FzoMgw5V_4core7default7Default7defaultBd_
FNDA:0,_RINvMs_NtNtNtNtCs5hCjilINUCv_17hyperlight_common11flatbuffers10hyperlight9generated16hluint_generatedNtB5_6hluint6createNtNtCsdyFvlONsh1u_11flatbuffers7builder16DefaultAllocatorEBd_
FNDA:0,_RNvMs2_NtNtNtNtCs5hCjilINUCv_17hyperlight_common11flatbuffers10hyperlight9generated16hluint_generatedINtB5_13hluintBuilderNtNtCsdyFvlONsh1u_11flatbuffers7builder16DefaultAllocatorE3newBd_
FNDA:0,_RNvMs2_NtNtNtNtCs5hCjilINUCv_17hyperlight_common11flatbuffers10hyperlight9generated16hluint_generatedINtB5_13hluintBuilderNtNtCsdyFvlONsh1u_11flatbuffers7builder16DefaultAllocatorE6finishBd_
FNDA:0,_RNvMs2_NtNtNtNtCs5hCjilINUCv_17hyperlight_common11flatbuffers10hyperlight9generated16hluint_generatedINtB5_13hluintBuilderNtNtCsdyFvlONsh1u_11flatbuffers7builder16DefaultAllocatorE9add_valueBd_
FNDA:0,_RNvMs_NtNtNtNtCs5hCjilINUCv_17hyperlight_common11flatbuffers10hyperlight9generated16hluint_generatedNtB4_6hluint15init_from_tableBc_
FNDA:0,_RNvMs_NtNtNtNtCs5hCjilINUCv_17hyperlight_common11flatbuffers10hyperlight9generated16hluint_generatedNtB4_6hluint5valueBc_
FNDA:0,_RNvXs0_NtNtNtNtCs5hCjilINUCv_17hyperlight_common11flatbuffers10hyperlight9generated16hluint_generatedNtB5_6hluintNtNtCsdyFvlONsh1u_11flatbuffers8verifier10Verifiable12run_verifierBd_
FNDA:0,_RNvXs3_NtNtNtNtCs5hCjilINUCv_17hyperlight_common11flatbuffers10hyperlight9generated16hluint_generatedNtB5_6hluintNtNtCs649FzoMgw5V_4core3fmt5Debug3fmt
FNDA:0,_RNvXNtNtNtNtCs5hCjilINUCv_17hyperlight_common11flatbuffers10hyperlight9generated16hluint_generatedNtB2_6hluintNtNtCsdyFvlONsh1u_11flatbuffers6follow6Follow6followBa_
FNDA:0,_RNvXs1_NtNtNtNtCs5hCjilINUCv_17hyperlight_common11flatbuffers10hyperlight9generated16hluint_generatedNtB5_10hluintArgsNtNtCs649FzoMgw5V_4core7default7Default7defaultBd_
FNF:10
FNH:0
DA:23,0
DA:24,0
DA:25,0
DA:26,0
DA:27,0
DA:34,0
DA:35,0
DA:36,0
DA:38,0
DA:39,0
DA:40,0
DA:41,0
DA:42,0
DA:43,0
DA:44,0
DA:45,0
DA:48,0
DA:49,0
DA:50,0
DA:51,0
DA:52,0
DA:53,0
DA:58,0
DA:59,0
DA:60,0
DA:61,0
DA:63,0
DA:64,0
DA:65,0
DA:66,0
DA:67,0
DA:74,0
DA:75,0
DA:76,0
DA:85,0
DA:86,0
DA:87,0
DA:89,0
DA:90,0
DA:91,0
DA:92,0
DA:93,0
DA:94,0
DA:95,0
DA:97,0
DA:98,0
DA:99,0
DA:100,0
DA:104,0
DA:105,0
DA:106,0
DA:107,0
DA:108,0
BRF:0
BRH:0
LF:53
LH:0
end_of_record
SF:/home/runner/work/hyperlight/hyperlight/src/hyperlight_common/src/flatbuffers/hyperlight/generated/hlulong_generated.rs
FN:23,_RNvXNtNtNtNtCs5hCjilINUCv_17hyperlight_common11flatbuffers10hyperlight9generated17hlulong_generatedNtB2_7hlulongNtNtCsdyFvlONsh1u_11flatbuffers6follow6Follow6followBa_
FN:74,_RNvXs1_NtNtNtNtCs5hCjilINUCv_17hyperlight_common11flatbuffers10hyperlight9generated17hlulong_generatedNtB5_11hlulongArgsNtNtCs649FzoMgw5V_4core7default7Default7defaultBd_
FN:38,_RINvMs_NtNtNtNtCs5hCjilINUCv_17hyperlight_common11flatbuffers10hyperlight9generated17hlulong_generatedNtB5_7hlulong6createNtNtCsdyFvlONsh1u_11flatbuffers7builder16DefaultAllocatorEBd_
FN:89,_RNvMs2_NtNtNtNtCs5hCjilINUCv_17hyperlight_common11flatbuffers10hyperlight9generated17hlulong_generatedINtB5_14hlulongBuilderNtNtCsdyFvlONsh1u_11flatbuffers7builder16DefaultAllocatorE3newBd_
FN:97,_RNvMs2_NtNtNtNtCs5hCjilINUCv_17hyperlight_common11flatbuffers10hyperlight9generated17hlulong_generatedINtB5_14hlulongBuilderNtNtCsdyFvlONsh1u_11flatbuffers7builder16DefaultAllocatorE6finishBd_
FN:85,_RNvMs2_NtNtNtNtCs5hCjilINUCv_17hyperlight_common11flatbuffers10hyperlight9generated17hlulong_generatedINtB5_14hlulongBuilderNtNtCsdyFvlONsh1u_11flatbuffers7builder16DefaultAllocatorE9add_valueBd_
FN:34,_RNvMs_NtNtNtNtCs5hCjilINUCv_17hyperlight_common11flatbuffers10hyperlight9generated17hlulong_generatedNtB4_7hlulong15init_from_tableBc_
FN:48,_RNvMs_NtNtNtNtCs5hCjilINUCv_17hyperlight_common11flatbuffers10hyperlight9generated17hlulong_generatedNtB4_7hlulong5valueBc_
FN:58,_RNvXs0_NtNtNtNtCs5hCjilINUCv_17hyperlight_common11flatbuffers10hyperlight9generated17hlulong_generatedNtB5_7hlulongNtNtCsdyFvlONsh1u_11flatbuffers8verifier10Verifiable12run_verifierBd_
FN:104,_RNvXs3_NtNtNtNtCs5hCjilINUCv_17hyperlight_common11flatbuffers10hyperlight9generated17hlulong_generatedNtB5_7hlulongNtNtCs649FzoMgw5V_4core3fmt5Debug3fmt
FNDA:0,_RNvXNtNtNtNtCs5hCjilINUCv_17hyperlight_common11flatbuffers10hyperlight9generated17hlulong_generatedNtB2_7hlulongNtNtCsdyFvlONsh1u_11flatbuffers6follow6Follow6followBa_
FNDA:0,_RNvXs1_NtNtNtNtCs5hCjilINUCv_17hyperlight_common11flatbuffers10hyperlight9generated17hlulong_generatedNtB5_11hlulongArgsNtNtCs649FzoMgw5V_4core7default7Default7defaultBd_
FNDA:0,_RINvMs_NtNtNtNtCs5hCjilINUCv_17hyperlight_common11flatbuffers10hyperlight9generated17hlulong_generatedNtB5_7hlulong6createNtNtCsdyFvlONsh1u_11flatbuffers7builder16DefaultAllocatorEBd_
FNDA:0,_RNvMs2_NtNtNtNtCs5hCjilINUCv_17hyperlight_common11flatbuffers10hyperlight9generated17hlulong_generatedINtB5_14hlulongBuilderNtNtCsdyFvlONsh1u_11flatbuffers7builder16DefaultAllocatorE3newBd_
FNDA:0,_RNvMs2_NtNtNtNtCs5hCjilINUCv_17hyperlight_common11flatbuffers10hyperlight9generated17hlulong_generatedINtB5_14hlulongBuilderNtNtCsdyFvlONsh1u_11flatbuffers7builder16DefaultAllocatorE6finishBd_
FNDA:0,_RNvMs2_NtNtNtNtCs5hCjilINUCv_17hyperlight_common11flatbuffers10hyperlight9generated17hlulong_generatedINtB5_14hlulongBuilderNtNtCsdyFvlONsh1u_11flatbuffers7builder16DefaultAllocatorE9add_valueBd_
FNDA:0,_RNvMs_NtNtNtNtCs5hCjilINUCv_17hyperlight_common11flatbuffers10hyperlight9generated17hlulong_generatedNtB4_7hlulong15init_from_tableBc_
FNDA:0,_RNvMs_NtNtNtNtCs5hCjilINUCv_17hyperlight_common11flatbuffers10hyperlight9generated17hlulong_generatedNtB4_7hlulong5valueBc_
FNDA:0,_RNvXs0_NtNtNtNtCs5hCjilINUCv_17hyperlight_common11flatbuffers10hyperlight9generated17hlulong_generatedNtB5_7hlulongNtNtCsdyFvlONsh1u_11flatbuffers8verifier10Verifiable12run_verifierBd_
FNDA:0,_RNvXs3_NtNtNtNtCs5hCjilINUCv_17hyperlight_common11flatbuffers10hyperlight9generated17hlulong_generatedNtB5_7hlulongNtNtCs649FzoMgw5V_4core3fmt5Debug3fmt
FNF:10
FNH:0
DA:23,0
DA:24,0
DA:25,0
DA:26,0
DA:27,0
DA:34,0
DA:35,0
DA:36,0
DA:38,0
DA:39,0
DA:40,0
DA:41,0
DA:42,0
DA:43,0
DA:44,0
DA:45,0
DA:48,0
DA:49,0
DA:50,0
DA:51,0
DA:52,0
DA:53,0
DA:58,0
DA:59,0
DA:60,0
DA:61,0
DA:63,0
DA:64,0
DA:65,0
DA:66,0
DA:67,0
DA:74,0
DA:75,0
DA:76,0
DA:85,0
DA:86,0
DA:87,0
DA:89,0
DA:90,0
DA:91,0
DA:92,0
DA:93,0
DA:94,0
DA:95,0
DA:97,0
DA:98,0
DA:99,0
DA:100,0
DA:104,0
DA:105,0
DA:106,0
DA:107,0
DA:108,0
BRF:0
BRH:0
LF:53
LH:0
end_of_record
SF:/home/runner/work/hyperlight/hyperlight/src/hyperlight_common/src/flatbuffers/hyperlight/generated/hlvecbytes_generated.rs
FN:38,_RINvMs_NtNtNtNtCs5hCjilINUCv_17hyperlight_common11flatbuffers10hyperlight9generated20hlvecbytes_generatedNtB5_10hlvecbytes6createNtNtCsdyFvlONsh1u_11flatbuffers7builder16DefaultAllocatorEBd_
FN:102,_RNvMs2_NtNtNtNtCs5hCjilINUCv_17hyperlight_common11flatbuffers10hyperlight9generated20hlvecbytes_generatedINtB5_17hlvecbytesBuilderNtNtCsdyFvlONsh1u_11flatbuffers7builder16DefaultAllocatorE3newBd_
FN:112,_RNvMs2_NtNtNtNtCs5hCjilINUCv_17hyperlight_common11flatbuffers10hyperlight9generated20hlvecbytes_generatedINtB5_17hlvecbytesBuilderNtNtCsdyFvlONsh1u_11flatbuffers7builder16DefaultAllocatorE6finishBd_
FN:97,_RNvMs2_NtNtNtNtCs5hCjilINUCv_17hyperlight_common11flatbuffers10hyperlight9generated20hlvecbytes_generatedINtB5_17hlvecbytesBuilderNtNtCsdyFvlONsh1u_11flatbuffers7builder16DefaultAllocatorE9add_valueBd_
FN:34,_RNvMs_NtNtNtNtCs5hCjilINUCv_17hyperlight_common11flatbuffers10hyperlight9generated20hlvecbytes_generatedNtB4_10hlvecbytes15init_from_tableBc_
FN:50,_RNvMs_NtNtNtNtCs5hCjilINUCv_17hyperlight_common11flatbuffers10hyperlight9generated20hlvecbytes_generatedNtB4_10hlvecbytes5valueBc_
FN:66,_RNvXs0_NtNtNtNtCs5hCjilINUCv_17hyperlight_common11flatbuffers10hyperlight9generated20hlvecbytes_generatedNtB5_10hlvecbytesNtNtCsdyFvlONsh1u_11flatbuffers8verifier10Verifiable12run_verifierBd_
FN:119,_RNvXs3_NtNtNtNtCs5hCjilINUCv_17hyperlight_common11flatbuffers10hyperlight9generated20hlvecbytes_generatedNtB5_10hlvecbytesNtNtCs649FzoMgw5V_4core3fmt5Debug3fmt
FN:23,_RNvXNtNtNtNtCs5hCjilINUCv_17hyperlight_common11flatbuffers10hyperlight9generated20hlvecbytes_generatedNtB2_10hlvecbytesNtNtCsdyFvlONsh1u_11flatbuffers6follow6Follow6followBa_
FN:86,_RNvXs1_NtNtNtNtCs5hCjilINUCv_17hyperlight_common11flatbuffers10hyperlight9generated20hlvecbytes_generatedNtB5_14hlvecbytesArgsNtNtCs649FzoMgw5V_4core7default7Default7defaultBd_
FNDA:0,_RINvMs_NtNtNtNtCs5hCjilINUCv_17hyperlight_common11flatbuffers10hyperlight9generated20hlvecbytes_generatedNtB5_10hlvecbytes6createNtNtCsdyFvlONsh1u_11flatbuffers7builder16DefaultAllocatorEBd_
FNDA:0,_RNvMs2_NtNtNtNtCs5hCjilINUCv_17hyperlight_common11flatbuffers10hyperlight9generated20hlvecbytes_generatedINtB5_17hlvecbytesBuilderNtNtCsdyFvlONsh1u_11flatbuffers7builder16DefaultAllocatorE3newBd_
FNDA:0,_RNvMs2_NtNtNtNtCs5hCjilINUCv_17hyperlight_common11flatbuffers10hyperlight9generated20hlvecbytes_generatedINtB5_17hlvecbytesBuilderNtNtCsdyFvlONsh1u_11flatbuffers7builder16DefaultAllocatorE6finishBd_
FNDA:0,_RNvMs2_NtNtNtNtCs5hCjilINUCv_17hyperlight_common11flatbuffers10hyperlight9generated20hlvecbytes_generatedINtB5_17hlvecbytesBuilderNtNtCsdyFvlONsh1u_11flatbuffers7builder16DefaultAllocatorE9add_valueBd_
FNDA:0,_RNvMs_NtNtNtNtCs5hCjilINUCv_17hyperlight_common11flatbuffers10hyperlight9generated20hlvecbytes_generatedNtB4_10hlvecbytes15init_from_tableBc_
FNDA:0,_RNvMs_NtNtNtNtCs5hCjilINUCv_17hyperlight_common11flatbuffers10hyperlight9generated20hlvecbytes_generatedNtB4_10hlvecbytes5valueBc_
FNDA:0,_RNvXs0_NtNtNtNtCs5hCjilINUCv_17hyperlight_common11flatbuffers10hyperlight9generated20hlvecbytes_generatedNtB5_10hlvecbytesNtNtCsdyFvlONsh1u_11flatbuffers8verifier10Verifiable12run_verifierBd_
FNDA:0,_RNvXs3_NtNtNtNtCs5hCjilINUCv_17hyperlight_common11flatbuffers10hyperlight9generated20hlvecbytes_generatedNtB5_10hlvecbytesNtNtCs649FzoMgw5V_4core3fmt5Debug3fmt
FNDA:0,_RNvXNtNtNtNtCs5hCjilINUCv_17hyperlight_common11flatbuffers10hyperlight9generated20hlvecbytes_generatedNtB2_10hlvecbytesNtNtCsdyFvlONsh1u_11flatbuffers6follow6Follow6followBa_
FNDA:0,_RNvXs1_NtNtNtNtCs5hCjilINUCv_17hyperlight_common11flatbuffers10hyperlight9generated20hlvecbytes_generatedNtB5_14hlvecbytesArgsNtNtCs649FzoMgw5V_4core7default7Default7defaultBd_
FNF:10
FNH:0
DA:23,0
DA:24,0
DA:25,0
DA:26,0
DA:27,0
DA:34,0
DA:35,0
DA:36,0
DA:38,0
DA:39,0
DA:40,0
DA:41,0
DA:42,0
DA:43,0
DA:44,0
DA:45,0
DA:46,0
DA:47,0
DA:50,0
DA:51,0
DA:52,0
DA:53,0
DA:54,0
DA:55,0
DA:56,0
DA:57,0
DA:58,0
DA:59,0
DA:60,0
DA:61,0
DA:66,0
DA:67,0
DA:68,0
DA:69,0
DA:71,0
DA:72,0
DA:73,0
DA:74,0
DA:75,0
DA:76,0
DA:77,0
DA:78,0
DA:79,0
DA:86,0
DA:87,0
DA:88,0
DA:97,0
DA:98,0
DA:99,0
DA:100,0
DA:102,0
DA:103,0
DA:104,0
DA:105,0
DA:106,0
DA:107,0
DA:108,0
DA:109,0
DA:110,0
DA:112,0
DA:113,0
DA:114,0
DA:115,0
DA:119,0
DA:120,0
DA:121,0
DA:122,0
DA:123,0
BRF:0
BRH:0
LF:68
LH:0
end_of_record
SF:/home/runner/work/hyperlight/hyperlight/src/hyperlight_common/src/flatbuffers/hyperlight/generated/hlvoid_generated.rs
FN:23,_RNvXNtNtNtNtCs5hCjilINUCv_17hyperlight_common11flatbuffers10hyperlight9generated16hlvoid_generatedNtB2_6hlvoidNtNtCsdyFvlONsh1u_11flatbuffers6follow6Follow6followBa_
FN:59,_RNvXs1_NtNtNtNtCs5hCjilINUCv_17hyperlight_common11flatbuffers10hyperlight9generated16hlvoid_generatedNtB5_10hlvoidArgsNtNtCs649FzoMgw5V_4core7default7Default7defaultBd_
FN:36,_RINvMs_NtNtNtNtCs5hCjilINUCv_17hyperlight_common11flatbuffers10hyperlight9generated16hlvoid_generatedNtB5_6hlvoid6createNtNtCsdyFvlONsh1u_11flatbuffers7builder16DefaultAllocatorEBd_
FN:70,_RNvMs2_NtNtNtNtCs5hCjilINUCv_17hyperlight_common11flatbuffers10hyperlight9generated16hlvoid_generatedINtB5_13hlvoidBuilderNtNtCsdyFvlONsh1u_11flatbuffers7builder16DefaultAllocatorE3newBd_
FN:78,_RNvMs2_NtNtNtNtCs5hCjilINUCv_17hyperlight_common11flatbuffers10hyperlight9generated16hlvoid_generatedINtB5_13hlvoidBuilderNtNtCsdyFvlONsh1u_11flatbuffers7builder16DefaultAllocatorE6finishBd_
FN:32,_RNvMs_NtNtNtNtCs5hCjilINUCv_17hyperlight_common11flatbuffers10hyperlight9generated16hlvoid_generatedNtB4_6hlvoid15init_from_tableBc_
FN:47,_RNvXs0_NtNtNtNtCs5hCjilINUCv_17hyperlight_common11flatbuffers10hyperlight9generated16hlvoid_generatedNtB5_6hlvoidNtNtCsdyFvlONsh1u_11flatbuffers8verifier10Verifiable12run_verifierBd_
FN:85,_RNvXs3_NtNtNtNtCs5hCjilINUCv_17hyperlight_common11flatbuffers10hyperlight9generated16hlvoid_generatedNtB5_6hlvoidNtNtCs649FzoMgw5V_4core3fmt5Debug3fmt
FNDA:0,_RNvXNtNtNtNtCs5hCjilINUCv_17hyperlight_common11flatbuffers10hyperlight9generated16hlvoid_generatedNtB2_6hlvoidNtNtCsdyFvlONsh1u_11flatbuffers6follow6Follow6followBa_
FNDA:0,_RNvXs1_NtNtNtNtCs5hCjilINUCv_17hyperlight_common11flatbuffers10hyperlight9generated16hlvoid_generatedNtB5_10hlvoidArgsNtNtCs649FzoMgw5V_4core7default7Default7defaultBd_
FNDA:0,_RINvMs_NtNtNtNtCs5hCjilINUCv_17hyperlight_common11flatbuffers10hyperlight9generated16hlvoid_generatedNtB5_6hlvoid6createNtNtCsdyFvlONsh1u_11flatbuffers7builder16DefaultAllocatorEBd_
FNDA:0,_RNvMs2_NtNtNtNtCs5hCjilINUCv_17hyperlight_common11flatbuffers10hyperlight9generated16hlvoid_generatedINtB5_13hlvoidBuilderNtNtCsdyFvlONsh1u_11flatbuffers7builder16DefaultAllocatorE3newBd_
FNDA:0,_RNvMs2_NtNtNtNtCs5hCjilINUCv_17hyperlight_common11flatbuffers10hyperlight9generated16hlvoid_generatedINtB5_13hlvoidBuilderNtNtCsdyFvlONsh1u_11flatbuffers7builder16DefaultAllocatorE6finishBd_
FNDA:0,_RNvMs_NtNtNtNtCs5hCjilINUCv_17hyperlight_common11flatbuffers10hyperlight9generated16hlvoid_generatedNtB4_6hlvoid15init_from_tableBc_
FNDA:0,_RNvXs0_NtNtNtNtCs5hCjilINUCv_17hyperlight_common11flatbuffers10hyperlight9generated16hlvoid_generatedNtB5_6hlvoidNtNtCsdyFvlONsh1u_11flatbuffers8verifier10Verifiable12run_verifierBd_
FNDA:0,_RNvXs3_NtNtNtNtCs5hCjilINUCv_17hyperlight_common11flatbuffers10hyperlight9generated16hlvoid_generatedNtB5_6hlvoidNtNtCs649FzoMgw5V_4core3fmt5Debug3fmt
FNF:8
FNH:0
DA:23,0
DA:24,0
DA:25,0
DA:26,0
DA:27,0
DA:32,0
DA:33,0
DA:34,0
DA:36,0
DA:37,0
DA:38,0
DA:39,0
DA:40,0
DA:41,0
DA:42,0
DA:47,0
DA:48,0
DA:49,0
DA:50,0
DA:52,0
DA:53,0
DA:54,0
DA:59,0
DA:60,0
DA:61,0
DA:70,0
DA:71,0
DA:72,0
DA:73,0
DA:74,0
DA:75,0
DA:76,0
DA:78,0
DA:79,0
DA:80,0
DA:81,0
DA:85,0
DA:86,0
DA:87,0
DA:88,0
BRF:0
BRH:0
LF:40
LH:0
end_of_record
SF:/home/runner/work/hyperlight/hyperlight/src/hyperlight_common/src/flatbuffers/hyperlight/generated/host_function_definition_generated.rs
FN:36,_RNvMs_NtNtNtNtCs5hCjilINUCv_17hyperlight_common11flatbuffers10hyperlight9generated34host_function_definition_generatedNtB4_22HostFunctionDefinition15init_from_tableBc_
FN:70,_RNvMs_NtNtNtNtCs5hCjilINUCv_17hyperlight_common11flatbuffers10hyperlight9generated34host_function_definition_generatedNtB4_22HostFunctionDefinition21key_compare_less_thanBc_
FN:75,_RNvMs_NtNtNtNtCs5hCjilINUCv_17hyperlight_common11flatbuffers10hyperlight9generated34host_function_definition_generatedNtB4_22HostFunctionDefinition22key_compare_with_valueBc_
FN:138,_RNvXs1_NtNtNtNtCs5hCjilINUCv_17hyperlight_common11flatbuffers10hyperlight9generated34host_function_definition_generatedNtB5_26HostFunctionDefinitionArgsNtNtCs649FzoMgw5V_4core7default7Default7defaultBd_
FN:40,_RINvMs_NtNtNtNtCs5hCjilINUCv_17hyperlight_common11flatbuffers10hyperlight9generated34host_function_definition_generatedNtB5_22HostFunctionDefinition6createNtNtCsdyFvlONsh1u_11flatbuffers7builder16DefaultAllocatorEBd_
FN:160,_RNvMs2_NtNtNtNtCs5hCjilINUCv_17hyperlight_common11flatbuffers10hyperlight9generated34host_function_definition_generatedINtB5_29HostFunctionDefinitionBuilderNtNtCsdyFvlONsh1u_11flatbuffers7builder16DefaultAllocatorE14add_parametersBd_
FN:170,_RNvMs2_NtNtNtNtCs5hCjilINUCv_17hyperlight_common11flatbuffers10hyperlight9generated34host_function_definition_generatedINtB5_29HostFunctionDefinitionBuilderNtNtCsdyFvlONsh1u_11flatbuffers7builder16DefaultAllocatorE15add_return_typeBd_
FN:153,_RNvMs2_NtNtNtNtCs5hCjilINUCv_17hyperlight_common11flatbuffers10hyperlight9generated34host_function_definition_generatedINtB5_29HostFunctionDefinitionBuilderNtNtCsdyFvlONsh1u_11flatbuffers7builder16DefaultAllocatorE17add_function_nameBd_
FN:178,_RNvMs2_NtNtNtNtCs5hCjilINUCv_17hyperlight_common11flatbuffers10hyperlight9generated34host_function_definition_generatedINtB5_29HostFunctionDefinitionBuilderNtNtCsdyFvlONsh1u_11flatbuffers7builder16DefaultAllocatorE3newBd_
FN:188,_RNvMs2_NtNtNtNtCs5hCjilINUCv_17hyperlight_common11flatbuffers10hyperlight9generated34host_function_definition_generatedINtB5_29HostFunctionDefinitionBuilderNtNtCsdyFvlONsh1u_11flatbuffers7builder16DefaultAllocatorE6finishBd_
FN:80,_RNvMs_NtNtNtNtCs5hCjilINUCv_17hyperlight_common11flatbuffers10hyperlight9generated34host_function_definition_generatedNtB4_22HostFunctionDefinition10parametersBc_
FN:93,_RNvMs_NtNtNtNtCs5hCjilINUCv_17hyperlight_common11flatbuffers10hyperlight9generated34host_function_definition_generatedNtB4_22HostFunctionDefinition11return_typeBc_
FN:56,_RNvMs_NtNtNtNtCs5hCjilINUCv_17hyperlight_common11flatbuffers10hyperlight9generated34host_function_definition_generatedNtB4_22HostFunctionDefinition13function_nameBc_
FN:23,_RNvXNtNtNtNtCs5hCjilINUCv_17hyperlight_common11flatbuffers10hyperlight9generated34host_function_definition_generatedNtB2_22HostFunctionDefinitionNtNtCsdyFvlONsh1u_11flatbuffers6follow6Follow6followBa_
FN:110,_RNvXs0_NtNtNtNtCs5hCjilINUCv_17hyperlight_common11flatbuffers10hyperlight9generated34host_function_definition_generatedNtB5_22HostFunctionDefinitionNtNtCsdyFvlONsh1u_11flatbuffers8verifier10Verifiable12run_verifierBd_
FN:197,_RNvXs3_NtNtNtNtCs5hCjilINUCv_17hyperlight_common11flatbuffers10hyperlight9generated34host_function_definition_generatedNtB5_22HostFunctionDefinitionNtNtCs649FzoMgw5V_4core3fmt5Debug3fmt
FNDA:0,_RNvMs_NtNtNtNtCs5hCjilINUCv_17hyperlight_common11flatbuffers10hyperlight9generated34host_function_definition_generatedNtB4_22HostFunctionDefinition15init_from_tableBc_
FNDA:0,_RNvMs_NtNtNtNtCs5hCjilINUCv_17hyperlight_common11flatbuffers10hyperlight9generated34host_function_definition_generatedNtB4_22HostFunctionDefinition21key_compare_less_thanBc_
FNDA:0,_RNvMs_NtNtNtNtCs5hCjilINUCv_17hyperlight_common11flatbuffers10hyperlight9generated34host_function_definition_generatedNtB4_22HostFunctionDefinition22key_compare_with_valueBc_
FNDA:0,_RNvXs1_NtNtNtNtCs5hCjilINUCv_17hyperlight_common11flatbuffers10hyperlight9generated34host_function_definition_generatedNtB5_26HostFunctionDefinitionArgsNtNtCs649FzoMgw5V_4core7default7Default7defaultBd_
FNDA:150,_RINvMs_NtNtNtNtCs5hCjilINUCv_17hyperlight_common11flatbuffers10hyperlight9generated34host_function_definition_generatedNtB5_22HostFunctionDefinition6createNtNtCsdyFvlONsh1u_11flatbuffers7builder16DefaultAllocatorEBd_
FNDA:150,_RNvMs2_NtNtNtNtCs5hCjilINUCv_17hyperlight_common11flatbuffers10hyperlight9generated34host_function_definition_generatedINtB5_29HostFunctionDefinitionBuilderNtNtCsdyFvlONsh1u_11flatbuffers7builder16DefaultAllocatorE14add_parametersBd_
FNDA:150,_RNvMs2_NtNtNtNtCs5hCjilINUCv_17hyperlight_common11flatbuffers10hyperlight9generated34host_function_definition_generatedINtB5_29HostFunctionDefinitionBuilderNtNtCsdyFvlONsh1u_11flatbuffers7builder16DefaultAllocatorE15add_return_typeBd_
FNDA:150,_RNvMs2_NtNtNtNtCs5hCjilINUCv_17hyperlight_common11flatbuffers10hyperlight9generated34host_function_definition_generatedINtB5_29HostFunctionDefinitionBuilderNtNtCsdyFvlONsh1u_11flatbuffers7builder16DefaultAllocatorE17add_function_nameBd_
FNDA:150,_RNvMs2_NtNtNtNtCs5hCjilINUCv_17hyperlight_common11flatbuffers10hyperlight9generated34host_function_definition_generatedINtB5_29HostFunctionDefinitionBuilderNtNtCsdyFvlONsh1u_11flatbuffers7builder16DefaultAllocatorE3newBd_
FNDA:150,_RNvMs2_NtNtNtNtCs5hCjilINUCv_17hyperlight_common11flatbuffers10hyperlight9generated34host_function_definition_generatedINtB5_29HostFunctionDefinitionBuilderNtNtCsdyFvlONsh1u_11flatbuffers7builder16DefaultAllocatorE6finishBd_
FNDA:75,_RNvMs_NtNtNtNtCs5hCjilINUCv_17hyperlight_common11flatbuffers10hyperlight9generated34host_function_definition_generatedNtB4_22HostFunctionDefinition10parametersBc_
FNDA:75,_RNvMs_NtNtNtNtCs5hCjilINUCv_17hyperlight_common11flatbuffers10hyperlight9generated34host_function_definition_generatedNtB4_22HostFunctionDefinition11return_typeBc_
FNDA:75,_RNvMs_NtNtNtNtCs5hCjilINUCv_17hyperlight_common11flatbuffers10hyperlight9generated34host_function_definition_generatedNtB4_22HostFunctionDefinition13function_nameBc_
FNDA:75,_RNvXNtNtNtNtCs5hCjilINUCv_17hyperlight_common11flatbuffers10hyperlight9generated34host_function_definition_generatedNtB2_22HostFunctionDefinitionNtNtCsdyFvlONsh1u_11flatbuffers6follow6Follow6followBa_
FNDA:75,_RNvXs0_NtNtNtNtCs5hCjilINUCv_17hyperlight_common11flatbuffers10hyperlight9generated34host_function_definition_generatedNtB5_22HostFunctionDefinitionNtNtCsdyFvlONsh1u_11flatbuffers8verifier10Verifiable12run_verifierBd_
FNDA:0,_RNvXs3_NtNtNtNtCs5hCjilINUCv_17hyperlight_common11flatbuffers10hyperlight9generated34host_function_definition_generatedNtB5_22HostFunctionDefinitionNtNtCs649FzoMgw5V_4core3fmt5Debug3fmt
FNF:16
FNH:11
DA:23,75
DA:24,75
DA:25,75
DA:26,75
DA:27,75
DA:36,0
DA:37,0
DA:38,0
DA:40,150
DA:41,150
DA:42,150
DA:43,150
DA:44,150
DA:45,150
DA:46,150
DA:47,150
DA:48,150
DA:49,150
DA:50,150
DA:51,150
DA:52,150
DA:53,150
DA:56,75
DA:57,75
DA:58,75
DA:59,75
DA:60,75
DA:61,75
DA:62,75
DA:63,75
DA:64,75
DA:65,75
DA:66,75
DA:67,75
DA:68,75
DA:70,0
DA:71,0
DA:72,0
DA:75,0
DA:76,0
DA:77,0
DA:78,0
DA:80,75
DA:81,75
DA:82,75
DA:83,75
DA:84,75
DA:85,75
DA:86,75
DA:87,75
DA:88,75
DA:89,75
DA:90,75
DA:91,75
DA:93,75
DA:94,75
DA:95,75
DA:96,75
DA:97,75
DA:98,75
DA:99,75
DA:100,75
DA:101,75
DA:102,75
DA:103,75
DA:104,75
DA:105,75
DA:110,75
DA:111,75
DA:112,75
DA:113,75
DA:115,75
DA:116,75
DA:117,75
DA:118,75
DA:119,75
DA:120,75
DA:121,75
DA:122,75
DA:123,75
DA:124,75
DA:125,75
DA:126,75
DA:127,75
DA:128,75
DA:129,75
DA:138,0
DA:139,0
DA:140,0
DA:141,0
DA:142,0
DA:143,0
DA:144,0
DA:153,150
DA:154,150
DA:155,150
DA:156,150
DA:157,150
DA:158,150
DA:160,150
DA:161,150
DA:162,150
DA:163,150
DA:164,150
DA:165,150
DA:166,150
DA:167,150
DA:168,150
DA:170,150
DA:171,150
DA:172,150
DA:173,150
DA:174,150
DA:175,150
DA:176,150
DA:178,150
DA:179,150
DA:180,150
DA:181,150
DA:182,150
DA:183,150
DA:184,150
DA:185,150
DA:186,150
DA:188,150
DA:189,150
DA:190,150
DA:191,150
DA:192,150
DA:193,150
DA:197,0
DA:198,0
DA:199,0
DA:200,0
DA:201,0
DA:202,0
DA:203,0
BRF:0
BRH:0
LF:137
LH:113
end_of_record
SF:/home/runner/work/hyperlight/hyperlight/src/hyperlight_common/src/flatbuffers/hyperlight/generated/host_function_details_generated.rs
FN:202,_RINvNtNtNtNtCs5hCjilINUCv_17hyperlight_common11flatbuffers10hyperlight9generated31host_function_details_generated35finish_host_function_details_bufferpEBa_
FN:210,_RINvNtNtNtNtCs5hCjilINUCv_17hyperlight_common11flatbuffers10hyperlight9generated31host_function_details_generated49finish_size_prefixed_host_function_details_bufferpEBa_
FN:34,_RNvMs_NtNtNtNtCs5hCjilINUCv_17hyperlight_common11flatbuffers10hyperlight9generated31host_function_details_generatedNtB4_19HostFunctionDetails15init_from_tableBc_
FN:142,_RNvNtNtNtNtCs5hCjilINUCv_17hyperlight_common11flatbuffers10hyperlight9generated31host_function_details_generated29root_as_host_function_detailsB9_
FN:189,_RNvNtNtNtNtCs5hCjilINUCv_17hyperlight_common11flatbuffers10hyperlight9generated31host_function_details_generated39root_as_host_function_details_uncheckedB9_
FN:166,_RNvNtNtNtNtCs5hCjilINUCv_17hyperlight_common11flatbuffers10hyperlight9generated31host_function_details_generated39root_as_host_function_details_with_optsB9_
FN:154,_RNvNtNtNtNtCs5hCjilINUCv_17hyperlight_common11flatbuffers10hyperlight9generated31host_function_details_generated43size_prefixed_root_as_host_function_detailsB9_
FN:196,_RNvNtNtNtNtCs5hCjilINUCv_17hyperlight_common11flatbuffers10hyperlight9generated31host_function_details_generated53size_prefixed_root_as_host_function_details_uncheckedB9_
FN:179,_RNvNtNtNtNtCs5hCjilINUCv_17hyperlight_common11flatbuffers10hyperlight9generated31host_function_details_generated53size_prefixed_root_as_host_function_details_with_optsB9_
FN:89,_RNvXs1_NtNtNtNtCs5hCjilINUCv_17hyperlight_common11flatbuffers10hyperlight9generated31host_function_details_generatedNtB5_23HostFunctionDetailsArgsNtNtCs649FzoMgw5V_4core7default7Default7defaultBd_
FN:38,_RINvMs_NtNtNtNtCs5hCjilINUCv_17hyperlight_common11flatbuffers10hyperlight9generated31host_function_details_generatedNtB5_19HostFunctionDetails6createNtNtCsdyFvlONsh1u_11flatbuffers7builder16DefaultAllocatorEBd_
FN:100,_RNvMs2_NtNtNtNtCs5hCjilINUCv_17hyperlight_common11flatbuffers10hyperlight9generated31host_function_details_generatedINtB5_26HostFunctionDetailsBuilderNtNtCsdyFvlONsh1u_11flatbuffers7builder16DefaultAllocatorE13add_functionsBd_
FN:112,_RNvMs2_NtNtNtNtCs5hCjilINUCv_17hyperlight_common11flatbuffers10hyperlight9generated31host_function_details_generatedINtB5_26HostFunctionDetailsBuilderNtNtCsdyFvlONsh1u_11flatbuffers7builder16DefaultAllocatorE3newBd_
FN:122,_RNvMs2_NtNtNtNtCs5hCjilINUCv_17hyperlight_common11flatbuffers10hyperlight9generated31host_function_details_generatedINtB5_26HostFunctionDetailsBuilderNtNtCsdyFvlONsh1u_11flatbuffers7builder16DefaultAllocatorE6finishBd_
FN:50,_RNvMs_NtNtNtNtCs5hCjilINUCv_17hyperlight_common11flatbuffers10hyperlight9generated31host_function_details_generatedNtB4_19HostFunctionDetails9functionsBc_
FN:23,_RNvXNtNtNtNtCs5hCjilINUCv_17hyperlight_common11flatbuffers10hyperlight9generated31host_function_details_generatedNtB2_19HostFunctionDetailsNtNtCsdyFvlONsh1u_11flatbuffers6follow6Follow6followBa_
FN:67,_RNvXs0_NtNtNtNtCs5hCjilINUCv_17hyperlight_common11flatbuffers10hyperlight9generated31host_function_details_generatedNtB5_19HostFunctionDetailsNtNtCsdyFvlONsh1u_11flatbuffers8verifier10Verifiable12run_verifierBd_
FN:129,_RNvXs3_NtNtNtNtCs5hCjilINUCv_17hyperlight_common11flatbuffers10hyperlight9generated31host_function_details_generatedNtB5_19HostFunctionDetailsNtNtCs649FzoMgw5V_4core3fmt5Debug3fmt
FNDA:0,_RINvNtNtNtNtCs5hCjilINUCv_17hyperlight_common11flatbuffers10hyperlight9generated31host_function_details_generated35finish_host_function_details_bufferpEBa_
FNDA:0,_RINvNtNtNtNtCs5hCjilINUCv_17hyperlight_common11flatbuffers10hyperlight9generated31host_function_details_generated49finish_size_prefixed_host_function_details_bufferpEBa_
FNDA:0,_RNvMs_NtNtNtNtCs5hCjilINUCv_17hyperlight_common11flatbuffers10hyperlight9generated31host_function_details_generatedNtB4_19HostFunctionDetails15init_from_tableBc_
FNDA:0,_RNvNtNtNtNtCs5hCjilINUCv_17hyperlight_common11flatbuffers10hyperlight9generated31host_function_details_generated29root_as_host_function_detailsB9_
FNDA:0,_RNvNtNtNtNtCs5hCjilINUCv_17hyperlight_common11flatbuffers10hyperlight9generated31host_function_details_generated39root_as_host_function_details_uncheckedB9_
FNDA:0,_RNvNtNtNtNtCs5hCjilINUCv_17hyperlight_common11flatbuffers10hyperlight9generated31host_function_details_generated39root_as_host_function_details_with_optsB9_
FNDA:0,_RNvNtNtNtNtCs5hCjilINUCv_17hyperlight_common11flatbuffers10hyperlight9generated31host_function_details_generated43size_prefixed_root_as_host_function_detailsB9_
FNDA:0,_RNvNtNtNtNtCs5hCjilINUCv_17hyperlight_common11flatbuffers10hyperlight9generated31host_function_details_generated53size_prefixed_root_as_host_function_details_uncheckedB9_
FNDA:0,_RNvNtNtNtNtCs5hCjilINUCv_17hyperlight_common11flatbuffers10hyperlight9generated31host_function_details_generated53size_prefixed_root_as_host_function_details_with_optsB9_
FNDA:0,_RNvXs1_NtNtNtNtCs5hCjilINUCv_17hyperlight_common11flatbuffers10hyperlight9generated31host_function_details_generatedNtB5_23HostFunctionDetailsArgsNtNtCs649FzoMgw5V_4core7default7Default7defaultBd_
FNDA:142,_RINvMs_NtNtNtNtCs5hCjilINUCv_17hyperlight_common11flatbuffers10hyperlight9generated31host_function_details_generatedNtB5_19HostFunctionDetails6createNtNtCsdyFvlONsh1u_11flatbuffers7builder16DefaultAllocatorEBd_
FNDA:142,_RNvMs2_NtNtNtNtCs5hCjilINUCv_17hyperlight_common11flatbuffers10hyperlight9generated31host_function_details_generatedINtB5_26HostFunctionDetailsBuilderNtNtCsdyFvlONsh1u_11flatbuffers7builder16DefaultAllocatorE13add_functionsBd_
FNDA:142,_RNvMs2_NtNtNtNtCs5hCjilINUCv_17hyperlight_common11flatbuffers10hyperlight9generated31host_function_details_generatedINtB5_26HostFunctionDetailsBuilderNtNtCsdyFvlONsh1u_11flatbuffers7builder16DefaultAllocatorE3newBd_
FNDA:142,_RNvMs2_NtNtNtNtCs5hCjilINUCv_17hyperlight_common11flatbuffers10hyperlight9generated31host_function_details_generatedINtB5_26HostFunctionDetailsBuilderNtNtCsdyFvlONsh1u_11flatbuffers7builder16DefaultAllocatorE6finishBd_
FNDA:71,_RNvMs_NtNtNtNtCs5hCjilINUCv_17hyperlight_common11flatbuffers10hyperlight9generated31host_function_details_generatedNtB4_19HostFunctionDetails9functionsBc_
FNDA:71,_RNvXNtNtNtNtCs5hCjilINUCv_17hyperlight_common11flatbuffers10hyperlight9generated31host_function_details_generatedNtB2_19HostFunctionDetailsNtNtCsdyFvlONsh1u_11flatbuffers6follow6Follow6followBa_
FNDA:71,_RNvXs0_NtNtNtNtCs5hCjilINUCv_17hyperlight_common11flatbuffers10hyperlight9generated31host_function_details_generatedNtB5_19HostFunctionDetailsNtNtCsdyFvlONsh1u_11flatbuffers8verifier10Verifiable12run_verifierBd_
FNDA:0,_RNvXs3_NtNtNtNtCs5hCjilINUCv_17hyperlight_common11flatbuffers10hyperlight9generated31host_function_details_generatedNtB5_19HostFunctionDetailsNtNtCs649FzoMgw5V_4core3fmt5Debug3fmt
FNF:18
FNH:7
DA:23,71
DA:24,71
DA:25,71
DA:26,71
DA:27,71
DA:34,0
DA:35,0
DA:36,0
DA:38,142
DA:39,142
DA:40,142
DA:41,142
DA:42,142
DA:43,142
DA:44,142
DA:45,142
DA:46,142
DA:47,142
DA:50,71
DA:51,71
DA:52,71
DA:53,71
DA:54,71
DA:55,71
DA:56,71
DA:57,71
DA:58,71
DA:59,71
DA:60,71
DA:61,71
DA:62,71
DA:67,71
DA:68,71
DA:69,71
DA:70,71
DA:72,71
DA:73,71
DA:74,71
DA:75,71
DA:76,71
DA:77,71
DA:78,71
DA:89,0
DA:90,0
DA:91,0
DA:100,142
DA:101,142
DA:102,142
DA:103,142
DA:104,142
DA:105,142
DA:106,142
DA:107,142
DA:108,142
DA:109,142
DA:110,142
DA:112,142
DA:113,142
DA:114,142
DA:115,142
DA:116,142
DA:117,142
DA:118,142
DA:119,142
DA:120,142
DA:122,142
DA:123,142
DA:124,142
DA:125,142
DA:129,0
DA:130,0
DA:131,0
DA:132,0
DA:133,0
DA:142,0
DA:143,0
DA:144,0
DA:145,0
DA:146,0
DA:154,0
DA:155,0
DA:156,0
DA:157,0
DA:158,0
DA:166,0
DA:167,0
DA:168,0
DA:169,0
DA:170,0
DA:171,0
DA:179,0
DA:180,0
DA:181,0
DA:182,0
DA:183,0
DA:184,0
DA:189,0
DA:190,0
DA:191,0
DA:196,0
DA:197,0
DA:198,0
DA:199,0
DA:200,0
DA:202,0
DA:203,0
DA:204,0
DA:205,0
DA:206,0
DA:207,0
DA:210,0
DA:211,0
DA:212,0
DA:213,0
DA:214,0
DA:215,0
BRF:0
BRH:0
LF:116
LH:63
end_of_record
SF:/home/runner/work/hyperlight/hyperlight/src/hyperlight_common/src/flatbuffers/hyperlight/generated/log_level_generated.rs
FN:63,_RNvMNtNtNtNtCs5hCjilINUCv_17hyperlight_common11flatbuffers10hyperlight9generated19log_level_generatedNtB2_8LogLevel12variant_name
FN:88,_RNvXs0_NtNtNtNtCs5hCjilINUCv_17hyperlight_common11flatbuffers10hyperlight9generated19log_level_generatedNtB5_8LogLevelNtNtCsdyFvlONsh1u_11flatbuffers6follow6Follow6followBd_
FN:97,_RNvXs1_NtNtNtNtCs5hCjilINUCv_17hyperlight_common11flatbuffers10hyperlight9generated19log_level_generatedNtB5_8LogLevelNtNtCsdyFvlONsh1u_11flatbuffers4push4Push4pushBd_
FN:118,_RNvXs3_NtNtNtNtCs5hCjilINUCv_17hyperlight_common11flatbuffers10hyperlight9generated19log_level_generatedNtB5_8LogLevelNtNtCsdyFvlONsh1u_11flatbuffers8verifier10Verifiable12run_verifierBd_
FN:77,_RNvXs_NtNtNtNtCs5hCjilINUCv_17hyperlight_common11flatbuffers10hyperlight9generated19log_level_generatedNtB4_8LogLevelNtNtCs649FzoMgw5V_4core3fmt5Debug3fmt
FN:105,_RNvXs2_NtNtNtNtCs5hCjilINUCv_17hyperlight_common11flatbuffers10hyperlight9generated19log_level_generatedNtB5_8LogLevelNtNtCsdyFvlONsh1u_11flatbuffers13endian_scalar12EndianScalar16to_little_endianBd_
FN:110,_RNvXs2_NtNtNtNtCs5hCjilINUCv_17hyperlight_common11flatbuffers10hyperlight9generated19log_level_generatedNtB5_8LogLevelNtNtCsdyFvlONsh1u_11flatbuffers13endian_scalar12EndianScalar18from_little_endianBd_
FNDA:0,_RNvMNtNtNtNtCs5hCjilINUCv_17hyperlight_common11flatbuffers10hyperlight9generated19log_level_generatedNtB2_8LogLevel12variant_name
FNDA:0,_RNvXs0_NtNtNtNtCs5hCjilINUCv_17hyperlight_common11flatbuffers10hyperlight9generated19log_level_generatedNtB5_8LogLevelNtNtCsdyFvlONsh1u_11flatbuffers6follow6Follow6followBd_
FNDA:0,_RNvXs1_NtNtNtNtCs5hCjilINUCv_17hyperlight_common11flatbuffers10hyperlight9generated19log_level_generatedNtB5_8LogLevelNtNtCsdyFvlONsh1u_11flatbuffers4push4Push4pushBd_
FNDA:0,_RNvXs3_NtNtNtNtCs5hCjilINUCv_17hyperlight_common11flatbuffers10hyperlight9generated19log_level_generatedNtB5_8LogLevelNtNtCsdyFvlONsh1u_11flatbuffers8verifier10Verifiable12run_verifierBd_
FNDA:0,_RNvXs_NtNtNtNtCs5hCjilINUCv_17hyperlight_common11flatbuffers10hyperlight9generated19log_level_generatedNtB4_8LogLevelNtNtCs649FzoMgw5V_4core3fmt5Debug3fmt
FNDA:0,_RNvXs2_NtNtNtNtCs5hCjilINUCv_17hyperlight_common11flatbuffers10hyperlight9generated19log_level_generatedNtB5_8LogLevelNtNtCsdyFvlONsh1u_11flatbuffers13endian_scalar12EndianScalar16to_little_endianBd_
FNDA:0,_RNvXs2_NtNtNtNtCs5hCjilINUCv_17hyperlight_common11flatbuffers10hyperlight9generated19log_level_generatedNtB5_8LogLevelNtNtCsdyFvlONsh1u_11flatbuffers13endian_scalar12EndianScalar18from_little_endianBd_
FNF:7
FNH:0
DA:63,0
DA:64,0
DA:65,0
DA:66,0
DA:67,0
DA:68,0
DA:69,0
DA:70,0
DA:71,0
DA:72,0
DA:74,0
DA:77,0
DA:78,0
DA:79,0
DA:81,0
DA:83,0
DA:88,0
DA:89,0
DA:90,0
DA:91,0
DA:97,0
DA:98,0
DA:99,0
DA:105,0
DA:106,0
DA:107,0
DA:110,0
DA:111,0
DA:112,0
DA:113,0
DA:118,0
DA:119,0
DA:120,0
DA:121,0
DA:123,0
DA:124,0
BRF:0
BRH:0
LF:36
LH:0
end_of_record
SF:/home/runner/work/hyperlight/hyperlight/src/hyperlight_common/src/flatbuffers/hyperlight/generated/parameter_generated.rs
FN:35,_RNvMs_NtNtNtNtCs5hCjilINUCv_17hyperlight_common11flatbuffers10hyperlight9generated19parameter_generatedNtB4_9Parameter15init_from_tableBc_
FN:276,_RNvXs1_NtNtNtNtCs5hCjilINUCv_17hyperlight_common11flatbuffers10hyperlight9generated19parameter_generatedNtB5_13ParameterArgsNtNtCs649FzoMgw5V_4core7default7Default7defaultBd_
FN:39,_RINvMs_NtNtNtNtCs5hCjilINUCv_17hyperlight_common11flatbuffers10hyperlight9generated19parameter_generatedNtB5_9Parameter6createNtNtCsdyFvlONsh1u_11flatbuffers7builder16DefaultAllocatorEBd_
FN:217,_RNCNvXs0_NtNtNtNtCs5hCjilINUCv_17hyperlight_common11flatbuffers10hyperlight9generated19parameter_generatedNtB7_9ParameterNtNtCsdyFvlONsh1u_11flatbuffers8verifier10Verifiable12run_verifier0Bf_
FN:290,_RNvMs2_NtNtNtNtCs5hCjilINUCv_17hyperlight_common11flatbuffers10hyperlight9generated19parameter_generatedINtB5_16ParameterBuilderNtNtCsdyFvlONsh1u_11flatbuffers7builder16DefaultAllocatorE14add_value_typeBd_
FN:303,_RNvMs2_NtNtNtNtCs5hCjilINUCv_17hyperlight_common11flatbuffers10hyperlight9generated19parameter_generatedINtB5_16ParameterBuilderNtNtCsdyFvlONsh1u_11flatbuffers7builder16DefaultAllocatorE3newBd_
FN:311,_RNvMs2_NtNtNtNtCs5hCjilINUCv_17hyperlight_common11flatbuffers10hyperlight9generated19parameter_generatedINtB5_16ParameterBuilderNtNtCsdyFvlONsh1u_11flatbuffers7builder16DefaultAllocatorE6finishBd_
FN:298,_RNvMs2_NtNtNtNtCs5hCjilINUCv_17hyperlight_common11flatbuffers10hyperlight9generated19parameter_generatedINtB5_16ParameterBuilderNtNtCsdyFvlONsh1u_11flatbuffers7builder16DefaultAllocatorE9add_valueBd_
FN:52,_RNvMs_NtNtNtNtCs5hCjilINUCv_17hyperlight_common11flatbuffers10hyperlight9generated19parameter_generatedNtB4_9Parameter10value_typeBc_
FN:78,_RNvMs_NtNtNtNtCs5hCjilINUCv_17hyperlight_common11flatbuffers10hyperlight9generated19parameter_generatedNtB4_9Parameter14value_as_hlintBc_
FN:176,_RNvMs_NtNtNtNtCs5hCjilINUCv_17hyperlight_common11flatbuffers10hyperlight9generated19parameter_generatedNtB4_9Parameter15value_as_hlboolBc_
FN:106,_RNvMs_NtNtNtNtCs5hCjilINUCv_17hyperlight_common11flatbuffers10hyperlight9generated19parameter_generatedNtB4_9Parameter15value_as_hllongBc_
FN:92,_RNvMs_NtNtNtNtCs5hCjilINUCv_17hyperlight_common11flatbuffers10hyperlight9generated19parameter_generatedNtB4_9Parameter15value_as_hluintBc_
FN:134,_RNvMs_NtNtNtNtCs5hCjilINUCv_17hyperlight_common11flatbuffers10hyperlight9generated19parameter_generatedNtB4_9Parameter16value_as_hlfloatBc_
FN:120,_RNvMs_NtNtNtNtCs5hCjilINUCv_17hyperlight_common11flatbuffers10hyperlight9generated19parameter_generatedNtB4_9Parameter16value_as_hlulongBc_
FN:148,_RNvMs_NtNtNtNtCs5hCjilINUCv_17hyperlight_common11flatbuffers10hyperlight9generated19parameter_generatedNtB4_9Parameter17value_as_hldoubleBc_
FN:162,_RNvMs_NtNtNtNtCs5hCjilINUCv_17hyperlight_common11flatbuffers10hyperlight9generated19parameter_generatedNtB4_9Parameter17value_as_hlstringBc_
FN:190,_RNvMs_NtNtNtNtCs5hCjilINUCv_17hyperlight_common11flatbuffers10hyperlight9generated19parameter_generatedNtB4_9Parameter19value_as_hlvecbytesBc_
FN:63,_RNvMs_NtNtNtNtCs5hCjilINUCv_17hyperlight_common11flatbuffers10hyperlight9generated19parameter_generatedNtB4_9Parameter5valueBc_
FN:23,_RNvXNtNtNtNtCs5hCjilINUCv_17hyperlight_common11flatbuffers10hyperlight9generated19parameter_generatedNtB2_9ParameterNtNtCsdyFvlONsh1u_11flatbuffers6follow6Follow6followBa_
FN:205,_RNvXs0_NtNtNtNtCs5hCjilINUCv_17hyperlight_common11flatbuffers10hyperlight9generated19parameter_generatedNtB5_9ParameterNtNtCsdyFvlONsh1u_11flatbuffers8verifier10Verifiable12run_verifierBd_
FN:319,_RNvXs3_NtNtNtNtCs5hCjilINUCv_17hyperlight_common11flatbuffers10hyperlight9generated19parameter_generatedNtB5_9ParameterNtNtCs649FzoMgw5V_4core3fmt5Debug3fmt
FNDA:0,_RNvMs_NtNtNtNtCs5hCjilINUCv_17hyperlight_common11flatbuffers10hyperlight9generated19parameter_generatedNtB4_9Parameter15init_from_tableBc_
FNDA:0,_RNvXs1_NtNtNtNtCs5hCjilINUCv_17hyperlight_common11flatbuffers10hyperlight9generated19parameter_generatedNtB5_13ParameterArgsNtNtCs649FzoMgw5V_4core7default7Default7defaultBd_
FNDA:0,_RINvMs_NtNtNtNtCs5hCjilINUCv_17hyperlight_common11flatbuffers10hyperlight9generated19parameter_generatedNtB5_9Parameter6createNtNtCsdyFvlONsh1u_11flatbuffers7builder16DefaultAllocatorEBd_
FNDA:0,_RNCNvXs0_NtNtNtNtCs5hCjilINUCv_17hyperlight_common11flatbuffers10hyperlight9generated19parameter_generatedNtB7_9ParameterNtNtCsdyFvlONsh1u_11flatbuffers8verifier10Verifiable12run_verifier0Bf_
FNDA:0,_RNvMs2_NtNtNtNtCs5hCjilINUCv_17hyperlight_common11flatbuffers10hyperlight9generated19parameter_generatedINtB5_16ParameterBuilderNtNtCsdyFvlONsh1u_11flatbuffers7builder16DefaultAllocatorE14add_value_typeBd_
FNDA:0,_RNvMs2_NtNtNtNtCs5hCjilINUCv_17hyperlight_common11flatbuffers10hyperlight9generated19parameter_generatedINtB5_16ParameterBuilderNtNtCsdyFvlONsh1u_11flatbuffers7builder16DefaultAllocatorE3newBd_
FNDA:0,_RNvMs2_NtNtNtNtCs5hCjilINUCv_17hyperlight_common11flatbuffers10hyperlight9generated19parameter_generatedINtB5_16ParameterBuilderNtNtCsdyFvlONsh1u_11flatbuffers7builder16DefaultAllocatorE6finishBd_
FNDA:0,_RNvMs2_NtNtNtNtCs5hCjilINUCv_17hyperlight_common11flatbuffers10hyperlight9generated19parameter_generatedINtB5_16ParameterBuilderNtNtCsdyFvlONsh1u_11flatbuffers7builder16DefaultAllocatorE9add_valueBd_
FNDA:0,_RNvMs_NtNtNtNtCs5hCjilINUCv_17hyperlight_common11flatbuffers10hyperlight9generated19parameter_generatedNtB4_9Parameter10value_typeBc_
FNDA:0,_RNvMs_NtNtNtNtCs5hCjilINUCv_17hyperlight_common11flatbuffers10hyperlight9generated19parameter_generatedNtB4_9Parameter14value_as_hlintBc_
FNDA:0,_RNvMs_NtNtNtNtCs5hCjilINUCv_17hyperlight_common11flatbuffers10hyperlight9generated19parameter_generatedNtB4_9Parameter15value_as_hlboolBc_
FNDA:0,_RNvMs_NtNtNtNtCs5hCjilINUCv_17hyperlight_common11flatbuffers10hyperlight9generated19parameter_generatedNtB4_9Parameter15value_as_hllongBc_
FNDA:0,_RNvMs_NtNtNtNtCs5hCjilINUCv_17hyperlight_common11flatbuffers10hyperlight9generated19parameter_generatedNtB4_9Parameter15value_as_hluintBc_
FNDA:0,_RNvMs_NtNtNtNtCs5hCjilINUCv_17hyperlight_common11flatbuffers10hyperlight9generated19parameter_generatedNtB4_9Parameter16value_as_hlfloatBc_
FNDA:0,_RNvMs_NtNtNtNtCs5hCjilINUCv_17hyperlight_common11flatbuffers10hyperlight9generated19parameter_generatedNtB4_9Parameter16value_as_hlulongBc_
FNDA:0,_RNvMs_NtNtNtNtCs5hCjilINUCv_17hyperlight_common11flatbuffers10hyperlight9generated19parameter_generatedNtB4_9Parameter17value_as_hldoubleBc_
FNDA:0,_RNvMs_NtNtNtNtCs5hCjilINUCv_17hyperlight_common11flatbuffers10hyperlight9generated19parameter_generatedNtB4_9Parameter17value_as_hlstringBc_
FNDA:0,_RNvMs_NtNtNtNtCs5hCjilINUCv_17hyperlight_common11flatbuffers10hyperlight9generated19parameter_generatedNtB4_9Parameter19value_as_hlvecbytesBc_
FNDA:0,_RNvMs_NtNtNtNtCs5hCjilINUCv_17hyperlight_common11flatbuffers10hyperlight9generated19parameter_generatedNtB4_9Parameter5valueBc_
FNDA:0,_RNvXNtNtNtNtCs5hCjilINUCv_17hyperlight_common11flatbuffers10hyperlight9generated19parameter_generatedNtB2_9ParameterNtNtCsdyFvlONsh1u_11flatbuffers6follow6Follow6followBa_
FNDA:0,_RNvXs0_NtNtNtNtCs5hCjilINUCv_17hyperlight_common11flatbuffers10hyperlight9generated19parameter_generatedNtB5_9ParameterNtNtCsdyFvlONsh1u_11flatbuffers8verifier10Verifiable12run_verifierBd_
FNDA:0,_RNvXs3_NtNtNtNtCs5hCjilINUCv_17hyperlight_common11flatbuffers10hyperlight9generated19parameter_generatedNtB5_9ParameterNtNtCs649FzoMgw5V_4core3fmt5Debug3fmt
FNF:22
FNH:0
DA:23,0
DA:24,0
DA:25,0
DA:26,0
DA:27,0
DA:35,0
DA:36,0
DA:37,0
DA:39,0
DA:40,0
DA:41,0
DA:42,0
DA:43,0
DA:44,0
DA:45,0
DA:46,0
DA:47,0
DA:48,0
DA:49,0
DA:52,0
DA:53,0
DA:54,0
DA:55,0
DA:56,0
DA:57,0
DA:58,0
DA:59,0
DA:60,0
DA:61,0
DA:63,0
DA:64,0
DA:65,0
DA:66,0
DA:67,0
DA:68,0
DA:69,0
DA:70,0
DA:71,0
DA:72,0
DA:73,0
DA:74,0
DA:75,0
DA:78,0
DA:79,0
DA:80,0
DA:81,0
DA:82,0
DA:83,0
DA:84,0
DA:86,0
DA:88,0
DA:92,0
DA:93,0
DA:94,0
DA:95,0
DA:96,0
DA:97,0
DA:98,0
DA:100,0
DA:102,0
DA:106,0
DA:107,0
DA:108,0
DA:109,0
DA:110,0
DA:111,0
DA:112,0
DA:114,0
DA:116,0
DA:120,0
DA:121,0
DA:122,0
DA:123,0
DA:124,0
DA:125,0
DA:126,0
DA:128,0
DA:130,0
DA:134,0
DA:135,0
DA:136,0
DA:137,0
DA:138,0
DA:139,0
DA:140,0
DA:142,0
DA:144,0
DA:148,0
DA:149,0
DA:150,0
DA:151,0
DA:152,0
DA:153,0
DA:154,0
DA:156,0
DA:158,0
DA:162,0
DA:163,0
DA:164,0
DA:165,0
DA:166,0
DA:167,0
DA:168,0
DA:170,0
DA:172,0
DA:176,0
DA:177,0
DA:178,0
DA:179,0
DA:180,0
DA:181,0
DA:182,0
DA:184,0
DA:186,0
DA:190,0
DA:191,0
DA:192,0
DA:193,0
DA:194,0
DA:195,0
DA:196,0
DA:198,0
DA:200,0
DA:205,0
DA:206,0
DA:207,0
DA:208,0
DA:210,0
DA:211,0
DA:212,0
DA:213,0
DA:214,0
DA:215,0
DA:216,0
DA:217,0
DA:218,0
DA:219,0
DA:220,0
DA:221,0
DA:222,0
DA:223,0
DA:224,0
DA:225,0
DA:226,0
DA:227,0
DA:228,0
DA:229,0
DA:230,0
DA:231,0
DA:232,0
DA:233,0
DA:234,0
DA:235,0
DA:236,0
DA:237,0
DA:238,0
DA:239,0
DA:240,0
DA:241,0
DA:242,0
DA:243,0
DA:244,0
DA:245,0
DA:246,0
DA:247,0
DA:248,0
DA:249,0
DA:250,0
DA:251,0
DA:252,0
DA:253,0
DA:254,0
DA:255,0
DA:256,0
DA:257,0
DA:258,0
DA:259,0
DA:260,0
DA:261,0
DA:262,0
DA:263,0
DA:264,0
DA:265,0
DA:266,0
DA:267,0
DA:268,0
DA:276,0
DA:277,0
DA:278,0
DA:279,0
DA:280,0
DA:281,0
DA:290,0
DA:291,0
DA:292,0
DA:293,0
DA:294,0
DA:295,0
DA:296,0
DA:298,0
DA:299,0
DA:300,0
DA:301,0
DA:303,0
DA:304,0
DA:305,0
DA:306,0
DA:307,0
DA:308,0
DA:309,0
DA:311,0
DA:312,0
DA:313,0
DA:314,0
DA:315,0
DA:319,0
DA:320,0
DA:321,0
DA:322,0
DA:324,0
DA:325,0
DA:327,0
DA:328,0
DA:329,0
DA:330,0
DA:334,0
DA:335,0
DA:337,0
DA:338,0
DA:339,0
DA:340,0
DA:344,0
DA:345,0
DA:347,0
DA:348,0
DA:349,0
DA:350,0
DA:354,0
DA:355,0
DA:357,0
DA:358,0
DA:359,0
DA:360,0
DA:364,0
DA:365,0
DA:367,0
DA:368,0
DA:369,0
DA:370,0
DA:374,0
DA:375,0
DA:377,0
DA:378,0
DA:379,0
DA:380,0
DA:384,0
DA:385,0
DA:387,0
DA:388,0
DA:389,0
DA:390,0
DA:394,0
DA:395,0
DA:397,0
DA:398,0
DA:399,0
DA:400,0
DA:404,0
DA:405,0
DA:407,0
DA:408,0
DA:409,0
DA:410,0
DA:414,0
DA:415,0
DA:418,0
DA:419,0
BRF:0
BRH:0
LF:279
LH:0
end_of_record
SF:/home/runner/work/hyperlight/hyperlight/src/hyperlight_common/src/flatbuffers/hyperlight/generated/parameter_type_generated.rs
FN:69,_RNvMNtNtNtNtCs5hCjilINUCv_17hyperlight_common11flatbuffers10hyperlight9generated24parameter_type_generatedNtB2_13ParameterType12variant_name
FN:96,_RNvXs0_NtNtNtNtCs5hCjilINUCv_17hyperlight_common11flatbuffers10hyperlight9generated24parameter_type_generatedNtB5_13ParameterTypeNtNtCsdyFvlONsh1u_11flatbuffers6follow6Follow6followBd_
FN:105,_RNvXs1_NtNtNtNtCs5hCjilINUCv_17hyperlight_common11flatbuffers10hyperlight9generated24parameter_type_generatedNtB5_13ParameterTypeNtNtCsdyFvlONsh1u_11flatbuffers4push4Push4pushBd_
FN:85,_RNvXs_NtNtNtNtCs5hCjilINUCv_17hyperlight_common11flatbuffers10hyperlight9generated24parameter_type_generatedNtB4_13ParameterTypeNtNtCs649FzoMgw5V_4core3fmt5Debug3fmt
FN:113,_RNvXs2_NtNtNtNtCs5hCjilINUCv_17hyperlight_common11flatbuffers10hyperlight9generated24parameter_type_generatedNtB5_13ParameterTypeNtNtCsdyFvlONsh1u_11flatbuffers13endian_scalar12EndianScalar16to_little_endianBd_
FN:118,_RNvXs2_NtNtNtNtCs5hCjilINUCv_17hyperlight_common11flatbuffers10hyperlight9generated24parameter_type_generatedNtB5_13ParameterTypeNtNtCsdyFvlONsh1u_11flatbuffers13endian_scalar12EndianScalar18from_little_endianBd_
FN:126,_RNvXs3_NtNtNtNtCs5hCjilINUCv_17hyperlight_common11flatbuffers10hyperlight9generated24parameter_type_generatedNtB5_13ParameterTypeNtNtCsdyFvlONsh1u_11flatbuffers8verifier10Verifiable12run_verifierBd_
FNDA:0,_RNvMNtNtNtNtCs5hCjilINUCv_17hyperlight_common11flatbuffers10hyperlight9generated24parameter_type_generatedNtB2_13ParameterType12variant_name
FNDA:72,_RNvXs0_NtNtNtNtCs5hCjilINUCv_17hyperlight_common11flatbuffers10hyperlight9generated24parameter_type_generatedNtB5_13ParameterTypeNtNtCsdyFvlONsh1u_11flatbuffers6follow6Follow6followBd_
FNDA:144,_RNvXs1_NtNtNtNtCs5hCjilINUCv_17hyperlight_common11flatbuffers10hyperlight9generated24parameter_type_generatedNtB5_13ParameterTypeNtNtCsdyFvlONsh1u_11flatbuffers4push4Push4pushBd_
FNDA:0,_RNvXs_NtNtNtNtCs5hCjilINUCv_17hyperlight_common11flatbuffers10hyperlight9generated24parameter_type_generatedNtB4_13ParameterTypeNtNtCs649FzoMgw5V_4core3fmt5Debug3fmt
FNDA:0,_RNvXs2_NtNtNtNtCs5hCjilINUCv_17hyperlight_common11flatbuffers10hyperlight9generated24parameter_type_generatedNtB5_13ParameterTypeNtNtCsdyFvlONsh1u_11flatbuffers13endian_scalar12EndianScalar16to_little_endianBd_
FNDA:0,_RNvXs2_NtNtNtNtCs5hCjilINUCv_17hyperlight_common11flatbuffers10hyperlight9generated24parameter_type_generatedNtB5_13ParameterTypeNtNtCsdyFvlONsh1u_11flatbuffers13endian_scalar12EndianScalar18from_little_endianBd_
FNDA:0,_RNvXs3_NtNtNtNtCs5hCjilINUCv_17hyperlight_common11flatbuffers10hyperlight9generated24parameter_type_generatedNtB5_13ParameterTypeNtNtCsdyFvlONsh1u_11flatbuffers8verifier10Verifiable12run_verifierBd_
FNF:7
FNH:2
DA:69,0
DA:70,0
DA:71,0
DA:72,0
DA:73,0
DA:74,0
DA:75,0
DA:76,0
DA:77,0
DA:78,0
DA:79,0
DA:80,0
DA:82,0
DA:85,0
DA:86,0
DA:87,0
DA:89,0
DA:91,0
DA:96,72
DA:97,72
DA:98,72
DA:99,72
DA:105,144
DA:106,144
DA:107,144
DA:113,0
DA:114,0
DA:115,0
DA:118,0
DA:119,0
DA:120,0
DA:121,0
DA:126,0
DA:127,0
DA:128,0
DA:129,0
DA:131,0
DA:132,0
BRF:0
BRH:0
LF:38
LH:7
end_of_record
SF:/home/runner/work/hyperlight/hyperlight/src/hyperlight_common/src/flatbuffers/hyperlight/generated/parameter_value_generated.rs
FN:72,_RNvMNtNtNtNtCs5hCjilINUCv_17hyperlight_common11flatbuffers10hyperlight9generated25parameter_value_generatedNtB2_14ParameterValue12variant_name
FN:100,_RNvXs0_NtNtNtNtCs5hCjilINUCv_17hyperlight_common11flatbuffers10hyperlight9generated25parameter_value_generatedNtB5_14ParameterValueNtNtCsdyFvlONsh1u_11flatbuffers6follow6Follow6followBd_
FN:109,_RNvXs1_NtNtNtNtCs5hCjilINUCv_17hyperlight_common11flatbuffers10hyperlight9generated25parameter_value_generatedNtB5_14ParameterValueNtNtCsdyFvlONsh1u_11flatbuffers4push4Push4pushBd_
FN:130,_RNvXs3_NtNtNtNtCs5hCjilINUCv_17hyperlight_common11flatbuffers10hyperlight9generated25parameter_value_generatedNtB5_14ParameterValueNtNtCsdyFvlONsh1u_11flatbuffers8verifier10Verifiable12run_verifierBd_
FN:89,_RNvXs_NtNtNtNtCs5hCjilINUCv_17hyperlight_common11flatbuffers10hyperlight9generated25parameter_value_generatedNtB4_14ParameterValueNtNtCs649FzoMgw5V_4core3fmt5Debug3fmt
FN:117,_RNvXs2_NtNtNtNtCs5hCjilINUCv_17hyperlight_common11flatbuffers10hyperlight9generated25parameter_value_generatedNtB5_14ParameterValueNtNtCsdyFvlONsh1u_11flatbuffers13endian_scalar12EndianScalar16to_little_endianBd_
FN:122,_RNvXs2_NtNtNtNtCs5hCjilINUCv_17hyperlight_common11flatbuffers10hyperlight9generated25parameter_value_generatedNtB5_14ParameterValueNtNtCsdyFvlONsh1u_11flatbuffers13endian_scalar12EndianScalar18from_little_endianBd_
FNDA:0,_RNvMNtNtNtNtCs5hCjilINUCv_17hyperlight_common11flatbuffers10hyperlight9generated25parameter_value_generatedNtB2_14ParameterValue12variant_name
FNDA:0,_RNvXs0_NtNtNtNtCs5hCjilINUCv_17hyperlight_common11flatbuffers10hyperlight9generated25parameter_value_generatedNtB5_14ParameterValueNtNtCsdyFvlONsh1u_11flatbuffers6follow6Follow6followBd_
FNDA:0,_RNvXs1_NtNtNtNtCs5hCjilINUCv_17hyperlight_common11flatbuffers10hyperlight9generated25parameter_value_generatedNtB5_14ParameterValueNtNtCsdyFvlONsh1u_11flatbuffers4push4Push4pushBd_
FNDA:0,_RNvXs3_NtNtNtNtCs5hCjilINUCv_17hyperlight_common11flatbuffers10hyperlight9generated25parameter_value_generatedNtB5_14ParameterValueNtNtCsdyFvlONsh1u_11flatbuffers8verifier10Verifiable12run_verifierBd_
FNDA:0,_RNvXs_NtNtNtNtCs5hCjilINUCv_17hyperlight_common11flatbuffers10hyperlight9generated25parameter_value_generatedNtB4_14ParameterValueNtNtCs649FzoMgw5V_4core3fmt5Debug3fmt
FNDA:0,_RNvXs2_NtNtNtNtCs5hCjilINUCv_17hyperlight_common11flatbuffers10hyperlight9generated25parameter_value_generatedNtB5_14ParameterValueNtNtCsdyFvlONsh1u_11flatbuffers13endian_scalar12EndianScalar16to_little_endianBd_
FNDA:0,_RNvXs2_NtNtNtNtCs5hCjilINUCv_17hyperlight_common11flatbuffers10hyperlight9generated25parameter_value_generatedNtB5_14ParameterValueNtNtCsdyFvlONsh1u_11flatbuffers13endian_scalar12EndianScalar18from_little_endianBd_
FNF:7
FNH:0
DA:72,0
DA:73,0
DA:74,0
DA:75,0
DA:76,0
DA:77,0
DA:78,0
DA:79,0
DA:80,0
DA:81,0
DA:82,0
DA:83,0
DA:84,0
DA:86,0
DA:89,0
DA:90,0
DA:91,0
DA:93,0
DA:95,0
DA:100,0
DA:101,0
DA:102,0
DA:103,0
DA:109,0
DA:110,0
DA:111,0
DA:117,0
DA:118,0
DA:119,0
DA:122,0
DA:123,0
DA:124,0
DA:125,0
DA:130,0
DA:131,0
DA:132,0
DA:133,0
DA:135,0
DA:136,0
BRF:0
BRH:0
LF:39
LH:0
end_of_record
SF:/home/runner/work/hyperlight/hyperlight/src/hyperlight_common/src/flatbuffers/hyperlight/generated/return_type_generated.rs
FN:117,_RNvXs2_NtNtNtNtCs5hCjilINUCv_17hyperlight_common11flatbuffers10hyperlight9generated21return_type_generatedNtB5_10ReturnTypeNtNtCsdyFvlONsh1u_11flatbuffers13endian_scalar12EndianScalar16to_little_endianBd_
FN:122,_RNvXs2_NtNtNtNtCs5hCjilINUCv_17hyperlight_common11flatbuffers10hyperlight9generated21return_type_generatedNtB5_10ReturnTypeNtNtCsdyFvlONsh1u_11flatbuffers13endian_scalar12EndianScalar18from_little_endianBd_
FN:72,_RNvMNtNtNtNtCs5hCjilINUCv_17hyperlight_common11flatbuffers10hyperlight9generated21return_type_generatedNtB2_10ReturnType12variant_name
FN:100,_RNvXs0_NtNtNtNtCs5hCjilINUCv_17hyperlight_common11flatbuffers10hyperlight9generated21return_type_generatedNtB5_10ReturnTypeNtNtCsdyFvlONsh1u_11flatbuffers6follow6Follow6followBd_
FN:109,_RNvXs1_NtNtNtNtCs5hCjilINUCv_17hyperlight_common11flatbuffers10hyperlight9generated21return_type_generatedNtB5_10ReturnTypeNtNtCsdyFvlONsh1u_11flatbuffers4push4Push4pushBd_
FN:130,_RNvXs3_NtNtNtNtCs5hCjilINUCv_17hyperlight_common11flatbuffers10hyperlight9generated21return_type_generatedNtB5_10ReturnTypeNtNtCsdyFvlONsh1u_11flatbuffers8verifier10Verifiable12run_verifierBd_
FN:89,_RNvXs_NtNtNtNtCs5hCjilINUCv_17hyperlight_common11flatbuffers10hyperlight9generated21return_type_generatedNtB4_10ReturnTypeNtNtCs649FzoMgw5V_4core3fmt5Debug3fmt
FNDA:0,_RNvXs2_NtNtNtNtCs5hCjilINUCv_17hyperlight_common11flatbuffers10hyperlight9generated21return_type_generatedNtB5_10ReturnTypeNtNtCsdyFvlONsh1u_11flatbuffers13endian_scalar12EndianScalar16to_little_endianBd_
FNDA:0,_RNvXs2_NtNtNtNtCs5hCjilINUCv_17hyperlight_common11flatbuffers10hyperlight9generated21return_type_generatedNtB5_10ReturnTypeNtNtCsdyFvlONsh1u_11flatbuffers13endian_scalar12EndianScalar18from_little_endianBd_
FNDA:0,_RNvMNtNtNtNtCs5hCjilINUCv_17hyperlight_common11flatbuffers10hyperlight9generated21return_type_generatedNtB2_10ReturnType12variant_name
FNDA:3,_RNvXs0_NtNtNtNtCs5hCjilINUCv_17hyperlight_common11flatbuffers10hyperlight9generated21return_type_generatedNtB5_10ReturnTypeNtNtCsdyFvlONsh1u_11flatbuffers6follow6Follow6followBd_
FNDA:6,_RNvXs1_NtNtNtNtCs5hCjilINUCv_17hyperlight_common11flatbuffers10hyperlight9generated21return_type_generatedNtB5_10ReturnTypeNtNtCsdyFvlONsh1u_11flatbuffers4push4Push4pushBd_
FNDA:3,_RNvXs3_NtNtNtNtCs5hCjilINUCv_17hyperlight_common11flatbuffers10hyperlight9generated21return_type_generatedNtB5_10ReturnTypeNtNtCsdyFvlONsh1u_11flatbuffers8verifier10Verifiable12run_verifierBd_
FNDA:0,_RNvXs_NtNtNtNtCs5hCjilINUCv_17hyperlight_common11flatbuffers10hyperlight9generated21return_type_generatedNtB4_10ReturnTypeNtNtCs649FzoMgw5V_4core3fmt5Debug3fmt
FNF:7
FNH:3
DA:72,0
DA:73,0
DA:74,0
DA:75,0
DA:76,0
DA:77,0
DA:78,0
DA:79,0
DA:80,0
DA:81,0
DA:82,0
DA:83,0
DA:84,0
DA:86,0
DA:89,0
DA:90,0
DA:91,0
DA:93,0
DA:95,0
DA:100,3
DA:101,3
DA:102,3
DA:103,3
DA:109,6
DA:110,6
DA:111,6
DA:117,0
DA:118,0
DA:119,0
DA:122,0
DA:123,0
DA:124,0
DA:125,0
DA:130,3
DA:131,3
DA:132,3
DA:133,3
DA:135,3
DA:136,3
BRF:0
BRH:0
LF:39
LH:13
end_of_record
SF:/home/runner/work/hyperlight/hyperlight/src/hyperlight_common/src/flatbuffers/hyperlight/generated/return_value_generated.rs
FN:121,_RNvXs2_NtNtNtNtCs5hCjilINUCv_17hyperlight_common11flatbuffers10hyperlight9generated22return_value_generatedNtB5_11ReturnValueNtNtCsdyFvlONsh1u_11flatbuffers13endian_scalar12EndianScalar16to_little_endianBd_
FN:126,_RNvXs2_NtNtNtNtCs5hCjilINUCv_17hyperlight_common11flatbuffers10hyperlight9generated22return_value_generatedNtB5_11ReturnValueNtNtCsdyFvlONsh1u_11flatbuffers13endian_scalar12EndianScalar18from_little_endianBd_
FN:75,_RNvMNtNtNtNtCs5hCjilINUCv_17hyperlight_common11flatbuffers10hyperlight9generated22return_value_generatedNtB2_11ReturnValue12variant_name
FN:104,_RNvXs0_NtNtNtNtCs5hCjilINUCv_17hyperlight_common11flatbuffers10hyperlight9generated22return_value_generatedNtB5_11ReturnValueNtNtCsdyFvlONsh1u_11flatbuffers6follow6Follow6followBd_
FN:113,_RNvXs1_NtNtNtNtCs5hCjilINUCv_17hyperlight_common11flatbuffers10hyperlight9generated22return_value_generatedNtB5_11ReturnValueNtNtCsdyFvlONsh1u_11flatbuffers4push4Push4pushBd_
FN:134,_RNvXs3_NtNtNtNtCs5hCjilINUCv_17hyperlight_common11flatbuffers10hyperlight9generated22return_value_generatedNtB5_11ReturnValueNtNtCsdyFvlONsh1u_11flatbuffers8verifier10Verifiable12run_verifierBd_
FN:93,_RNvXs_NtNtNtNtCs5hCjilINUCv_17hyperlight_common11flatbuffers10hyperlight9generated22return_value_generatedNtB4_11ReturnValueNtNtCs649FzoMgw5V_4core3fmt5Debug3fmt
FNDA:0,_RNvXs2_NtNtNtNtCs5hCjilINUCv_17hyperlight_common11flatbuffers10hyperlight9generated22return_value_generatedNtB5_11ReturnValueNtNtCsdyFvlONsh1u_11flatbuffers13endian_scalar12EndianScalar16to_little_endianBd_
FNDA:0,_RNvXs2_NtNtNtNtCs5hCjilINUCv_17hyperlight_common11flatbuffers10hyperlight9generated22return_value_generatedNtB5_11ReturnValueNtNtCsdyFvlONsh1u_11flatbuffers13endian_scalar12EndianScalar18from_little_endianBd_
FNDA:0,_RNvMNtNtNtNtCs5hCjilINUCv_17hyperlight_common11flatbuffers10hyperlight9generated22return_value_generatedNtB2_11ReturnValue12variant_name
FNDA:0,_RNvXs0_NtNtNtNtCs5hCjilINUCv_17hyperlight_common11flatbuffers10hyperlight9generated22return_value_generatedNtB5_11ReturnValueNtNtCsdyFvlONsh1u_11flatbuffers6follow6Follow6followBd_
FNDA:0,_RNvXs1_NtNtNtNtCs5hCjilINUCv_17hyperlight_common11flatbuffers10hyperlight9generated22return_value_generatedNtB5_11ReturnValueNtNtCsdyFvlONsh1u_11flatbuffers4push4Push4pushBd_
FNDA:0,_RNvXs3_NtNtNtNtCs5hCjilINUCv_17hyperlight_common11flatbuffers10hyperlight9generated22return_value_generatedNtB5_11ReturnValueNtNtCsdyFvlONsh1u_11flatbuffers8verifier10Verifiable12run_verifierBd_
FNDA:0,_RNvXs_NtNtNtNtCs5hCjilINUCv_17hyperlight_common11flatbuffers10hyperlight9generated22return_value_generatedNtB4_11ReturnValueNtNtCs649FzoMgw5V_4core3fmt5Debug3fmt
FNF:7
FNH:0
DA:75,0
DA:76,0
DA:77,0
DA:78,0
DA:79,0
DA:80,0
DA:81,0
DA:82,0
DA:83,0
DA:84,0
DA:85,0
DA:86,0
DA:87,0
DA:88,0
DA:90,0
DA:93,0
DA:94,0
DA:95,0
DA:97,0
DA:99,0
DA:104,0
DA:105,0
DA:106,0
DA:107,0
DA:113,0
DA:114,0
DA:115,0
DA:121,0
DA:122,0
DA:123,0
DA:126,0
DA:127,0
DA:128,0
DA:129,0
DA:134,0
DA:135,0
DA:136,0
DA:137,0
DA:139,0
DA:140,0
BRF:0
BRH:0
LF:40
LH:0
end_of_record
SF:/home/runner/work/hyperlight/hyperlight/src/hyperlight_common/src/outb.rs
FN:55,_RNvXNtCs5hCjilINUCv_17hyperlight_common4outbNtB2_9ExceptionINtNtCs649FzoMgw5V_4core7convert7TryFromhE8try_from
FN:114,_RNvXs_NtCs5hCjilINUCv_17hyperlight_common4outbNtB4_10OutBActionINtNtCs649FzoMgw5V_4core7convert7TryFromtE8try_from
FNDA:0,_RNvXNtCs5hCjilINUCv_17hyperlight_common4outbNtB2_9ExceptionINtNtCs649FzoMgw5V_4core7convert7TryFromhE8try_from
FNDA:0,_RNvXs_NtCs5hCjilINUCv_17hyperlight_common4outbNtB4_10OutBActionINtNtCs649FzoMgw5V_4core7convert7TryFromtE8try_from
FNF:2
FNH:0
DA:55,0
DA:57,0
DA:58,0
DA:59,0
DA:60,0
DA:61,0
DA:62,0
DA:63,0
DA:64,0
DA:65,0
DA:66,0
DA:67,0
DA:68,0
DA:69,0
DA:70,0
DA:71,0
DA:72,0
DA:73,0
DA:74,0
DA:75,0
DA:76,0
DA:77,0
DA:78,0
DA:79,0
DA:80,0
DA:81,0
DA:84,0
DA:85,0
DA:114,0
DA:115,0
DA:116,0
DA:117,0
DA:118,0
DA:119,0
DA:128,0
DA:130,0
BRF:0
BRH:0
LF:36
LH:0
end_of_record
SF:/home/runner/work/hyperlight/hyperlight/src/hyperlight_common/src/resource.rs
FN:73,_RNvMs_NtCs5hCjilINUCv_17hyperlight_common8resourceNtB4_17LentResourceGuard18revoke_nonblocking
FN:88,_RNvXs0_NtCs5hCjilINUCv_17hyperlight_common8resourceNtB5_17LentResourceGuardNtNtNtCs649FzoMgw5V_4core3ops4drop4Drop4drop
FN:118,_RNvMs2_NtCs5hCjilINUCv_17hyperlight_common8resourceINtB5_13ResourceEntrypE4giveB7_
FN:121,_RNvMs2_NtCs5hCjilINUCv_17hyperlight_common8resourceINtB5_13ResourceEntrypE4lendB7_
FN:166,_RNvMs2_NtCs5hCjilINUCv_17hyperlight_common8resourceINtB5_13ResourceEntrypE4takeB7_
FN:132,_RNvMs2_NtCs5hCjilINUCv_17hyperlight_common8resourceINtB5_13ResourceEntrypE6borrowB7_
FN:113,_RNvXININtCs5hCjilINUCv_17hyperlight_common8resources1_0pEINtB5_21BorrowedResourceGuardpENtNtNtCs649FzoMgw5V_4core3ops5deref5Deref5derefB7_
FNDA:0,_RNvMs_NtCs5hCjilINUCv_17hyperlight_common8resourceNtB4_17LentResourceGuard18revoke_nonblocking
FNDA:0,_RNvXs0_NtCs5hCjilINUCv_17hyperlight_common8resourceNtB5_17LentResourceGuardNtNtNtCs649FzoMgw5V_4core3ops4drop4Drop4drop
FNDA:0,_RNvMs2_NtCs5hCjilINUCv_17hyperlight_common8resourceINtB5_13ResourceEntrypE4giveB7_
FNDA:0,_RNvMs2_NtCs5hCjilINUCv_17hyperlight_common8resourceINtB5_13ResourceEntrypE4lendB7_
FNDA:0,_RNvMs2_NtCs5hCjilINUCv_17hyperlight_common8resourceINtB5_13ResourceEntrypE4takeB7_
FNDA:0,_RNvMs2_NtCs5hCjilINUCv_17hyperlight_common8resourceINtB5_13ResourceEntrypE6borrowB7_
FNDA:0,_RNvXININtCs5hCjilINUCv_17hyperlight_common8resources1_0pEINtB5_21BorrowedResourceGuardpENtNtNtCs649FzoMgw5V_4core3ops5deref5Deref5derefB7_
FNF:7
FNH:0
DA:73,0
DA:75,0
DA:76,0
DA:82,0
DA:83,0
DA:84,0
DA:85,0
DA:88,0
DA:89,0
DA:91,0
DA:92,0
DA:93,0
DA:94,0
DA:95,0
DA:96,0
DA:97,0
DA:98,0
DA:99,0
DA:104,0
DA:105,0
DA:113,0
DA:114,0
DA:115,0
DA:118,0
DA:119,0
DA:120,0
DA:121,0
DA:122,0
DA:123,0
DA:124,0
DA:125,0
DA:126,0
DA:127,0
DA:128,0
DA:129,0
DA:130,0
DA:131,0
DA:132,0
DA:133,0
DA:134,0
DA:135,0
DA:136,0
DA:137,0
DA:138,0
DA:139,0
DA:140,0
DA:141,0
DA:142,0
DA:143,0
DA:144,0
DA:145,0
DA:146,0
DA:147,0
DA:148,0
DA:149,0
DA:150,0
DA:151,0
DA:152,0
DA:153,0
DA:154,0
DA:155,0
DA:156,0
DA:157,0
DA:158,0
DA:159,0
DA:161,0
DA:165,0
DA:166,0
DA:167,0
DA:168,0
DA:169,0
DA:171,0
BRF:0
BRH:0
LF:72
LH:0
end_of_record
SF:/home/runner/work/hyperlight/hyperlight/src/hyperlight_component_macro/src/lib.rs
FN:74,_RNCNCNvCs5xvH27WXDiW_26hyperlight_component_macro12host_bindgens0_00B5_
FN:97,_RNCNCNvCs5xvH27WXDiW_26hyperlight_component_macro13guest_bindgens0_00B5_
FN:71,_RNCNvCs5xvH27WXDiW_26hyperlight_component_macro12host_bindgen0B3_
FN:73,_RNCNvCs5xvH27WXDiW_26hyperlight_component_macro12host_bindgens0_0B3_
FN:72,_RNCNvCs5xvH27WXDiW_26hyperlight_component_macro12host_bindgens_0B3_
FN:94,_RNCNvCs5xvH27WXDiW_26hyperlight_component_macro13guest_bindgen0B3_
FN:96,_RNCNvCs5xvH27WXDiW_26hyperlight_component_macro13guest_bindgens0_0B3_
FN:95,_RNCNvCs5xvH27WXDiW_26hyperlight_component_macro13guest_bindgens_0B3_
FN:67,_RNvCs5xvH27WXDiW_26hyperlight_component_macro12host_bindgen
FN:90,_RNvCs5xvH27WXDiW_26hyperlight_component_macro13guest_bindgen
FNDA:1,_RNCNCNvCs5xvH27WXDiW_26hyperlight_component_macro12host_bindgens0_00B5_
FNDA:0,_RNCNCNvCs5xvH27WXDiW_26hyperlight_component_macro13guest_bindgens0_00B5_
FNDA:1,_RNCNvCs5xvH27WXDiW_26hyperlight_component_macro12host_bindgen0B3_
FNDA:1,_RNCNvCs5xvH27WXDiW_26hyperlight_component_macro12host_bindgens0_0B3_
FNDA:0,_RNCNvCs5xvH27WXDiW_26hyperlight_component_macro12host_bindgens_0B3_
FNDA:0,_RNCNvCs5xvH27WXDiW_26hyperlight_component_macro13guest_bindgen0B3_
FNDA:0,_RNCNvCs5xvH27WXDiW_26hyperlight_component_macro13guest_bindgens0_0B3_
FNDA:0,_RNCNvCs5xvH27WXDiW_26hyperlight_component_macro13guest_bindgens_0B3_
FNDA:1,_RNvCs5xvH27WXDiW_26hyperlight_component_macro12host_bindgen
FNDA:0,_RNvCs5xvH27WXDiW_26hyperlight_component_macro13guest_bindgen
FNF:10
FNH:4
DA:67,1
DA:68,1
DA:69,1
DA:70,1
DA:71,1
DA:72,1
DA:73,1
DA:74,1
DA:75,1
DA:76,1
DA:77,1
DA:78,1
DA:79,1
DA:80,1
DA:90,0
DA:91,0
DA:92,0
DA:93,0
DA:94,0
DA:95,0
DA:96,0
DA:97,0
DA:98,0
DA:99,0
DA:100,0
DA:101,0
DA:102,0
DA:103,0
DA:104,0
DA:105,0
DA:106,0
DA:107,0
DA:108,0
DA:109,0
BRF:0
BRH:0
LF:46
LH:19
end_of_record
SF:/home/runner/work/hyperlight/hyperlight/src/hyperlight_component_util/src/component.rs
FN:83,_RINvNtCs6kXspXXDlJP_25hyperlight_component_util9component35read_component_single_exported_typeINtNtNtNtCs649FzoMgw5V_4core4iter7sources7from_fn6FromFnNCNvMNtCsjg9GDVhIAcw_10wasmparser6parserNtB2t_6Parser9parse_all0EECs5xvH27WXDiW_26hyperlight_component_macro
FN:31,_RNvNtCs6kXspXXDlJP_25hyperlight_component_util9component20raw_type_export_type
FN:83,_RINvNtCs6kXspXXDlJP_25hyperlight_component_util9component35read_component_single_exported_typepEB4_
FNDA:1,_RINvNtCs6kXspXXDlJP_25hyperlight_component_util9component35read_component_single_exported_typeINtNtNtNtCs649FzoMgw5V_4core4iter7sources7from_fn6FromFnNCNvMNtCsjg9GDVhIAcw_10wasmparser6parserNtB2t_6Parser9parse_all0EECs5xvH27WXDiW_26hyperlight_component_macro
FNDA:4,_RNvNtCs6kXspXXDlJP_25hyperlight_component_util9component20raw_type_export_type
FNDA:0,_RINvNtCs6kXspXXDlJP_25hyperlight_component_util9component35read_component_single_exported_typepEB4_
FNF:2
FNH:2
DA:31,4
DA:32,4
DA:33,4
DA:34,4
DA:35,0
DA:36,0
DA:37,0
DA:39,0
DA:43,0
DA:44,0
DA:45,0
DA:47,4
DA:48,4
DA:50,0
DA:54,4
DA:83,1
DA:84,1
DA:85,1
DA:86,1
DA:87,1
DA:88,13
DA:89,12
DA:90,1
DA:91,1
DA:92,0
DA:93,1
DA:94,1
DA:95,0
DA:96,1
DA:98,4
DA:99,8
DA:100,4
DA:101,4
DA:102,4
DA:103,4
DA:104,4
DA:105,0
DA:109,4
DA:110,8
DA:111,4
DA:112,0
DA:113,4
DA:114,4
DA:115,4
DA:116,4
DA:117,4
DA:122,0
DA:123,0
DA:124,0
DA:133,0
DA:138,0
DA:149,3
DA:152,1
DA:153,0
DA:154,1
DA:155,1
DA:156,0
DA:159,1
BRF:0
BRH:0
LF:58
LH:39
end_of_record
SF:/home/runner/work/hyperlight/hyperlight/src/hyperlight_component_util/src/elaborate.rs
FN:343,_RNvMs_NtCs6kXspXXDlJP_25hyperlight_component_util9elaborateNtNtB6_6etypes3Ctx10elab_value
FN:309,_RNvMs_NtCs6kXspXXDlJP_25hyperlight_component_util9elaborateNtNtB6_6etypes3Ctx11add_core_ed
FN:693,_RNvMs_NtCs6kXspXXDlJP_25hyperlight_component_util9elaborateNtNtB6_6etypes3Ctx12elab_defined
FN:543,_RNvMs_NtCs6kXspXXDlJP_25hyperlight_component_util9elaborateNtNtB6_6etypes3Ctx13elab_instance
FN:242,_RNvMs_NtCs6kXspXXDlJP_25hyperlight_component_util9elaborateNtNtB6_6etypes3Ctx13resolve_alias
FN:143,_RNvMs_NtCs6kXspXXDlJP_25hyperlight_component_util9elaborateNtNtB6_6etypes3Ctx14elab_component
FN:230,_RNvMs_NtCs6kXspXXDlJP_25hyperlight_component_util9elaborateNtNtB6_6etypes3Ctx14elab_core_type
FN:586,_RNvMs_NtCs6kXspXXDlJP_25hyperlight_component_util9elaborateNtNtB6_6etypes3Ctx15finish_instance
FN:204,_RNvMs_NtCs6kXspXXDlJP_25hyperlight_component_util9elaborateNtNtB6_6etypes3Ctx16elab_core_module
FN:465,_RNvMs_NtCs6kXspXXDlJP_25hyperlight_component_util9elaborateNtNtB6_6etypes3Ctx16elab_extern_desc
FN:659,_RNvMs_NtCs6kXspXXDlJP_25hyperlight_component_util9elaborateNtNtB6_6etypes3Ctx16finish_component
FN:223,_RNvMs_NtCs6kXspXXDlJP_25hyperlight_component_util9elaborateNtNtB6_6etypes3Ctx18elab_core_type_rec
FN:374,_RNvMs_NtCs6kXspXXDlJP_25hyperlight_component_util9elaborateNtNtB6_6etypes3Ctx18elab_defined_value
FN:507,_RNvMs_NtCs6kXspXXDlJP_25hyperlight_component_util9elaborateNtNtB6_6etypes3Ctx18elab_instance_decl
FN:605,_RNvMs_NtCs6kXspXXDlJP_25hyperlight_component_util9elaborateNtNtB6_6etypes3Ctx19elab_component_decl
FN:162,_RNvMs_NtCs6kXspXXDlJP_25hyperlight_component_util9elaborateNtNtB6_6etypes3Ctx21elab_core_module_decl
FN:563,_RNvMs_NtCs6kXspXXDlJP_25hyperlight_component_util9elaborateNtNtB6_6etypes3Ctx21finish_instance_evars
FN:336,_RNvMs_NtCs6kXspXXDlJP_25hyperlight_component_util9elaborateNtNtB6_6etypes3Ctx24add_core_or_component_ed
FN:326,_RNvMs_NtCs6kXspXXDlJP_25hyperlight_component_util9elaborateNtNtB6_6etypes3Ctx6add_ed
FN:441,_RNvMs_NtCs6kXspXXDlJP_25hyperlight_component_util9elaborateNtNtB6_6etypes3Ctx9elab_func
FN:400,_RNCNCNvMs_NtCs6kXspXXDlJP_25hyperlight_component_util9elaborateNtNtBa_6etypes3Ctx18elab_defined_values_00Ba_
FN:256,_RNCNvMs_NtCs6kXspXXDlJP_25hyperlight_component_util9elaborateNtNtB8_6etypes3Ctx13resolve_alias0B8_
FN:272,_RNCNvMs_NtCs6kXspXXDlJP_25hyperlight_component_util9elaborateNtNtB8_6etypes3Ctx13resolve_aliass_0B8_
FN:679,_RNCNvMs_NtCs6kXspXXDlJP_25hyperlight_component_util9elaborateNtNtB8_6etypes3Ctx16finish_component0B8_
FN:385,_RNCNvMs_NtCs6kXspXXDlJP_25hyperlight_component_util9elaborateNtNtB8_6etypes3Ctx18elab_defined_value0B8_
FN:410,_RNCNvMs_NtCs6kXspXXDlJP_25hyperlight_component_util9elaborateNtNtB8_6etypes3Ctx18elab_defined_values0_0B8_
FN:414,_RNCNvMs_NtCs6kXspXXDlJP_25hyperlight_component_util9elaborateNtNtB8_6etypes3Ctx18elab_defined_values1_0B8_
FN:417,_RNCNvMs_NtCs6kXspXXDlJP_25hyperlight_component_util9elaborateNtNtB8_6etypes3Ctx18elab_defined_values2_0B8_
FN:421,_RNCNvMs_NtCs6kXspXXDlJP_25hyperlight_component_util9elaborateNtNtB8_6etypes3Ctx18elab_defined_values3_0B8_
FN:422,_RNCNvMs_NtCs6kXspXXDlJP_25hyperlight_component_util9elaborateNtNtB8_6etypes3Ctx18elab_defined_values4_0B8_
FN:397,_RNCNvMs_NtCs6kXspXXDlJP_25hyperlight_component_util9elaborateNtNtB8_6etypes3Ctx18elab_defined_values_0B8_
FN:446,_RNCNvMs_NtCs6kXspXXDlJP_25hyperlight_component_util9elaborateNtNtB8_6etypes3Ctx9elab_func0B8_
FN:456,_RNCNvMs_NtCs6kXspXXDlJP_25hyperlight_component_util9elaborateNtNtB8_6etypes3Ctx9elab_funcs_0B8_
FN:133,_RNvXNtCs6kXspXXDlJP_25hyperlight_component_util9elaborateNtB2_5ErrorINtNtCs649FzoMgw5V_4core7convert4FromNtNtB4_10substitute12ClosingErrorE4from
FN:62,_RNvNtNtCs6kXspXXDlJP_25hyperlight_component_util9elaborate17basic_conversions13external_kind
FN:72,_RNvNtNtCs6kXspXXDlJP_25hyperlight_component_util9elaborate17basic_conversions15sort_matches_ed
FN:52,_RNvNtNtCs6kXspXXDlJP_25hyperlight_component_util9elaborate17basic_conversions20sort_matches_core_ed
FN:83,_RNvNtNtCs6kXspXXDlJP_25hyperlight_component_util9elaborate17basic_conversions23component_external_kind
FNDA:312,_RNvMs_NtCs6kXspXXDlJP_25hyperlight_component_util9elaborateNtNtB6_6etypes3Ctx10elab_value
FNDA:0,_RNvMs_NtCs6kXspXXDlJP_25hyperlight_component_util9elaborateNtNtB6_6etypes3Ctx11add_core_ed
FNDA:205,_RNvMs_NtCs6kXspXXDlJP_25hyperlight_component_util9elaborateNtNtB6_6etypes3Ctx12elab_defined
FNDA:7,_RNvMs_NtCs6kXspXXDlJP_25hyperlight_component_util9elaborateNtNtB6_6etypes3Ctx13elab_instance
FNDA:0,_RNvMs_NtCs6kXspXXDlJP_25hyperlight_component_util9elaborateNtNtB6_6etypes3Ctx13resolve_alias
FNDA:5,_RNvMs_NtCs6kXspXXDlJP_25hyperlight_component_util9elaborateNtNtB6_6etypes3Ctx14elab_component
FNDA:0,_RNvMs_NtCs6kXspXXDlJP_25hyperlight_component_util9elaborateNtNtB6_6etypes3Ctx14elab_core_type
FNDA:7,_RNvMs_NtCs6kXspXXDlJP_25hyperlight_component_util9elaborateNtNtB6_6etypes3Ctx15finish_instance
FNDA:0,_RNvMs_NtCs6kXspXXDlJP_25hyperlight_component_util9elaborateNtNtB6_6etypes3Ctx16elab_core_module
FNDA:146,_RNvMs_NtCs6kXspXXDlJP_25hyperlight_component_util9elaborateNtNtB6_6etypes3Ctx16elab_extern_desc
FNDA:5,_RNvMs_NtCs6kXspXXDlJP_25hyperlight_component_util9elaborateNtNtB6_6etypes3Ctx16finish_component
FNDA:0,_RNvMs_NtCs6kXspXXDlJP_25hyperlight_component_util9elaborateNtNtB6_6etypes3Ctx18elab_core_type_rec
FNDA:76,_RNvMs_NtCs6kXspXXDlJP_25hyperlight_component_util9elaborateNtNtB6_6etypes3Ctx18elab_defined_value
FNDA:335,_RNvMs_NtCs6kXspXXDlJP_25hyperlight_component_util9elaborateNtNtB6_6etypes3Ctx18elab_instance_decl
FNDA:16,_RNvMs_NtCs6kXspXXDlJP_25hyperlight_component_util9elaborateNtNtB6_6etypes3Ctx19elab_component_decl
FNDA:0,_RNvMs_NtCs6kXspXXDlJP_25hyperlight_component_util9elaborateNtNtB6_6etypes3Ctx21elab_core_module_decl
FNDA:12,_RNvMs_NtCs6kXspXXDlJP_25hyperlight_component_util9elaborateNtNtB6_6etypes3Ctx21finish_instance_evars
FNDA:0,_RNvMs_NtCs6kXspXXDlJP_25hyperlight_component_util9elaborateNtNtB6_6etypes3Ctx24add_core_or_component_ed
FNDA:146,_RNvMs_NtCs6kXspXXDlJP_25hyperlight_component_util9elaborateNtNtB6_6etypes3Ctx6add_ed
FNDA:121,_RNvMs_NtCs6kXspXXDlJP_25hyperlight_component_util9elaborateNtNtB6_6etypes3Ctx9elab_func
FNDA:6,_RNCNCNvMs_NtCs6kXspXXDlJP_25hyperlight_component_util9elaborateNtNtBa_6etypes3Ctx18elab_defined_values_00Ba_
FNDA:0,_RNCNvMs_NtCs6kXspXXDlJP_25hyperlight_component_util9elaborateNtNtB8_6etypes3Ctx13resolve_alias0B8_
FNDA:0,_RNCNvMs_NtCs6kXspXXDlJP_25hyperlight_component_util9elaborateNtNtB8_6etypes3Ctx13resolve_aliass_0B8_
FNDA:2,_RNCNvMs_NtCs6kXspXXDlJP_25hyperlight_component_util9elaborateNtNtB8_6etypes3Ctx16finish_component0B8_
FNDA:6,_RNCNvMs_NtCs6kXspXXDlJP_25hyperlight_component_util9elaborateNtNtB8_6etypes3Ctx18elab_defined_value0B8_
FNDA:6,_RNCNvMs_NtCs6kXspXXDlJP_25hyperlight_component_util9elaborateNtNtB8_6etypes3Ctx18elab_defined_values0_0B8_
FNDA:105,_RNCNvMs_NtCs6kXspXXDlJP_25hyperlight_component_util9elaborateNtNtB8_6etypes3Ctx18elab_defined_values1_0B8_
FNDA:9,_RNCNvMs_NtCs6kXspXXDlJP_25hyperlight_component_util9elaborateNtNtB8_6etypes3Ctx18elab_defined_values2_0B8_
FNDA:3,_RNCNvMs_NtCs6kXspXXDlJP_25hyperlight_component_util9elaborateNtNtB8_6etypes3Ctx18elab_defined_values3_0B8_
FNDA:3,_RNCNvMs_NtCs6kXspXXDlJP_25hyperlight_component_util9elaborateNtNtB8_6etypes3Ctx18elab_defined_values4_0B8_
FNDA:9,_RNCNvMs_NtCs6kXspXXDlJP_25hyperlight_component_util9elaborateNtNtB8_6etypes3Ctx18elab_defined_values_0B8_
FNDA:123,_RNCNvMs_NtCs6kXspXXDlJP_25hyperlight_component_util9elaborateNtNtB8_6etypes3Ctx9elab_func0B8_
FNDA:114,_RNCNvMs_NtCs6kXspXXDlJP_25hyperlight_component_util9elaborateNtNtB8_6etypes3Ctx9elab_funcs_0B8_
FNDA:0,_RNvXNtCs6kXspXXDlJP_25hyperlight_component_util9elaborateNtB2_5ErrorINtNtCs649FzoMgw5V_4core7convert4FromNtNtB4_10substitute12ClosingErrorE4from
FNDA:0,_RNvNtNtCs6kXspXXDlJP_25hyperlight_component_util9elaborate17basic_conversions13external_kind
FNDA:0,_RNvNtNtCs6kXspXXDlJP_25hyperlight_component_util9elaborate17basic_conversions15sort_matches_ed
FNDA:0,_RNvNtNtCs6kXspXXDlJP_25hyperlight_component_util9elaborate17basic_conversions20sort_matches_core_ed
FNDA:0,_RNvNtNtCs6kXspXXDlJP_25hyperlight_component_util9elaborate17basic_conversions23component_external_kind
FNF:38
FNH:24
DA:52,0
DA:53,0
DA:54,0
DA:55,0
DA:56,0
DA:57,0
DA:58,0
DA:60,0
DA:62,0
DA:63,0
DA:64,0
DA:65,0
DA:66,0
DA:67,0
DA:68,0
DA:70,0
DA:72,0
DA:73,0
DA:74,0
DA:75,0
DA:76,0
DA:77,0
DA:78,0
DA:79,0
DA:81,0
DA:83,0
DA:84,0
DA:85,0
DA:86,0
DA:87,0
DA:88,0
DA:89,0
DA:90,0
DA:92,0
DA:133,0
DA:134,0
DA:135,0
DA:143,5
DA:144,5
DA:145,5
DA:146,5
DA:147,5
DA:148,5
DA:149,5
DA:150,21
DA:151,16
DA:152,16
DA:153,2
DA:154,14
DA:155,16
DA:156,6
DA:157,10
DA:159,5
DA:160,5
DA:162,0
DA:163,0
DA:164,0
DA:165,0
DA:166,0
DA:167,0
DA:168,0
DA:169,0
DA:170,0
DA:171,0
DA:175,0
DA:176,0
DA:177,0
DA:178,0
DA:179,0
DA:180,0
DA:181,0
DA:183,0
DA:184,0
DA:185,0
DA:186,0
DA:187,0
DA:188,0
DA:189,0
DA:190,0
DA:191,0
DA:192,0
DA:194,0
DA:195,0
DA:196,0
DA:197,0
DA:202,0
DA:204,0
DA:205,0
DA:206,0
DA:207,0
DA:208,0
DA:209,0
DA:210,0
DA:211,0
DA:212,0
DA:213,0
DA:214,0
DA:215,0
DA:217,0
DA:218,0
DA:219,0
DA:220,0
DA:221,0
DA:223,0
DA:224,0
DA:225,0
DA:226,0
DA:228,0
DA:230,0
DA:231,0
DA:232,0
DA:233,0
DA:235,0
DA:242,0
DA:243,0
DA:244,0
DA:245,0
DA:246,0
DA:248,0
DA:249,0
DA:250,0
DA:251,0
DA:252,0
DA:253,0
DA:254,0
DA:255,0
DA:256,0
DA:257,0
DA:258,0
DA:259,0
DA:260,0
DA:261,0
DA:264,0
DA:265,0
DA:266,0
DA:267,0
DA:268,0
DA:269,0
DA:270,0
DA:271,0
DA:272,0
DA:273,0
DA:274,0
DA:275,0
DA:276,0
DA:277,0
DA:279,0
DA:280,0
DA:281,0
DA:282,0
DA:283,0
DA:284,0
DA:285,0
DA:286,0
DA:287,0
DA:288,0
DA:289,0
DA:290,0
DA:291,0
DA:292,0
DA:293,0
DA:294,0
DA:296,0
DA:297,0
DA:298,0
DA:299,0
DA:300,0
DA:301,0
DA:302,0
DA:305,0
DA:309,0
DA:310,0
DA:311,0
DA:312,0
DA:313,0
DA:314,0
DA:316,0
DA:326,146
DA:327,146
DA:328,0
DA:329,121
DA:330,17
DA:331,7
DA:332,1
DA:334,146
DA:336,0
DA:337,0
DA:338,0
DA:339,0
DA:341,0
DA:343,312
DA:344,312
DA:345,154
DA:346,124
DA:347,30
DA:348,30
DA:349,30
DA:351,0
DA:353,0
DA:355,158
DA:356,8
DA:357,9
DA:358,18
DA:359,9
DA:360,6
DA:361,9
DA:362,12
DA:363,9
DA:364,15
DA:365,9
DA:366,9
DA:367,16
DA:368,29
DA:369,0
DA:372,312
DA:374,76
DA:375,76
DA:376,76
DA:377,76
DA:378,76
DA:379,0
DA:380,0
DA:382,3
DA:383,3
DA:384,3
DA:385,6
DA:386,6
DA:387,6
DA:388,6
DA:390,6
DA:391,3
DA:392,3
DA:394,3
DA:395,3
DA:396,3
DA:397,9
DA:398,9
DA:399,9
DA:400,9
DA:401,9
DA:403,9
DA:404,3
DA:405,3
DA:407,6
DA:408,3
DA:409,3
DA:410,6
DA:411,3
DA:413,6
DA:414,105
DA:416,3
DA:417,9
DA:419,3
DA:420,3
DA:421,3
DA:422,3
DA:424,2
DA:425,2
DA:426,0
DA:428,2
DA:429,2
DA:430,0
DA:432,42
DA:433,42
DA:436,0
DA:439,76
DA:441,121
DA:442,121
DA:443,121
DA:444,121
DA:445,121
DA:446,123
DA:447,123
DA:448,123
DA:449,123
DA:451,123
DA:452,121
DA:453,121
DA:454,121
DA:455,121
DA:456,121
DA:457,121
DA:459,121
DA:465,146
DA:466,146
DA:467,146
DA:468,146
DA:469,146
DA:470,0
DA:471,0
DA:473,0
DA:476,121
DA:477,121
DA:478,0
DA:480,0
DA:481,17
DA:482,17
DA:483,15
DA:484,2
DA:486,17
DA:487,17
DA:489,7
DA:490,7
DA:491,7
DA:492,7
DA:493,7
DA:494,0
DA:495,0
DA:496,0
DA:498,1
DA:499,1
DA:500,0
DA:501,0
DA:502,0
DA:505,146
DA:507,335
DA:508,335
DA:509,335
DA:510,335
DA:511,335
DA:512,0
DA:513,0
DA:514,0
DA:515,0
DA:517,197
DA:518,197
DA:519,197
DA:520,0
DA:521,197
DA:522,197
DA:523,197
DA:525,0
DA:526,0
DA:527,0
DA:528,0
DA:530,138
DA:531,138
DA:532,138
DA:533,138
DA:534,138
DA:535,138
DA:536,138
DA:537,138
DA:538,138
DA:541,335
DA:543,7
DA:544,7
DA:545,7
DA:546,7
DA:547,7
DA:548,7
DA:549,342
DA:550,335
DA:551,335
DA:552,138
DA:553,197
DA:555,7
DA:556,7
DA:563,12
DA:564,12
DA:565,12
DA:566,12
DA:567,12
DA:568,12
DA:569,40
DA:570,28
DA:571,28
DA:572,28
DA:574,12
DA:575,12
DA:576,12
DA:577,12
DA:578,12
DA:586,7
DA:587,7
DA:588,7
DA:589,7
DA:590,7
DA:591,7
DA:592,7
DA:593,7
DA:594,7
DA:596,7
DA:597,7
DA:598,7
DA:599,7
DA:600,7
DA:601,7
DA:602,7
DA:603,7
DA:605,16
DA:606,16
DA:607,16
DA:608,16
DA:609,16
DA:610,0
DA:611,0
DA:612,0
DA:613,0
DA:615,8
DA:616,8
DA:617,8
DA:618,0
DA:619,8
DA:620,8
DA:621,8
DA:623,0
DA:624,0
DA:625,0
DA:626,0
DA:628,6
DA:629,6
DA:630,6
DA:631,6
DA:632,6
DA:633,6
DA:634,6
DA:635,6
DA:636,6
DA:637,6
DA:638,6
DA:639,6
DA:641,2
DA:642,2
DA:643,2
DA:644,2
DA:645,2
DA:646,2
DA:647,2
DA:648,2
DA:649,2
DA:650,2
DA:651,2
DA:652,2
DA:655,16
DA:659,5
DA:660,5
DA:661,5
DA:662,5
DA:663,5
DA:664,5
DA:665,5
DA:666,5
DA:667,5
DA:668,5
DA:669,5
DA:670,5
DA:671,5
DA:672,11
DA:673,6
DA:674,6
DA:675,6
DA:677,5
DA:678,5
DA:679,5
DA:680,5
DA:681,5
DA:682,5
DA:683,5
DA:684,5
DA:685,5
DA:686,5
DA:687,5
DA:688,5
DA:689,5
DA:690,5
DA:691,5
DA:693,205
DA:694,205
DA:695,76
DA:696,121
DA:697,1
DA:698,7
DA:699,0
DA:700,0
DA:701,0
DA:702,0
DA:703,0
DA:704,0
DA:707,205
BRF:0
BRH:0
LF:496
LH:285
end_of_record
SF:/home/runner/work/hyperlight/hyperlight/src/hyperlight_component_util/src/emit.rs
FN:268,_RINvNtCs6kXspXXDlJP_25hyperlight_component_util4emit9run_stateNCNCNvCs5xvH27WXDiW_26hyperlight_component_macro12host_bindgens0_00EB14_
FN:268,_RINvNtCs6kXspXXDlJP_25hyperlight_component_util4emit9run_stateNCNCNvCs5xvH27WXDiW_26hyperlight_component_macro13guest_bindgens0_00EB14_
FN:268,_RINvNtCs6kXspXXDlJP_25hyperlight_component_util4emit9run_statepEB4_
FN:579,_RNCNCNvMs0_NtCs6kXspXXDlJP_25hyperlight_component_util4emitNtB9_5State11adjust_vars00Bb_
FN:106,_RNCNvMNtCs6kXspXXDlJP_25hyperlight_component_util4emitNtB4_5Trait11into_tokens0B6_
FN:75,_RNCNvMNtCs6kXspXXDlJP_25hyperlight_component_util4emitNtB4_5Trait13tv_toks_inner0B6_
FN:59,_RNCNvMNtCs6kXspXXDlJP_25hyperlight_component_util4emitNtB4_5Trait7tv_idxs0B6_
FN:578,_RNCNvMs0_NtCs6kXspXXDlJP_25hyperlight_component_util4emitNtB7_5State11adjust_vars0B9_
FN:380,_RNCNvMs0_NtCs6kXspXXDlJP_25hyperlight_component_util4emitNtB7_5State13need_noff_var0B9_
FN:549,_RNCNvMs0_NtCs6kXspXXDlJP_25hyperlight_component_util4emitNtB7_5State17is_noff_var_local0B9_
FN:435,_RNCNvMs0_NtCs6kXspXXDlJP_25hyperlight_component_util4emitNtB7_5State9root_path0B9_
FN:629,_RNCNvMs1_NtCs6kXspXXDlJP_25hyperlight_component_util4emitNtB7_7WitName16namespace_idents0B9_
FN:170,_RNCNvMs_NtCs6kXspXXDlJP_25hyperlight_component_util4emitNtB6_3Mod11adjust_vars0B8_
FN:174,_RNCNvMs_NtCs6kXspXXDlJP_25hyperlight_component_util4emitNtB6_3Mod11adjust_varss_0B8_
FN:62,_RNvMNtCs6kXspXXDlJP_25hyperlight_component_util4emitNtB2_5Trait11adjust_vars
FN:97,_RNvMNtCs6kXspXXDlJP_25hyperlight_component_util4emitNtB2_5Trait11into_tokens
FN:71,_RNvMNtCs6kXspXXDlJP_25hyperlight_component_util4emitNtB2_5Trait13tv_toks_inner
FN:46,_RNvMNtCs6kXspXXDlJP_25hyperlight_component_util4emitNtB2_5Trait3new
FN:58,_RNvMNtCs6kXspXXDlJP_25hyperlight_component_util4emitNtB2_5Trait7tv_idxs
FN:88,_RNvMNtCs6kXspXXDlJP_25hyperlight_component_util4emitNtB2_5Trait7tv_toks
FN:591,_RNvMs0_NtCs6kXspXXDlJP_25hyperlight_component_util4emitNtB5_5State10resolve_tv
FN:574,_RNvMs0_NtCs6kXspXXDlJP_25hyperlight_component_util4emitNtB5_5State11adjust_vars
FN:444,_RNvMs0_NtCs6kXspXXDlJP_25hyperlight_component_util4emitNtB5_5State11helper_path
FN:523,_RNvMs0_NtCs6kXspXXDlJP_25hyperlight_component_util4emitNtB5_5State11is_var_defn
FN:413,_RNvMs0_NtCs6kXspXXDlJP_25hyperlight_component_util4emitNtB5_5State11noff_var_id
FN:511,_RNvMs0_NtCs6kXspXXDlJP_25hyperlight_component_util4emitNtB5_5State11push_origin
FN:364,_RNvMs0_NtCs6kXspXXDlJP_25hyperlight_component_util4emitNtB5_5State11with_cursor
FN:352,_RNvMs0_NtCs6kXspXXDlJP_25hyperlight_component_util4emitNtB5_5State13cur_mod_immut
FN:379,_RNvMs0_NtCs6kXspXXDlJP_25hyperlight_component_util4emitNtB5_5State13need_noff_var
FN:463,_RNvMs0_NtCs6kXspXXDlJP_25hyperlight_component_util4emitNtB5_5State14cur_trait_path
FN:495,_RNvMs0_NtCs6kXspXXDlJP_25hyperlight_component_util4emitNtB5_5State15cur_trait_immut
FN:372,_RNvMs0_NtCs6kXspXXDlJP_25hyperlight_component_util4emitNtB5_5State15with_needs_vars
FN:398,_RNvMs0_NtCs6kXspXXDlJP_25hyperlight_component_util4emitNtB5_5State17get_noff_var_refs
FN:542,_RNvMs0_NtCs6kXspXXDlJP_25hyperlight_component_util4emitNtB5_5State17is_noff_var_local
FN:385,_RNvMs0_NtCs6kXspXXDlJP_25hyperlight_component_util4emitNtB5_5State17record_needs_vars
FN:556,_RNvMs0_NtCs6kXspXXDlJP_25hyperlight_component_util4emitNtB5_5State19resolve_trait_immut
FN:602,_RNvMs0_NtCs6kXspXXDlJP_25hyperlight_component_util4emitNtB5_5State19resource_trait_path
FN:471,_RNvMs0_NtCs6kXspXXDlJP_25hyperlight_component_util4emitNtB5_5State21add_helper_supertrait
FN:290,_RNvMs0_NtCs6kXspXXDlJP_25hyperlight_component_util4emitNtB5_5State3new
FN:316,_RNvMs0_NtCs6kXspXXDlJP_25hyperlight_component_util4emitNtB5_5State5clone
FN:502,_RNvMs0_NtCs6kXspXXDlJP_25hyperlight_component_util4emitNtB5_5State5trait
FN:421,_RNvMs0_NtCs6kXspXXDlJP_25hyperlight_component_util4emitNtB5_5State6helper
FN:338,_RNvMs0_NtCs6kXspXXDlJP_25hyperlight_component_util4emitNtB5_5State7cur_mod
FN:485,_RNvMs0_NtCs6kXspXXDlJP_25hyperlight_component_util4emitNtB5_5State9cur_trait
FN:428,_RNvMs0_NtCs6kXspXXDlJP_25hyperlight_component_util4emitNtB5_5State9root_path
FN:634,_RNvMs1_NtCs6kXspXXDlJP_25hyperlight_component_util4emitNtB5_7WitName14namespace_path
FN:626,_RNvMs1_NtCs6kXspXXDlJP_25hyperlight_component_util4emitNtB5_7WitName16namespace_idents
FN:167,_RNvMs_NtCs6kXspXXDlJP_25hyperlight_component_util4emitNtB4_3Mod11adjust_vars
FN:178,_RNvMs_NtCs6kXspXXDlJP_25hyperlight_component_util4emitNtB4_3Mod11into_tokens
FN:155,_RNvMs_NtCs6kXspXXDlJP_25hyperlight_component_util4emitNtB4_3Mod11trait_immut
FN:144,_RNvMs_NtCs6kXspXXDlJP_25hyperlight_component_util4emitNtB4_3Mod12submod_immut
FN:163,_RNvMs_NtCs6kXspXXDlJP_25hyperlight_component_util4emitNtB4_3Mod4impl
FN:129,_RNvMs_NtCs6kXspXXDlJP_25hyperlight_component_util4emitNtB4_3Mod5empty
FN:149,_RNvMs_NtCs6kXspXXDlJP_25hyperlight_component_util4emitNtB4_3Mod5trait
FN:138,_RNvMs_NtCs6kXspXXDlJP_25hyperlight_component_util4emitNtB4_3Mod6submod
FN:739,_RNvNtCs6kXspXXDlJP_25hyperlight_component_util4emit11kebab_to_fn
FN:691,_RNvNtCs6kXspXXDlJP_25hyperlight_component_util4emit12kebab_to_var
FN:696,_RNvNtCs6kXspXXDlJP_25hyperlight_component_util4emit13kebab_to_cons
FN:705,_RNvNtCs6kXspXXDlJP_25hyperlight_component_util4emit13kebab_to_type
FN:671,_RNvNtCs6kXspXXDlJP_25hyperlight_component_util4emit14kebab_to_camel
FN:656,_RNvNtCs6kXspXXDlJP_25hyperlight_component_util4emit14kebab_to_snake
FN:640,_RNvNtCs6kXspXXDlJP_25hyperlight_component_util4emit14split_wit_name
FN:701,_RNvNtCs6kXspXXDlJP_25hyperlight_component_util4emit15kebab_to_getter
FN:710,_RNvNtCs6kXspXXDlJP_25hyperlight_component_util4emit18kebab_to_namespace
FN:720,_RNvNtCs6kXspXXDlJP_25hyperlight_component_util4emit21kebab_to_exports_name
FN:715,_RNvNtCs6kXspXXDlJP_25hyperlight_component_util4emit21kebab_to_imports_name
FNDA:1,_RINvNtCs6kXspXXDlJP_25hyperlight_component_util4emit9run_stateNCNCNvCs5xvH27WXDiW_26hyperlight_component_macro12host_bindgens0_00EB14_
FNDA:0,_RINvNtCs6kXspXXDlJP_25hyperlight_component_util4emit9run_stateNCNCNvCs5xvH27WXDiW_26hyperlight_component_macro13guest_bindgens0_00EB14_
FNDA:0,_RINvNtCs6kXspXXDlJP_25hyperlight_component_util4emit9run_statepEB4_
FNDA:0,_RNCNCNvMs0_NtCs6kXspXXDlJP_25hyperlight_component_util4emitNtB9_5State11adjust_vars00Bb_
FNDA:1,_RNCNvMNtCs6kXspXXDlJP_25hyperlight_component_util4emitNtB4_5Trait11into_tokens0B6_
FNDA:1,_RNCNvMNtCs6kXspXXDlJP_25hyperlight_component_util4emitNtB4_5Trait13tv_toks_inner0B6_
FNDA:0,_RNCNvMNtCs6kXspXXDlJP_25hyperlight_component_util4emitNtB4_5Trait7tv_idxs0B6_
FNDA:6,_RNCNvMs0_NtCs6kXspXXDlJP_25hyperlight_component_util4emitNtB7_5State11adjust_vars0B9_
FNDA:0,_RNCNvMs0_NtCs6kXspXXDlJP_25hyperlight_component_util4emitNtB7_5State13need_noff_var0B9_
FNDA:45,_RNCNvMs0_NtCs6kXspXXDlJP_25hyperlight_component_util4emitNtB7_5State17is_noff_var_local0B9_
FNDA:8,_RNCNvMs0_NtCs6kXspXXDlJP_25hyperlight_component_util4emitNtB7_5State9root_path0B9_
FNDA:110,_RNCNvMs1_NtCs6kXspXXDlJP_25hyperlight_component_util4emitNtB7_7WitName16namespace_idents0B9_
FNDA:4,_RNCNvMs_NtCs6kXspXXDlJP_25hyperlight_component_util4emitNtB6_3Mod11adjust_vars0B8_
FNDA:4,_RNCNvMs_NtCs6kXspXXDlJP_25hyperlight_component_util4emitNtB6_3Mod11adjust_varss_0B8_
FNDA:4,_RNvMNtCs6kXspXXDlJP_25hyperlight_component_util4emitNtB2_5Trait11adjust_vars
FNDA:6,_RNvMNtCs6kXspXXDlJP_25hyperlight_component_util4emitNtB2_5Trait11into_tokens
FNDA:1,_RNvMNtCs6kXspXXDlJP_25hyperlight_component_util4emitNtB2_5Trait13tv_toks_inner
FNDA:0,_RNvMNtCs6kXspXXDlJP_25hyperlight_component_util4emitNtB2_5Trait3new
FNDA:5,_RNvMNtCs6kXspXXDlJP_25hyperlight_component_util4emitNtB2_5Trait7tv_idxs
FNDA:6,_RNvMNtCs6kXspXXDlJP_25hyperlight_component_util4emitNtB2_5Trait7tv_toks
FNDA:20,_RNvMs0_NtCs6kXspXXDlJP_25hyperlight_component_util4emitNtB5_5State10resolve_tv
FNDA:1,_RNvMs0_NtCs6kXspXXDlJP_25hyperlight_component_util4emitNtB5_5State11adjust_vars
FNDA:12,_RNvMs0_NtCs6kXspXXDlJP_25hyperlight_component_util4emitNtB5_5State11helper_path
FNDA:6,_RNvMs0_NtCs6kXspXXDlJP_25hyperlight_component_util4emitNtB5_5State11is_var_defn
FNDA:0,_RNvMs0_NtCs6kXspXXDlJP_25hyperlight_component_util4emitNtB5_5State11noff_var_id
FNDA:52,_RNvMs0_NtCs6kXspXXDlJP_25hyperlight_component_util4emitNtB5_5State11push_origin
FNDA:10,_RNvMs0_NtCs6kXspXXDlJP_25hyperlight_component_util4emitNtB5_5State11with_cursor
FNDA:7,_RNvMs0_NtCs6kXspXXDlJP_25hyperlight_component_util4emitNtB5_5State13cur_mod_immut
FNDA:0,_RNvMs0_NtCs6kXspXXDlJP_25hyperlight_component_util4emitNtB5_5State13need_noff_var
FNDA:43,_RNvMs0_NtCs6kXspXXDlJP_25hyperlight_component_util4emitNtB5_5State14cur_trait_path
FNDA:3,_RNvMs0_NtCs6kXspXXDlJP_25hyperlight_component_util4emitNtB5_5State15cur_trait_immut
FNDA:10,_RNvMs0_NtCs6kXspXXDlJP_25hyperlight_component_util4emitNtB5_5State15with_needs_vars
FNDA:45,_RNvMs0_NtCs6kXspXXDlJP_25hyperlight_component_util4emitNtB5_5State17get_noff_var_refs
FNDA:45,_RNvMs0_NtCs6kXspXXDlJP_25hyperlight_component_util4emitNtB5_5State17is_noff_var_local
FNDA:5,_RNvMs0_NtCs6kXspXXDlJP_25hyperlight_component_util4emitNtB5_5State17record_needs_vars
FNDA:5,_RNvMs0_NtCs6kXspXXDlJP_25hyperlight_component_util4emitNtB5_5State19resolve_trait_immut
FNDA:0,_RNvMs0_NtCs6kXspXXDlJP_25hyperlight_component_util4emitNtB5_5State19resource_trait_path
FNDA:1,_RNvMs0_NtCs6kXspXXDlJP_25hyperlight_component_util4emitNtB5_5State21add_helper_supertrait
FNDA:1,_RNvMs0_NtCs6kXspXXDlJP_25hyperlight_component_util4emitNtB5_5State3new
FNDA:102,_RNvMs0_NtCs6kXspXXDlJP_25hyperlight_component_util4emitNtB5_5State5clone
FNDA:6,_RNvMs0_NtCs6kXspXXDlJP_25hyperlight_component_util4emitNtB5_5State5trait
FNDA:8,_RNvMs0_NtCs6kXspXXDlJP_25hyperlight_component_util4emitNtB5_5State6helper
FNDA:24,_RNvMs0_NtCs6kXspXXDlJP_25hyperlight_component_util4emitNtB5_5State7cur_mod
FNDA:17,_RNvMs0_NtCs6kXspXXDlJP_25hyperlight_component_util4emitNtB5_5State9cur_trait
FNDA:35,_RNvMs0_NtCs6kXspXXDlJP_25hyperlight_component_util4emitNtB5_5State9root_path
FNDA:38,_RNvMs1_NtCs6kXspXXDlJP_25hyperlight_component_util4emitNtB5_7WitName14namespace_path
FNDA:55,_RNvMs1_NtCs6kXspXXDlJP_25hyperlight_component_util4emitNtB5_7WitName16namespace_idents
FNDA:5,_RNvMs_NtCs6kXspXXDlJP_25hyperlight_component_util4emitNtB4_3Mod11adjust_vars
FNDA:5,_RNvMs_NtCs6kXspXXDlJP_25hyperlight_component_util4emitNtB4_3Mod11into_tokens
FNDA:3,_RNvMs_NtCs6kXspXXDlJP_25hyperlight_component_util4emitNtB4_3Mod11trait_immut
FNDA:14,_RNvMs_NtCs6kXspXXDlJP_25hyperlight_component_util4emitNtB4_3Mod12submod_immut
FNDA:0,_RNvMs_NtCs6kXspXXDlJP_25hyperlight_component_util4emitNtB4_3Mod4impl
FNDA:69,_RNvMs_NtCs6kXspXXDlJP_25hyperlight_component_util4emitNtB4_3Mod5empty
FNDA:24,_RNvMs_NtCs6kXspXXDlJP_25hyperlight_component_util4emitNtB4_3Mod5trait
FNDA:68,_RNvMs_NtCs6kXspXXDlJP_25hyperlight_component_util4emitNtB4_3Mod6submod
FNDA:121,_RNvNtCs6kXspXXDlJP_25hyperlight_component_util4emit11kebab_to_fn
FNDA:345,_RNvNtCs6kXspXXDlJP_25hyperlight_component_util4emit12kebab_to_var
FNDA:30,_RNvNtCs6kXspXXDlJP_25hyperlight_component_util4emit13kebab_to_cons
FNDA:90,_RNvNtCs6kXspXXDlJP_25hyperlight_component_util4emit13kebab_to_type
FNDA:120,_RNvNtCs6kXspXXDlJP_25hyperlight_component_util4emit14kebab_to_camel
FNDA:622,_RNvNtCs6kXspXXDlJP_25hyperlight_component_util4emit14kebab_to_snake
FNDA:41,_RNvNtCs6kXspXXDlJP_25hyperlight_component_util4emit14split_wit_name
FNDA:8,_RNvNtCs6kXspXXDlJP_25hyperlight_component_util4emit15kebab_to_getter
FNDA:150,_RNvNtCs6kXspXXDlJP_25hyperlight_component_util4emit18kebab_to_namespace
FNDA:2,_RNvNtCs6kXspXXDlJP_25hyperlight_component_util4emit21kebab_to_exports_name
FNDA:4,_RNvNtCs6kXspXXDlJP_25hyperlight_component_util4emit21kebab_to_imports_name
FNF:64
FNH:56
DA:46,0
DA:47,0
DA:48,0
DA:49,0
DA:50,0
DA:51,0
DA:52,0
DA:58,5
DA:59,5
DA:60,5
DA:62,4
DA:63,4
DA:64,0
DA:65,0
DA:66,0
DA:68,4
DA:71,1
DA:72,1
DA:73,1
DA:74,1
DA:75,1
DA:76,1
DA:77,0
DA:79,1
DA:81,1
DA:82,1
DA:83,1
DA:84,1
DA:85,1
DA:88,6
DA:89,6
DA:90,1
DA:91,1
DA:93,5
DA:95,6
DA:97,6
DA:98,6
DA:99,1
DA:101,5
DA:103,6
DA:104,6
DA:105,6
DA:106,6
DA:107,1
DA:108,6
DA:109,6
DA:110,6
DA:111,6
DA:112,6
DA:113,6
DA:114,6
DA:115,6
DA:129,69
DA:130,69
DA:131,69
DA:132,69
DA:133,69
DA:134,69
DA:135,69
DA:136,69
DA:138,68
DA:139,68
DA:140,68
DA:144,14
DA:145,14
DA:146,14
DA:149,24
DA:150,24
DA:151,24
DA:155,3
DA:156,3
DA:157,3
DA:163,0
DA:164,0
DA:165,0
DA:167,5
DA:168,5
DA:169,5
DA:170,5
DA:171,5
DA:172,5
DA:173,5
DA:174,5
DA:175,5
DA:176,5
DA:178,5
DA:179,5
DA:180,9
DA:181,4
DA:182,4
DA:183,4
DA:184,4
DA:185,4
DA:186,11
DA:187,6
DA:188,6
DA:189,5
DA:190,5
DA:191,0
DA:192,0
DA:193,0
DA:195,5
DA:196,5
DA:268,1
DA:269,1
DA:270,1
DA:271,1
DA:272,1
DA:273,1
DA:274,1
DA:275,1
DA:276,1
DA:277,1
DA:278,1
DA:279,1
DA:280,1
DA:281,1
DA:282,1
DA:283,1
DA:284,1
DA:285,1
DA:286,1
DA:287,1
DA:290,1
DA:291,1
DA:292,1
DA:293,1
DA:294,1
DA:295,1
DA:296,1
DA:297,1
DA:298,1
DA:299,1
DA:300,1
DA:301,1
DA:302,1
DA:303,1
DA:304,1
DA:305,1
DA:306,1
DA:307,1
DA:308,1
DA:309,1
DA:310,1
DA:311,1
DA:312,1
DA:313,1
DA:314,1
DA:315,1
DA:316,102
DA:317,102
DA:318,102
DA:319,102
DA:320,102
DA:321,102
DA:322,102
DA:323,102
DA:324,102
DA:325,102
DA:326,102
DA:327,102
DA:328,102
DA:329,102
DA:330,102
DA:331,102
DA:332,102
DA:333,102
DA:334,102
DA:335,102
DA:338,24
DA:339,24
DA:340,72
DA:341,48
DA:342,48
DA:343,24
DA:344,8
DA:345,16
DA:346,24
DA:347,24
DA:352,7
DA:353,7
DA:354,21
DA:355,14
DA:356,14
DA:357,7
DA:358,0
DA:359,7
DA:360,7
DA:361,7
DA:364,10
DA:365,10
DA:366,10
DA:367,10
DA:368,10
DA:372,10
DA:373,10
DA:374,10
DA:375,10
DA:376,10
DA:379,0
DA:380,0
DA:381,0
DA:385,5
DA:386,5
DA:387,5
DA:388,1
DA:389,4
DA:390,5
DA:391,0
DA:393,5
DA:394,5
DA:395,5
DA:398,45
DA:399,45
DA:400,45
DA:401,0
DA:402,45
DA:403,45
DA:404,0
DA:405,0
DA:408,45
DA:409,45
DA:413,0
DA:414,0
DA:415,0
DA:417,0
DA:418,0
DA:421,8
DA:422,8
DA:423,8
DA:424,8
DA:425,8
DA:428,35
DA:429,35
DA:430,31
DA:431,4
DA:432,4
DA:433,4
DA:434,4
DA:435,8
DA:436,4
DA:437,4
DA:438,0
DA:439,4
DA:440,4
DA:441,35
DA:444,12
DA:445,12
DA:446,2
DA:447,2
DA:448,2
DA:449,2
DA:451,0
DA:453,2
DA:454,10
DA:455,0
DA:457,10
DA:458,10
DA:460,12
DA:463,43
DA:464,43
DA:465,43
DA:466,43
DA:467,43
DA:471,1
DA:472,1
DA:473,0
DA:475,1
DA:476,1
DA:477,1
DA:478,1
DA:479,1
DA:485,17
DA:486,17
DA:487,17
DA:488,17
DA:495,3
DA:496,3
DA:497,3
DA:498,3
DA:502,6
DA:503,6
DA:504,18
DA:505,12
DA:506,12
DA:507,6
DA:508,6
DA:511,52
DA:512,52
DA:513,52
DA:514,50
DA:516,2
DA:518,52
DA:519,52
DA:523,6
DA:524,6
DA:525,6
DA:526,6
DA:527,6
DA:528,6
DA:529,6
DA:530,6
DA:532,0
DA:535,0
DA:537,0
DA:539,6
DA:542,45
DA:543,45
DA:544,45
DA:545,45
DA:546,45
DA:547,45
DA:548,45
DA:549,45
DA:550,45
DA:556,5
DA:557,5
DA:558,5
DA:559,1
DA:561,4
DA:563,7
DA:564,7
DA:565,7
DA:566,5
DA:567,5
DA:574,1
DA:575,1
DA:576,1
DA:577,1
DA:578,6
DA:579,6
DA:580,6
DA:581,6
DA:582,5
DA:583,5
DA:584,5
DA:585,1
DA:586,1
DA:591,20
DA:592,20
DA:593,0
DA:594,0
DA:596,20
DA:597,0
DA:599,20
DA:602,0
DA:603,0
DA:604,0
DA:605,0
DA:606,0
DA:607,0
DA:608,0
DA:609,0
DA:610,0
DA:611,0
DA:612,0
DA:626,55
DA:627,55
DA:628,55
DA:629,110
DA:630,55
DA:631,55
DA:634,38
DA:635,38
DA:636,38
DA:637,38
DA:640,41
DA:641,41
DA:642,41
DA:643,41
DA:644,41
DA:645,41
DA:646,41
DA:647,41
DA:648,41
DA:649,41
DA:650,41
DA:651,41
DA:652,41
DA:653,41
DA:654,41
DA:656,622
DA:657,622
DA:658,2
DA:659,620
DA:660,620
DA:661,4269
DA:662,4269
DA:663,250
DA:664,250
DA:665,4019
DA:666,4019
DA:668,620
DA:669,622
DA:671,120
DA:672,120
DA:673,120
DA:674,1124
DA:675,1124
DA:676,46
DA:677,46
DA:678,1078
DA:679,1078
DA:680,166
DA:682,912
DA:684,1078
DA:686,120
DA:687,120
DA:691,345
DA:692,345
DA:693,345
DA:696,30
DA:697,30
DA:698,30
DA:701,8
DA:702,8
DA:703,8
DA:705,90
DA:706,90
DA:707,90
DA:710,150
DA:711,150
DA:712,150
DA:715,4
DA:716,4
DA:717,4
DA:720,2
DA:721,2
DA:722,2
DA:739,121
DA:740,121
DA:741,2
DA:742,119
DA:743,119
DA:744,2
DA:745,2
DA:746,2
DA:747,2
DA:748,2
DA:749,2
DA:750,2
DA:751,117
DA:752,117
DA:753,0
DA:754,0
DA:755,0
DA:756,0
DA:757,0
DA:758,0
DA:759,0
DA:760,117
DA:761,117
DA:762,121
BRF:0
BRH:0
LF:467
LH:406
end_of_record
SF:/home/runner/work/hyperlight/hyperlight/src/hyperlight_component_util/src/etypes.rs
FN:224,_RINvMs1_NtCs6kXspXXDlJP_25hyperlight_component_util6etypesNtB6_11TyvarOrigin7matchesINtNtNtCs649FzoMgw5V_4core5slice4iter4IterNtB6_12ImportExportEEB8_
FN:230,_RINvMs1_NtCs6kXspXXDlJP_25hyperlight_component_util6etypesNtB6_11TyvarOrigin8is_localINtNtNtCs649FzoMgw5V_4core5slice4iter4IterNtB6_12ImportExportEEB8_
FN:227,_RNCINvMs1_NtCs6kXspXXDlJP_25hyperlight_component_util6etypesNtB8_11TyvarOrigin7matchesINtNtNtCs649FzoMgw5V_4core5slice4iter4IterNtB8_12ImportExportEE0Ba_
FN:253,_RNCNvMs1_NtCs6kXspXXDlJP_25hyperlight_component_util6etypesNtB7_11TyvarOrigin9last_name0B9_
FN:254,_RNCNvMs1_NtCs6kXspXXDlJP_25hyperlight_component_util6etypesNtB7_11TyvarOrigin9last_names_0B9_
FN:37,_RNvMNtCs6kXspXXDlJP_25hyperlight_component_util6etypesNtB2_8IntWidth5width
FN:186,_RNvMs0_NtCs6kXspXXDlJP_25hyperlight_component_util6etypesNtB5_12ImportExport4name
FN:192,_RNvMs0_NtCs6kXspXXDlJP_25hyperlight_component_util6etypesNtB5_12ImportExport8imported
FN:256,_RNvMs1_NtCs6kXspXXDlJP_25hyperlight_component_util6etypesNtB5_11TyvarOrigin11is_imported
FN:210,_RNvMs1_NtCs6kXspXXDlJP_25hyperlight_component_util6etypesNtB5_11TyvarOrigin3new
FN:213,_RNvMs1_NtCs6kXspXXDlJP_25hyperlight_component_util6etypesNtB5_11TyvarOrigin4push
FN:250,_RNvMs1_NtCs6kXspXXDlJP_25hyperlight_component_util6etypesNtB5_11TyvarOrigin9last_name
FN:286,_RNvMs2_NtCs6kXspXXDlJP_25hyperlight_component_util6etypesNtB5_12BoundedTyvar11push_origin
FN:280,_RNvMs2_NtCs6kXspXXDlJP_25hyperlight_component_util6etypesNtB5_12BoundedTyvar3new
FN:422,_RNvMs3_NtCs6kXspXXDlJP_25hyperlight_component_util6etypesNtB5_7CoreCtx3new
FN:467,_RNvMs4_NtCs6kXspXXDlJP_25hyperlight_component_util6etypesNtB5_3Ctx3new
FN:500,_RNvMs6_NtCs6kXspXXDlJP_25hyperlight_component_util6etypesNtB5_3Ctx7parents
FN:53,_RNvMs_NtCs6kXspXXDlJP_25hyperlight_component_util6etypesNtB4_10FloatWidth5width
FN:488,_RNvXs5_NtCs6kXspXXDlJP_25hyperlight_component_util6etypesNtB5_17CtxParentIteratorNtNtNtNtCs649FzoMgw5V_4core4iter6traits8iterator8Iterator4next
FNDA:6,_RINvMs1_NtCs6kXspXXDlJP_25hyperlight_component_util6etypesNtB6_11TyvarOrigin7matchesINtNtNtCs649FzoMgw5V_4core5slice4iter4IterNtB6_12ImportExportEEB8_
FNDA:45,_RINvMs1_NtCs6kXspXXDlJP_25hyperlight_component_util6etypesNtB6_11TyvarOrigin8is_localINtNtNtCs649FzoMgw5V_4core5slice4iter4IterNtB6_12ImportExportEEB8_
FNDA:6,_RNCINvMs1_NtCs6kXspXXDlJP_25hyperlight_component_util6etypesNtB8_11TyvarOrigin7matchesINtNtNtCs649FzoMgw5V_4core5slice4iter4IterNtB8_12ImportExportEE0Ba_
FNDA:0,_RNCNvMs1_NtCs6kXspXXDlJP_25hyperlight_component_util6etypesNtB7_11TyvarOrigin9last_name0B9_
FNDA:0,_RNCNvMs1_NtCs6kXspXXDlJP_25hyperlight_component_util6etypesNtB7_11TyvarOrigin9last_names_0B9_
FNDA:338,_RNvMNtCs6kXspXXDlJP_25hyperlight_component_util6etypesNtB2_8IntWidth5width
FNDA:84,_RNvMs0_NtCs6kXspXXDlJP_25hyperlight_component_util6etypesNtB5_12ImportExport4name
FNDA:2,_RNvMs0_NtCs6kXspXXDlJP_25hyperlight_component_util6etypesNtB5_12ImportExport8imported
FNDA:1,_RNvMs1_NtCs6kXspXXDlJP_25hyperlight_component_util6etypesNtB5_11TyvarOrigin11is_imported
FNDA:17,_RNvMs1_NtCs6kXspXXDlJP_25hyperlight_component_util6etypesNtB5_11TyvarOrigin3new
FNDA:79,_RNvMs1_NtCs6kXspXXDlJP_25hyperlight_component_util6etypesNtB5_11TyvarOrigin4push
FNDA:0,_RNvMs1_NtCs6kXspXXDlJP_25hyperlight_component_util6etypesNtB5_11TyvarOrigin9last_name
FNDA:79,_RNvMs2_NtCs6kXspXXDlJP_25hyperlight_component_util6etypesNtB5_12BoundedTyvar11push_origin
FNDA:17,_RNvMs2_NtCs6kXspXXDlJP_25hyperlight_component_util6etypesNtB5_12BoundedTyvar3new
FNDA:25,_RNvMs3_NtCs6kXspXXDlJP_25hyperlight_component_util6etypesNtB5_7CoreCtx3new
FNDA:25,_RNvMs4_NtCs6kXspXXDlJP_25hyperlight_component_util6etypesNtB5_3Ctx3new
FNDA:205,_RNvMs6_NtCs6kXspXXDlJP_25hyperlight_component_util6etypesNtB5_3Ctx7parents
FNDA:64,_RNvMs_NtCs6kXspXXDlJP_25hyperlight_component_util6etypesNtB4_10FloatWidth5width
FNDA:205,_RNvXs5_NtCs6kXspXXDlJP_25hyperlight_component_util6etypesNtB5_17CtxParentIteratorNtNtNtNtCs649FzoMgw5V_4core4iter6traits8iterator8Iterator4next
FNF:19
FNH:16
DA:37,338
DA:38,338
DA:39,128
DA:40,48
DA:41,72
DA:42,90
DA:44,338
DA:53,64
DA:54,64
DA:55,32
DA:56,32
DA:58,64
DA:186,84
DA:187,84
DA:188,12
DA:189,72
DA:191,84
DA:192,2
DA:193,2
DA:194,2
DA:195,0
DA:197,2
DA:210,17
DA:211,17
DA:212,17
DA:213,79
DA:214,79
DA:215,0
DA:216,45
DA:217,34
DA:218,34
DA:219,34
DA:220,34
DA:223,79
DA:224,6
DA:225,6
DA:226,6
DA:227,6
DA:228,6
DA:229,6
DA:230,45
DA:231,45
DA:232,45
DA:233,45
DA:234,45
DA:235,45
DA:236,45
DA:237,45
DA:238,45
DA:239,45
DA:240,45
DA:241,59
DA:242,14
DA:243,0
DA:244,14
DA:245,14
DA:248,45
DA:249,45
DA:250,0
DA:251,0
DA:252,0
DA:253,0
DA:254,0
DA:255,0
DA:256,1
DA:257,1
DA:258,0
DA:260,1
DA:261,1
DA:280,17
DA:281,17
DA:282,17
DA:283,17
DA:284,17
DA:285,17
DA:286,79
DA:287,79
DA:288,79
DA:289,79
DA:290,79
DA:291,79
DA:422,25
DA:423,25
DA:424,25
DA:425,25
DA:426,25
DA:427,25
DA:428,25
DA:429,25
DA:430,25
DA:431,25
DA:432,25
DA:467,25
DA:468,25
DA:469,25
DA:470,25
DA:471,25
DA:472,25
DA:473,25
DA:474,25
DA:475,25
DA:476,25
DA:477,25
DA:478,25
DA:479,25
DA:480,25
DA:488,205
DA:489,205
DA:490,205
DA:491,205
DA:492,205
DA:494,0
DA:496,205
DA:500,205
DA:501,205
DA:502,205
BRF:0
BRH:0
LF:119
LH:106
end_of_record
SF:/home/runner/work/hyperlight/hyperlight/src/hyperlight_component_util/src/guest.rs
FN:300,_RNCNvNtCs6kXspXXDlJP_25hyperlight_component_util5guest14emit_component0B5_
FN:322,_RNCNvNtCs6kXspXXDlJP_25hyperlight_component_util5guest14emit_components0_0B5_
FN:312,_RNCNvNtCs6kXspXXDlJP_25hyperlight_component_util5guest14emit_components_0B5_
FN:265,_RNCNvNtCs6kXspXXDlJP_25hyperlight_component_util5guest20emit_export_instance0B5_
FN:145,_RNCNvNtCs6kXspXXDlJP_25hyperlight_component_util5guest20emit_import_instance0B5_
FN:159,_RNCNvNtCs6kXspXXDlJP_25hyperlight_component_util5guest20emit_import_instances0_0B5_
FN:155,_RNCNvNtCs6kXspXXDlJP_25hyperlight_component_util5guest20emit_import_instances_0B5_
FN:185,_RNCNvNtCs6kXspXXDlJP_25hyperlight_component_util5guest23emit_export_extern_decl0B5_
FN:196,_RNCNvNtCs6kXspXXDlJP_25hyperlight_component_util5guest23emit_export_extern_decls0_0B5_
FN:187,_RNCNvNtCs6kXspXXDlJP_25hyperlight_component_util5guest23emit_export_extern_decls_0B5_
FN:48,_RNCNvNtCs6kXspXXDlJP_25hyperlight_component_util5guest23emit_import_extern_decl0B5_
FN:56,_RNCNvNtCs6kXspXXDlJP_25hyperlight_component_util5guest23emit_import_extern_decls_0B5_
FN:342,_RNvNtCs6kXspXXDlJP_25hyperlight_component_util5guest13emit_toplevel
FN:277,_RNvNtCs6kXspXXDlJP_25hyperlight_component_util5guest14emit_component
FN:253,_RNvNtCs6kXspXXDlJP_25hyperlight_component_util5guest20emit_export_instance
FN:138,_RNvNtCs6kXspXXDlJP_25hyperlight_component_util5guest20emit_import_instance
FN:170,_RNvNtCs6kXspXXDlJP_25hyperlight_component_util5guest23emit_export_extern_decl
FN:38,_RNvNtCs6kXspXXDlJP_25hyperlight_component_util5guest23emit_import_extern_decl
FNDA:0,_RNCNvNtCs6kXspXXDlJP_25hyperlight_component_util5guest14emit_component0B5_
FNDA:0,_RNCNvNtCs6kXspXXDlJP_25hyperlight_component_util5guest14emit_components0_0B5_
FNDA:0,_RNCNvNtCs6kXspXXDlJP_25hyperlight_component_util5guest14emit_components_0B5_
FNDA:0,_RNCNvNtCs6kXspXXDlJP_25hyperlight_component_util5guest20emit_export_instance0B5_
FNDA:0,_RNCNvNtCs6kXspXXDlJP_25hyperlight_component_util5guest20emit_import_instance0B5_
FNDA:0,_RNCNvNtCs6kXspXXDlJP_25hyperlight_component_util5guest20emit_import_instances0_0B5_
FNDA:0,_RNCNvNtCs6kXspXXDlJP_25hyperlight_component_util5guest20emit_import_instances_0B5_
FNDA:0,_RNCNvNtCs6kXspXXDlJP_25hyperlight_component_util5guest23emit_export_extern_decl0B5_
FNDA:0,_RNCNvNtCs6kXspXXDlJP_25hyperlight_component_util5guest23emit_export_extern_decls0_0B5_
FNDA:0,_RNCNvNtCs6kXspXXDlJP_25hyperlight_component_util5guest23emit_export_extern_decls_0B5_
FNDA:0,_RNCNvNtCs6kXspXXDlJP_25hyperlight_component_util5guest23emit_import_extern_decl0B5_
FNDA:0,_RNCNvNtCs6kXspXXDlJP_25hyperlight_component_util5guest23emit_import_extern_decls_0B5_
FNDA:0,_RNvNtCs6kXspXXDlJP_25hyperlight_component_util5guest13emit_toplevel
FNDA:0,_RNvNtCs6kXspXXDlJP_25hyperlight_component_util5guest14emit_component
FNDA:0,_RNvNtCs6kXspXXDlJP_25hyperlight_component_util5guest20emit_export_instance
FNDA:0,_RNvNtCs6kXspXXDlJP_25hyperlight_component_util5guest20emit_import_instance
FNDA:0,_RNvNtCs6kXspXXDlJP_25hyperlight_component_util5guest23emit_export_extern_decl
FNDA:0,_RNvNtCs6kXspXXDlJP_25hyperlight_component_util5guest23emit_import_extern_decl
FNF:18
FNH:0
DA:38,0
DA:39,0
DA:40,0
DA:41,0
DA:42,0
DA:43,0
DA:44,0
DA:45,0
DA:46,0
DA:47,0
DA:48,0
DA:49,0
DA:50,0
DA:51,0
DA:52,0
DA:53,0
DA:54,0
DA:55,0
DA:56,0
DA:57,0
DA:58,0
DA:59,0
DA:60,0
DA:61,0
DA:62,0
DA:63,0
DA:64,0
DA:65,0
DA:66,0
DA:67,0
DA:68,0
DA:71,0
DA:72,0
DA:73,0
DA:74,0
DA:75,0
DA:76,0
DA:77,0
DA:78,0
DA:79,0
DA:80,0
DA:81,0
DA:82,0
DA:83,0
DA:84,0
DA:85,0
DA:86,0
DA:87,0
DA:88,0
DA:89,0
DA:90,0
DA:91,0
DA:92,0
DA:93,0
DA:94,0
DA:98,0
DA:99,0
DA:101,0
DA:102,0
DA:104,0
DA:105,0
DA:106,0
DA:107,0
DA:108,0
DA:109,0
DA:110,0
DA:111,0
DA:113,0
DA:115,0
DA:116,0
DA:117,0
DA:118,0
DA:119,0
DA:120,0
DA:121,0
DA:122,0
DA:123,0
DA:124,0
DA:125,0
DA:126,0
DA:127,0
DA:130,0
DA:133,0
DA:138,0
DA:139,0
DA:140,0
DA:141,0
DA:142,0
DA:143,0
DA:144,0
DA:145,0
DA:146,0
DA:147,0
DA:148,0
DA:149,0
DA:150,0
DA:151,0
DA:152,0
DA:153,0
DA:154,0
DA:155,0
DA:156,0
DA:157,0
DA:158,0
DA:159,0
DA:160,0
DA:161,0
DA:162,0
DA:163,0
DA:164,0
DA:165,0
DA:166,0
DA:170,0
DA:171,0
DA:172,0
DA:173,0
DA:174,0
DA:175,0
DA:176,0
DA:177,0
DA:178,0
DA:179,0
DA:180,0
DA:182,0
DA:185,0
DA:186,0
DA:187,0
DA:188,0
DA:189,0
DA:190,0
DA:191,0
DA:192,0
DA:193,0
DA:194,0
DA:195,0
DA:196,0
DA:197,0
DA:198,0
DA:199,0
DA:200,0
DA:201,0
DA:202,0
DA:203,0
DA:204,0
DA:205,0
DA:206,0
DA:207,0
DA:208,0
DA:209,0
DA:210,0
DA:211,0
DA:212,0
DA:213,0
DA:214,0
DA:215,0
DA:216,0
DA:217,0
DA:218,0
DA:219,0
DA:220,0
DA:221,0
DA:222,0
DA:223,0
DA:224,0
DA:225,0
DA:226,0
DA:227,0
DA:228,0
DA:232,0
DA:234,0
DA:235,0
DA:236,0
DA:237,0
DA:238,0
DA:241,0
DA:244,0
DA:253,0
DA:254,0
DA:255,0
DA:256,0
DA:257,0
DA:258,0
DA:259,0
DA:260,0
DA:261,0
DA:262,0
DA:263,0
DA:264,0
DA:265,0
DA:266,0
DA:267,0
DA:268,0
DA:277,0
DA:278,0
DA:279,0
DA:280,0
DA:281,0
DA:282,0
DA:283,0
DA:284,0
DA:285,0
DA:286,0
DA:287,0
DA:288,0
DA:289,0
DA:290,0
DA:291,0
DA:292,0
DA:293,0
DA:294,0
DA:295,0
DA:296,0
DA:297,0
DA:298,0
DA:299,0
DA:300,0
DA:301,0
DA:302,0
DA:303,0
DA:304,0
DA:305,0
DA:306,0
DA:307,0
DA:308,0
DA:309,0
DA:310,0
DA:311,0
DA:312,0
DA:313,0
DA:314,0
DA:315,0
DA:316,0
DA:317,0
DA:318,0
DA:319,0
DA:320,0
DA:321,0
DA:322,0
DA:323,0
DA:324,0
DA:325,0
DA:326,0
DA:327,0
DA:328,0
DA:329,0
DA:330,0
DA:331,0
DA:332,0
DA:333,0
DA:342,0
DA:343,0
DA:344,0
DA:345,0
DA:346,0
DA:347,0
DA:348,0
DA:349,0
DA:350,0
DA:351,0
DA:352,0
DA:353,0
DA:354,0
DA:355,0
DA:356,0
DA:357,0
DA:358,0
DA:359,0
DA:360,0
DA:361,0
DA:362,0
DA:363,0
DA:364,0
DA:365,0
DA:366,0
BRF:0
BRH:0
LF:290
LH:0
end_of_record
SF:/home/runner/work/hyperlight/hyperlight/src/hyperlight_component_util/src/hl.rs
FN:32,_RNCNvNtCs6kXspXXDlJP_25hyperlight_component_util2hl15emit_fn_hl_name0B5_
FN:548,_RNCNvNtCs6kXspXXDlJP_25hyperlight_component_util2hl21emit_hl_marshal_value0B5_
FN:247,_RNCNvNtCs6kXspXXDlJP_25hyperlight_component_util2hl23emit_hl_unmarshal_value0B5_
FN:398,_RNCNvNtCs6kXspXXDlJP_25hyperlight_component_util2hl30emit_hl_marshal_toplevel_value0B5_
FN:440,_RNCNvNtCs6kXspXXDlJP_25hyperlight_component_util2hl30emit_hl_marshal_toplevel_values0_0B5_
FN:472,_RNCNvNtCs6kXspXXDlJP_25hyperlight_component_util2hl30emit_hl_marshal_toplevel_values1_0B5_
FN:419,_RNCNvNtCs6kXspXXDlJP_25hyperlight_component_util2hl30emit_hl_marshal_toplevel_values_0B5_
FN:70,_RNCNvNtCs6kXspXXDlJP_25hyperlight_component_util2hl32emit_hl_unmarshal_toplevel_value0B5_
FN:108,_RNCNvNtCs6kXspXXDlJP_25hyperlight_component_util2hl32emit_hl_unmarshal_toplevel_values0_0B5_
FN:137,_RNCNvNtCs6kXspXXDlJP_25hyperlight_component_util2hl32emit_hl_unmarshal_toplevel_values1_0B5_
FN:94,_RNCNvNtCs6kXspXXDlJP_25hyperlight_component_util2hl32emit_hl_unmarshal_toplevel_values_0B5_
FN:29,_RNvNtCs6kXspXXDlJP_25hyperlight_component_util2hl15emit_fn_hl_name
FN:695,_RNvNtCs6kXspXXDlJP_25hyperlight_component_util2hl21emit_hl_marshal_param
FN:495,_RNvNtCs6kXspXXDlJP_25hyperlight_component_util2hl21emit_hl_marshal_value
FN:706,_RNvNtCs6kXspXXDlJP_25hyperlight_component_util2hl22emit_hl_marshal_result
FN:669,_RNvNtCs6kXspXXDlJP_25hyperlight_component_util2hl23emit_hl_unmarshal_param
FN:190,_RNvNtCs6kXspXXDlJP_25hyperlight_component_util2hl23emit_hl_unmarshal_value
FN:682,_RNvNtCs6kXspXXDlJP_25hyperlight_component_util2hl24emit_hl_unmarshal_result
FN:157,_RNvNtCs6kXspXXDlJP_25hyperlight_component_util2hl25resolve_tyvar_to_resource
FN:380,_RNvNtCs6kXspXXDlJP_25hyperlight_component_util2hl30emit_hl_marshal_toplevel_value
FN:169,_RNvNtCs6kXspXXDlJP_25hyperlight_component_util2hl30resolve_handleable_to_resource
FN:51,_RNvNtCs6kXspXXDlJP_25hyperlight_component_util2hl32emit_hl_unmarshal_toplevel_value
FNDA:158,_RNCNvNtCs6kXspXXDlJP_25hyperlight_component_util2hl15emit_fn_hl_name0B5_
FNDA:4,_RNCNvNtCs6kXspXXDlJP_25hyperlight_component_util2hl21emit_hl_marshal_value0B5_
FNDA:4,_RNCNvNtCs6kXspXXDlJP_25hyperlight_component_util2hl23emit_hl_unmarshal_value0B5_
FNDA:4,_RNCNvNtCs6kXspXXDlJP_25hyperlight_component_util2hl30emit_hl_marshal_toplevel_value0B5_
FNDA:6,_RNCNvNtCs6kXspXXDlJP_25hyperlight_component_util2hl30emit_hl_marshal_toplevel_values0_0B5_
FNDA:6,_RNCNvNtCs6kXspXXDlJP_25hyperlight_component_util2hl30emit_hl_marshal_toplevel_values1_0B5_
FNDA:70,_RNCNvNtCs6kXspXXDlJP_25hyperlight_component_util2hl30emit_hl_marshal_toplevel_values_0B5_
FNDA:4,_RNCNvNtCs6kXspXXDlJP_25hyperlight_component_util2hl32emit_hl_unmarshal_toplevel_value0B5_
FNDA:6,_RNCNvNtCs6kXspXXDlJP_25hyperlight_component_util2hl32emit_hl_unmarshal_toplevel_values0_0B5_
FNDA:6,_RNCNvNtCs6kXspXXDlJP_25hyperlight_component_util2hl32emit_hl_unmarshal_toplevel_values1_0B5_
FNDA:70,_RNCNvNtCs6kXspXXDlJP_25hyperlight_component_util2hl32emit_hl_unmarshal_toplevel_values_0B5_
FNDA:79,_RNvNtCs6kXspXXDlJP_25hyperlight_component_util2hl15emit_fn_hl_name
FNDA:37,_RNvNtCs6kXspXXDlJP_25hyperlight_component_util2hl21emit_hl_marshal_param
FNDA:127,_RNvNtCs6kXspXXDlJP_25hyperlight_component_util2hl21emit_hl_marshal_value
FNDA:41,_RNvNtCs6kXspXXDlJP_25hyperlight_component_util2hl22emit_hl_marshal_result
FNDA:43,_RNvNtCs6kXspXXDlJP_25hyperlight_component_util2hl23emit_hl_unmarshal_param
FNDA:132,_RNvNtCs6kXspXXDlJP_25hyperlight_component_util2hl23emit_hl_unmarshal_value
FNDA:38,_RNvNtCs6kXspXXDlJP_25hyperlight_component_util2hl24emit_hl_unmarshal_result
FNDA:5,_RNvNtCs6kXspXXDlJP_25hyperlight_component_util2hl25resolve_tyvar_to_resource
FNDA:10,_RNvNtCs6kXspXXDlJP_25hyperlight_component_util2hl30emit_hl_marshal_toplevel_value
FNDA:5,_RNvNtCs6kXspXXDlJP_25hyperlight_component_util2hl30resolve_handleable_to_resource
FNDA:10,_RNvNtCs6kXspXXDlJP_25hyperlight_component_util2hl32emit_hl_unmarshal_toplevel_value
FNF:22
FNH:22
DA:29,79
DA:30,79
DA:31,79
DA:32,158
DA:33,79
DA:34,79
DA:35,79
DA:51,10
DA:52,10
DA:53,10
DA:54,10
DA:55,10
DA:56,10
DA:57,10
DA:58,10
DA:59,10
DA:60,0
DA:62,10
DA:63,10
DA:64,10
DA:65,2
DA:66,2
DA:67,2
DA:68,2
DA:69,2
DA:70,4
DA:71,4
DA:72,4
DA:73,4
DA:74,4
DA:75,4
DA:76,4
DA:77,4
DA:78,4
DA:79,4
DA:80,4
DA:81,4
DA:82,4
DA:83,4
DA:84,4
DA:85,2
DA:86,2
DA:87,2
DA:88,2
DA:89,2
DA:90,2
DA:92,4
DA:93,4
DA:94,70
DA:95,70
DA:96,70
DA:97,70
DA:98,70
DA:99,70
DA:100,70
DA:101,70
DA:102,4
DA:103,4
DA:104,4
DA:106,2
DA:107,2
DA:108,6
DA:109,6
DA:110,6
DA:111,6
DA:112,6
DA:113,4
DA:114,4
DA:115,4
DA:116,4
DA:117,4
DA:118,4
DA:119,4
DA:120,4
DA:122,2
DA:123,2
DA:124,2
DA:126,6
DA:127,2
DA:128,2
DA:129,2
DA:130,2
DA:131,2
DA:132,2
DA:133,2
DA:134,2
DA:136,2
DA:137,6
DA:138,6
DA:139,6
DA:140,6
DA:141,6
DA:142,2
DA:143,2
DA:144,2
DA:145,2
DA:146,2
DA:147,2
DA:148,2
DA:150,0
DA:152,10
DA:157,5
DA:158,5
DA:159,5
DA:160,0
DA:161,0
DA:163,0
DA:165,5
DA:169,5
DA:170,5
DA:171,5
DA:172,5
DA:174,0
DA:176,5
DA:190,132
DA:191,132
DA:192,3
DA:194,51
DA:195,51
DA:196,51
DA:197,51
DA:198,51
DA:200,8
DA:201,8
DA:202,8
DA:203,8
DA:204,17
DA:205,17
DA:206,17
DA:207,17
DA:208,17
DA:209,6
DA:210,6
DA:211,6
DA:212,6
DA:213,6
DA:214,6
DA:215,6
DA:216,6
DA:217,6
DA:218,6
DA:219,6
DA:220,6
DA:221,6
DA:222,6
DA:223,6
DA:224,6
DA:226,28
DA:227,28
DA:228,28
DA:229,28
DA:230,28
DA:231,28
DA:232,28
DA:233,28
DA:234,28
DA:235,28
DA:236,28
DA:237,28
DA:238,28
DA:240,0
DA:241,2
DA:242,2
DA:243,2
DA:244,2
DA:245,2
DA:246,2
DA:247,4
DA:248,4
DA:249,4
DA:250,4
DA:251,4
DA:252,4
DA:253,4
DA:254,4
DA:255,4
DA:256,4
DA:257,4
DA:258,4
DA:259,2
DA:260,2
DA:261,2
DA:262,2
DA:263,2
DA:264,2
DA:265,2
DA:267,0
DA:268,0
DA:269,0
DA:270,2
DA:271,2
DA:272,2
DA:273,2
DA:274,2
DA:275,2
DA:276,2
DA:277,2
DA:278,2
DA:279,2
DA:280,2
DA:281,2
DA:282,2
DA:284,2
DA:285,2
DA:286,2
DA:287,2
DA:289,0
DA:291,2
DA:292,2
DA:294,0
DA:296,2
DA:297,2
DA:298,2
DA:299,2
DA:300,2
DA:301,2
DA:302,2
DA:303,2
DA:304,2
DA:305,2
DA:306,2
DA:308,2
DA:309,2
DA:310,2
DA:311,2
DA:312,0
DA:313,0
DA:314,0
DA:315,0
DA:316,0
DA:317,0
DA:319,0
DA:320,0
DA:321,0
DA:322,0
DA:325,2
DA:326,2
DA:327,2
DA:328,2
DA:329,2
DA:330,2
DA:331,2
DA:332,2
DA:333,2
DA:336,1
DA:337,1
DA:338,1
DA:339,1
DA:340,0
DA:341,0
DA:342,0
DA:343,0
DA:344,0
DA:346,1
DA:347,1
DA:348,1
DA:349,1
DA:350,1
DA:351,1
DA:352,1
DA:353,1
DA:354,1
DA:357,10
DA:358,10
DA:359,0
DA:361,10
DA:362,0
DA:364,10
DA:365,10
DA:368,132
DA:380,10
DA:381,10
DA:382,10
DA:383,10
DA:384,10
DA:385,10
DA:386,10
DA:387,10
DA:388,10
DA:389,0
DA:391,10
DA:392,10
DA:393,10
DA:394,2
DA:395,2
DA:396,2
DA:397,2
DA:398,4
DA:399,4
DA:400,4
DA:401,4
DA:402,4
DA:403,4
DA:404,4
DA:405,4
DA:406,4
DA:407,2
DA:408,2
DA:409,2
DA:410,2
DA:411,2
DA:412,2
DA:414,4
DA:415,4
DA:416,4
DA:417,4
DA:418,4
DA:419,70
DA:420,70
DA:421,70
DA:422,70
DA:423,70
DA:424,70
DA:425,70
DA:426,70
DA:427,4
DA:428,4
DA:429,4
DA:430,4
DA:431,4
DA:432,4
DA:434,2
DA:435,2
DA:436,2
DA:437,2
DA:438,2
DA:439,2
DA:440,6
DA:441,6
DA:442,6
DA:443,6
DA:444,4
DA:445,4
DA:446,4
DA:447,4
DA:448,4
DA:449,4
DA:450,4
DA:451,4
DA:454,2
DA:455,2
DA:456,2
DA:457,2
DA:458,2
DA:461,6
DA:462,2
DA:463,2
DA:464,2
DA:465,2
DA:466,2
DA:467,2
DA:468,2
DA:469,2
DA:471,2
DA:472,6
DA:473,6
DA:474,6
DA:475,6
DA:476,6
DA:477,2
DA:478,2
DA:479,2
DA:480,2
DA:481,2
DA:483,0
DA:485,10
DA:495,127
DA:496,127
DA:497,2
DA:498,2
DA:499,2
DA:501,51
DA:502,51
DA:504,6
DA:505,6
DA:506,6
DA:508,16
DA:509,16
DA:510,16
DA:511,16
DA:512,16
DA:513,16
DA:514,16
DA:515,16
DA:516,16
DA:518,6
DA:519,6
DA:520,6
DA:521,6
DA:522,6
DA:523,6
DA:524,6
DA:525,6
DA:526,6
DA:527,6
DA:528,6
DA:529,6
DA:530,6
DA:532,28
DA:533,28
DA:534,28
DA:535,28
DA:536,28
DA:537,28
DA:538,28
DA:539,28
DA:540,28
DA:541,28
DA:542,28
DA:544,0
DA:545,2
DA:546,2
DA:547,2
DA:548,4
DA:549,4
DA:550,4
DA:551,4
DA:552,4
DA:553,4
DA:554,4
DA:555,4
DA:556,2
DA:557,2
DA:558,2
DA:559,2
DA:560,2
DA:562,0
DA:563,0
DA:564,0
DA:565,2
DA:566,2
DA:567,2
DA:568,2
DA:569,2
DA:570,2
DA:571,2
DA:572,2
DA:573,2
DA:574,2
DA:575,2
DA:576,2
DA:577,2
DA:578,2
DA:580,2
DA:581,2
DA:582,2
DA:583,2
DA:584,2
DA:585,2
DA:587,0
DA:589,2
DA:590,2
DA:591,2
DA:593,0
DA:595,2
DA:596,2
DA:597,2
DA:598,2
DA:599,2
DA:600,2
DA:601,2
DA:602,2
DA:603,2
DA:604,2
DA:605,2
DA:606,2
DA:607,2
DA:608,2
DA:610,2
DA:611,2
DA:612,2
DA:613,2
DA:614,0
DA:615,0
DA:617,0
DA:619,0
DA:620,0
DA:621,0
DA:623,2
DA:624,2
DA:625,2
DA:626,2
DA:627,2
DA:628,2
DA:631,0
DA:632,0
DA:633,0
DA:634,0
DA:635,0
DA:636,0
DA:638,0
DA:640,0
DA:641,0
DA:642,0
DA:644,0
DA:645,0
DA:646,0
DA:647,0
DA:648,0
DA:649,0
DA:652,10
DA:653,10
DA:654,0
DA:656,10
DA:657,0
DA:659,10
DA:660,10
DA:663,127
DA:669,43
DA:670,43
DA:671,43
DA:672,43
DA:682,38
DA:683,38
DA:684,37
DA:685,37
DA:686,37
DA:688,1
DA:690,38
DA:695,37
DA:696,37
DA:697,37
DA:698,37
DA:706,41
DA:707,41
DA:708,3
DA:709,38
DA:710,38
DA:711,38
DA:714,41
BRF:0
BRH:0
LF:551
LH:490
end_of_record
SF:/home/runner/work/hyperlight/hyperlight/src/hyperlight_component_util/src/host.rs
FN:329,_RNCNvNtCs6kXspXXDlJP_25hyperlight_component_util4host14emit_component0B5_
FN:341,_RNCNvNtCs6kXspXXDlJP_25hyperlight_component_util4host14emit_components_0B5_
FN:111,_RNCNvNtCs6kXspXXDlJP_25hyperlight_component_util4host20emit_export_instance0B5_
FN:125,_RNCNvNtCs6kXspXXDlJP_25hyperlight_component_util4host20emit_export_instances0_0B5_
FN:121,_RNCNvNtCs6kXspXXDlJP_25hyperlight_component_util4host20emit_export_instances_0B5_
FN:286,_RNCNvNtCs6kXspXXDlJP_25hyperlight_component_util4host20emit_import_instance0B5_
FN:46,_RNCNvNtCs6kXspXXDlJP_25hyperlight_component_util4host23emit_export_extern_decl0B5_
FN:54,_RNCNvNtCs6kXspXXDlJP_25hyperlight_component_util4host23emit_export_extern_decls_0B5_
FN:201,_RNCNvNtCs6kXspXXDlJP_25hyperlight_component_util4host23emit_import_extern_decl0B5_
FN:164,_RNvMNtCs6kXspXXDlJP_25hyperlight_component_util4hostNtB2_8SelfInfo11with_getter
FN:148,_RNvMNtCs6kXspXXDlJP_25hyperlight_component_util4hostNtB2_8SelfInfo3new
FN:373,_RNvNtCs6kXspXXDlJP_25hyperlight_component_util4host13emit_toplevel
FN:305,_RNvNtCs6kXspXXDlJP_25hyperlight_component_util4host14emit_component
FN:104,_RNvNtCs6kXspXXDlJP_25hyperlight_component_util4host20emit_export_instance
FN:273,_RNvNtCs6kXspXXDlJP_25hyperlight_component_util4host20emit_import_instance
FN:295,_RNvNtCs6kXspXXDlJP_25hyperlight_component_util4host21kebab_to_wrapper_name
FN:34,_RNvNtCs6kXspXXDlJP_25hyperlight_component_util4host23emit_export_extern_decl
FN:188,_RNvNtCs6kXspXXDlJP_25hyperlight_component_util4host23emit_import_extern_decl
FNDA:2,_RNCNvNtCs6kXspXXDlJP_25hyperlight_component_util4host14emit_component0B5_
FNDA:2,_RNCNvNtCs6kXspXXDlJP_25hyperlight_component_util4host14emit_components_0B5_
FNDA:43,_RNCNvNtCs6kXspXXDlJP_25hyperlight_component_util4host20emit_export_instance0B5_
FNDA:0,_RNCNvNtCs6kXspXXDlJP_25hyperlight_component_util4host20emit_export_instances0_0B5_
FNDA:0,_RNCNvNtCs6kXspXXDlJP_25hyperlight_component_util4host20emit_export_instances_0B5_
FNDA:47,_RNCNvNtCs6kXspXXDlJP_25hyperlight_component_util4host20emit_import_instance0B5_
FNDA:37,_RNCNvNtCs6kXspXXDlJP_25hyperlight_component_util4host23emit_export_extern_decl0B5_
FNDA:37,_RNCNvNtCs6kXspXXDlJP_25hyperlight_component_util4host23emit_export_extern_decls_0B5_
FNDA:43,_RNCNvNtCs6kXspXXDlJP_25hyperlight_component_util4host23emit_import_extern_decl0B5_
FNDA:2,_RNvMNtCs6kXspXXDlJP_25hyperlight_component_util4hostNtB2_8SelfInfo11with_getter
FNDA:2,_RNvMNtCs6kXspXXDlJP_25hyperlight_component_util4hostNtB2_8SelfInfo3new
FNDA:1,_RNvNtCs6kXspXXDlJP_25hyperlight_component_util4host13emit_toplevel
FNDA:1,_RNvNtCs6kXspXXDlJP_25hyperlight_component_util4host14emit_component
FNDA:2,_RNvNtCs6kXspXXDlJP_25hyperlight_component_util4host20emit_export_instance
FNDA:2,_RNvNtCs6kXspXXDlJP_25hyperlight_component_util4host20emit_import_instance
FNDA:3,_RNvNtCs6kXspXXDlJP_25hyperlight_component_util4host21kebab_to_wrapper_name
FNDA:45,_RNvNtCs6kXspXXDlJP_25hyperlight_component_util4host23emit_export_extern_decl
FNDA:49,_RNvNtCs6kXspXXDlJP_25hyperlight_component_util4host23emit_import_extern_decl
FNF:18
FNH:16
DA:34,45
DA:35,45
DA:36,45
DA:37,45
DA:38,45
DA:39,0
DA:40,38
DA:41,38
DA:42,38
DA:43,38
DA:44,38
DA:45,38
DA:46,38
DA:47,38
DA:48,38
DA:49,38
DA:50,38
DA:51,38
DA:52,38
DA:53,38
DA:54,38
DA:55,38
DA:56,38
DA:57,38
DA:58,38
DA:59,38
DA:60,38
DA:61,38
DA:62,38
DA:63,38
DA:64,38
DA:65,38
DA:66,38
DA:67,38
DA:73,0
DA:79,5
DA:81,2
DA:82,2
DA:83,2
DA:84,2
DA:85,2
DA:86,2
DA:87,2
DA:88,2
DA:89,2
DA:90,2
DA:91,2
DA:92,2
DA:93,2
DA:96,0
DA:99,45
DA:104,2
DA:105,2
DA:106,2
DA:107,2
DA:108,2
DA:109,2
DA:110,2
DA:111,43
DA:112,2
DA:113,2
DA:114,2
DA:115,2
DA:116,2
DA:117,2
DA:118,2
DA:119,2
DA:120,2
DA:121,2
DA:122,2
DA:123,2
DA:124,2
DA:125,2
DA:126,2
DA:127,2
DA:128,2
DA:129,2
DA:130,2
DA:131,2
DA:132,2
DA:133,2
DA:134,2
DA:135,2
DA:148,2
DA:149,2
DA:150,2
DA:151,2
DA:152,2
DA:153,2
DA:154,2
DA:155,2
DA:156,2
DA:157,2
DA:158,2
DA:159,2
DA:160,2
DA:161,2
DA:164,2
DA:165,2
DA:166,2
DA:167,2
DA:168,2
DA:169,2
DA:170,2
DA:171,2
DA:172,2
DA:173,2
DA:174,2
DA:175,2
DA:176,2
DA:177,2
DA:178,2
DA:179,2
DA:188,49
DA:189,49
DA:190,49
DA:191,49
DA:192,49
DA:193,49
DA:194,0
DA:195,41
DA:196,41
DA:197,41
DA:198,41
DA:199,41
DA:200,41
DA:201,43
DA:202,43
DA:203,43
DA:204,43
DA:205,43
DA:206,43
DA:207,43
DA:208,41
DA:209,41
DA:210,41
DA:211,39
DA:212,2
DA:213,2
DA:214,2
DA:215,1
DA:216,1
DA:217,0
DA:222,41
DA:223,41
DA:224,41
DA:225,41
DA:226,41
DA:227,41
DA:228,41
DA:229,41
DA:230,41
DA:231,41
DA:232,41
DA:233,41
DA:234,41
DA:235,41
DA:236,41
DA:237,41
DA:238,41
DA:239,41
DA:240,41
DA:241,41
DA:242,41
DA:243,41
DA:244,41
DA:245,41
DA:249,6
DA:251,2
DA:252,2
DA:253,2
DA:254,2
DA:255,2
DA:256,2
DA:257,2
DA:258,2
DA:261,0
DA:264,49
DA:273,2
DA:274,2
DA:275,2
DA:276,2
DA:277,2
DA:278,2
DA:279,2
DA:280,2
DA:281,2
DA:282,2
DA:283,2
DA:284,2
DA:285,2
DA:286,47
DA:287,2
DA:288,2
DA:289,2
DA:290,2
DA:295,3
DA:296,3
DA:297,3
DA:305,1
DA:306,1
DA:307,1
DA:308,1
DA:309,1
DA:310,1
DA:311,1
DA:312,1
DA:313,1
DA:314,1
DA:315,1
DA:316,1
DA:317,1
DA:318,1
DA:319,1
DA:320,1
DA:321,1
DA:322,1
DA:323,1
DA:324,1
DA:325,1
DA:326,1
DA:327,1
DA:328,1
DA:329,2
DA:330,1
DA:331,1
DA:332,1
DA:333,1
DA:334,1
DA:335,1
DA:336,1
DA:337,1
DA:338,1
DA:339,1
DA:340,1
DA:341,2
DA:342,1
DA:343,1
DA:344,1
DA:345,1
DA:346,1
DA:347,1
DA:348,1
DA:349,1
DA:350,1
DA:351,1
DA:352,1
DA:353,1
DA:354,1
DA:355,1
DA:356,1
DA:357,1
DA:358,1
DA:359,1
DA:360,1
DA:361,1
DA:362,1
DA:363,1
DA:364,1
DA:365,1
DA:366,1
DA:367,1
DA:368,1
DA:369,1
DA:370,1
DA:373,1
DA:374,1
DA:375,1
DA:376,1
DA:377,1
DA:378,1
BRF:0
BRH:0
LF:281
LH:273
end_of_record
SF:/home/runner/work/hyperlight/hyperlight/src/hyperlight_component_util/src/resource.rs
FN:46,_RNCNvNtCs6kXspXXDlJP_25hyperlight_component_util8resource11emit_tables0B5_
FN:35,_RNvNtCs6kXspXXDlJP_25hyperlight_component_util8resource11emit_tables
FNDA:11,_RNCNvNtCs6kXspXXDlJP_25hyperlight_component_util8resource11emit_tables0B5_
FNDA:1,_RNvNtCs6kXspXXDlJP_25hyperlight_component_util8resource11emit_tables
FNF:2
FNH:2
DA:35,1
DA:36,1
DA:37,1
DA:38,1
DA:39,1
DA:40,1
DA:41,1
DA:42,1
DA:43,1
DA:44,1
DA:45,1
DA:46,11
DA:47,11
DA:48,11
DA:49,0
DA:51,11
DA:53,11
DA:54,10
DA:56,1
DA:57,1
DA:58,1
DA:59,1
DA:60,1
DA:61,1
DA:62,1
DA:63,1
DA:64,1
DA:65,1
DA:69,0
DA:70,0
DA:71,0
DA:72,0
DA:73,0
DA:74,0
DA:78,11
DA:79,1
DA:80,1
DA:81,0
DA:82,0
DA:83,0
DA:84,0
DA:85,0
DA:86,0
DA:88,1
DA:89,1
DA:90,1
DA:91,1
DA:92,1
DA:93,1
DA:95,1
DA:96,1
DA:97,1
DA:98,1
DA:99,1
DA:100,1
DA:101,1
DA:102,1
DA:103,1
DA:104,1
DA:105,1
DA:106,1
DA:107,1
DA:108,1
DA:109,1
DA:110,1
DA:111,1
BRF:0
BRH:0
LF:68
LH:55
end_of_record
SF:/home/runner/work/hyperlight/hyperlight/src/hyperlight_component_util/src/rtypes.rs
FN:597,_RINvNtCs6kXspXXDlJP_25hyperlight_component_util6rtypes15emit_type_aliasNCNvB2_12emit_defined0EB4_
FN:597,_RINvNtCs6kXspXXDlJP_25hyperlight_component_util6rtypes15emit_type_aliasNCNvB2_12emit_defineds_0EB4_
FN:597,_RINvNtCs6kXspXXDlJP_25hyperlight_component_util6rtypes15emit_type_aliasNCNvB2_19emit_value_toplevels2_0EB4_
FN:553,_RINvNtCs6kXspXXDlJP_25hyperlight_component_util6rtypes18gather_needed_varsNCNvB2_12emit_defined0EB4_
FN:553,_RINvNtCs6kXspXXDlJP_25hyperlight_component_util6rtypes18gather_needed_varsNCNvB2_12emit_defineds_0EB4_
FN:553,_RINvNtCs6kXspXXDlJP_25hyperlight_component_util6rtypes18gather_needed_varsNCNvB2_19emit_value_toplevel0EB4_
FN:553,_RINvNtCs6kXspXXDlJP_25hyperlight_component_util6rtypes18gather_needed_varsNCNvB2_19emit_value_toplevels0_0EB4_
FN:553,_RINvNtCs6kXspXXDlJP_25hyperlight_component_util6rtypes18gather_needed_varsNCNvB2_19emit_value_toplevels1_0EB4_
FN:553,_RINvNtCs6kXspXXDlJP_25hyperlight_component_util6rtypes18gather_needed_varsNCNvB2_19emit_value_toplevels2_0EB4_
FN:553,_RINvNtCs6kXspXXDlJP_25hyperlight_component_util6rtypes18gather_needed_varsNCNvB2_19emit_value_toplevels_0EB4_
FN:367,_RNCNCNvNtCs6kXspXXDlJP_25hyperlight_component_util6rtypes19emit_value_toplevel00B7_
FN:420,_RNCNCNvNtCs6kXspXXDlJP_25hyperlight_component_util6rtypes19emit_value_toplevels0_00B7_
FN:460,_RNCNCNvNtCs6kXspXXDlJP_25hyperlight_component_util6rtypes19emit_value_toplevels1_00B7_
FN:402,_RNCNCNvNtCs6kXspXXDlJP_25hyperlight_component_util6rtypes19emit_value_toplevels_00B7_
FN:291,_RNCNvNtCs6kXspXXDlJP_25hyperlight_component_util6rtypes10emit_value0B5_
FN:314,_RNCNvNtCs6kXspXXDlJP_25hyperlight_component_util6rtypes10emit_values0_0B5_
FN:334,_RNCNvNtCs6kXspXXDlJP_25hyperlight_component_util6rtypes10emit_values1_0B5_
FN:336,_RNCNvNtCs6kXspXXDlJP_25hyperlight_component_util6rtypes10emit_values2_0B5_
FN:312,_RNCNvNtCs6kXspXXDlJP_25hyperlight_component_util6rtypes10emit_values_0B5_
FN:509,_RNCNvNtCs6kXspXXDlJP_25hyperlight_component_util6rtypes12emit_defined0B5_
FN:512,_RNCNvNtCs6kXspXXDlJP_25hyperlight_component_util6rtypes12emit_defineds_0B5_
FN:773,_RNCNvNtCs6kXspXXDlJP_25hyperlight_component_util6rtypes13emit_instance0B5_
FN:829,_RNCNvNtCs6kXspXXDlJP_25hyperlight_component_util6rtypes14emit_component0B5_
FN:852,_RNCNvNtCs6kXspXXDlJP_25hyperlight_component_util6rtypes14emit_components_0B5_
FN:625,_RNCNvNtCs6kXspXXDlJP_25hyperlight_component_util6rtypes16emit_extern_decl0B5_
FN:721,_RNCNvNtCs6kXspXXDlJP_25hyperlight_component_util6rtypes16emit_extern_decls0_0B5_
FN:640,_RNCNvNtCs6kXspXXDlJP_25hyperlight_component_util6rtypes16emit_extern_decls_0B5_
FN:99,_RNCNvNtCs6kXspXXDlJP_25hyperlight_component_util6rtypes17emit_resource_ref0B5_
FN:229,_RNCNvNtCs6kXspXXDlJP_25hyperlight_component_util6rtypes17emit_var_ref_noff0B5_
FN:364,_RNCNvNtCs6kXspXXDlJP_25hyperlight_component_util6rtypes19emit_value_toplevel0B5_
FN:417,_RNCNvNtCs6kXspXXDlJP_25hyperlight_component_util6rtypes19emit_value_toplevels0_0B5_
FN:457,_RNCNvNtCs6kXspXXDlJP_25hyperlight_component_util6rtypes19emit_value_toplevels1_0B5_
FN:491,_RNCNvNtCs6kXspXXDlJP_25hyperlight_component_util6rtypes19emit_value_toplevels2_0B5_
FN:399,_RNCNvNtCs6kXspXXDlJP_25hyperlight_component_util6rtypes19emit_value_toplevels_0B5_
FN:159,_RNCNvNtCs6kXspXXDlJP_25hyperlight_component_util6rtypes21try_find_local_var_id0B5_
FN:576,_RNCNvNtCs6kXspXXDlJP_25hyperlight_component_util6rtypes23emit_type_defn_var_list0B5_
FN:544,_RNCNvNtCs6kXspXXDlJP_25hyperlight_component_util6rtypes9emit_func0B5_
FN:42,_RNCNvNtCs6kXspXXDlJP_25hyperlight_component_util6rtypes9emit_tvis0B5_
FN:271,_RNvNtCs6kXspXXDlJP_25hyperlight_component_util6rtypes10emit_value
FN:501,_RNvNtCs6kXspXXDlJP_25hyperlight_component_util6rtypes12emit_defined
FN:193,_RNvNtCs6kXspXXDlJP_25hyperlight_component_util6rtypes12emit_var_ref
FN:744,_RNvNtCs6kXspXXDlJP_25hyperlight_component_util6rtypes13emit_instance
FN:874,_RNvNtCs6kXspXXDlJP_25hyperlight_component_util6rtypes13emit_toplevel
FN:258,_RNvNtCs6kXspXXDlJP_25hyperlight_component_util6rtypes13numeric_rtype
FN:811,_RNvNtCs6kXspXXDlJP_25hyperlight_component_util6rtypes14emit_component
FN:519,_RNvNtCs6kXspXXDlJP_25hyperlight_component_util6rtypes15emit_func_param
FN:610,_RNvNtCs6kXspXXDlJP_25hyperlight_component_util6rtypes16emit_extern_decl
FN:529,_RNvNtCs6kXspXXDlJP_25hyperlight_component_util6rtypes16emit_func_result
FN:58,_RNvNtCs6kXspXXDlJP_25hyperlight_component_util6rtypes17emit_resource_ref
FN:218,_RNvNtCs6kXspXXDlJP_25hyperlight_component_util6rtypes17emit_var_ref_noff
FN:206,_RNvNtCs6kXspXXDlJP_25hyperlight_component_util6rtypes18emit_var_ref_value
FN:360,_RNvNtCs6kXspXXDlJP_25hyperlight_component_util6rtypes19emit_value_toplevel
FN:132,_RNvNtCs6kXspXXDlJP_25hyperlight_component_util6rtypes21try_find_local_var_id
FN:570,_RNvNtCs6kXspXXDlJP_25hyperlight_component_util6rtypes23emit_type_defn_var_list
FN:540,_RNvNtCs6kXspXXDlJP_25hyperlight_component_util6rtypes9emit_func
FN:39,_RNvNtCs6kXspXXDlJP_25hyperlight_component_util6rtypes9emit_tvis
FN:670,_RNvNvNtCs6kXspXXDlJP_25hyperlight_component_util6rtypes16emit_extern_decl10go_defined
FNDA:0,_RINvNtCs6kXspXXDlJP_25hyperlight_component_util6rtypes15emit_type_aliasNCNvB2_12emit_defined0EB4_
FNDA:0,_RINvNtCs6kXspXXDlJP_25hyperlight_component_util6rtypes15emit_type_aliasNCNvB2_12emit_defineds_0EB4_
FNDA:0,_RINvNtCs6kXspXXDlJP_25hyperlight_component_util6rtypes15emit_type_aliasNCNvB2_19emit_value_toplevels2_0EB4_
FNDA:0,_RINvNtCs6kXspXXDlJP_25hyperlight_component_util6rtypes18gather_needed_varsNCNvB2_12emit_defined0EB4_
FNDA:0,_RINvNtCs6kXspXXDlJP_25hyperlight_component_util6rtypes18gather_needed_varsNCNvB2_12emit_defineds_0EB4_
FNDA:1,_RINvNtCs6kXspXXDlJP_25hyperlight_component_util6rtypes18gather_needed_varsNCNvB2_19emit_value_toplevel0EB4_
FNDA:1,_RINvNtCs6kXspXXDlJP_25hyperlight_component_util6rtypes18gather_needed_varsNCNvB2_19emit_value_toplevels0_0EB4_
FNDA:1,_RINvNtCs6kXspXXDlJP_25hyperlight_component_util6rtypes18gather_needed_varsNCNvB2_19emit_value_toplevels1_0EB4_
FNDA:0,_RINvNtCs6kXspXXDlJP_25hyperlight_component_util6rtypes18gather_needed_varsNCNvB2_19emit_value_toplevels2_0EB4_
FNDA:2,_RINvNtCs6kXspXXDlJP_25hyperlight_component_util6rtypes18gather_needed_varsNCNvB2_19emit_value_toplevels_0EB4_
FNDA:2,_RNCNCNvNtCs6kXspXXDlJP_25hyperlight_component_util6rtypes19emit_value_toplevel00B7_
FNDA:3,_RNCNCNvNtCs6kXspXXDlJP_25hyperlight_component_util6rtypes19emit_value_toplevels0_00B7_
FNDA:3,_RNCNCNvNtCs6kXspXXDlJP_25hyperlight_component_util6rtypes19emit_value_toplevels1_00B7_
FNDA:35,_RNCNCNvNtCs6kXspXXDlJP_25hyperlight_component_util6rtypes19emit_value_toplevels_00B7_
FNDA:8,_RNCNvNtCs6kXspXXDlJP_25hyperlight_component_util6rtypes10emit_value0B5_
FNDA:0,_RNCNvNtCs6kXspXXDlJP_25hyperlight_component_util6rtypes10emit_values0_0B5_
FNDA:0,_RNCNvNtCs6kXspXXDlJP_25hyperlight_component_util6rtypes10emit_values1_0B5_
FNDA:0,_RNCNvNtCs6kXspXXDlJP_25hyperlight_component_util6rtypes10emit_values2_0B5_
FNDA:0,_RNCNvNtCs6kXspXXDlJP_25hyperlight_component_util6rtypes10emit_values_0B5_
FNDA:0,_RNCNvNtCs6kXspXXDlJP_25hyperlight_component_util6rtypes12emit_defined0B5_
FNDA:0,_RNCNvNtCs6kXspXXDlJP_25hyperlight_component_util6rtypes12emit_defineds_0B5_
FNDA:48,_RNCNvNtCs6kXspXXDlJP_25hyperlight_component_util6rtypes13emit_instance0B5_
FNDA:2,_RNCNvNtCs6kXspXXDlJP_25hyperlight_component_util6rtypes14emit_component0B5_
FNDA:2,_RNCNvNtCs6kXspXXDlJP_25hyperlight_component_util6rtypes14emit_components_0B5_
FNDA:39,_RNCNvNtCs6kXspXXDlJP_25hyperlight_component_util6rtypes16emit_extern_decl0B5_
FNDA:0,_RNCNvNtCs6kXspXXDlJP_25hyperlight_component_util6rtypes16emit_extern_decls0_0B5_
FNDA:4,_RNCNvNtCs6kXspXXDlJP_25hyperlight_component_util6rtypes16emit_extern_decls_0B5_
FNDA:0,_RNCNvNtCs6kXspXXDlJP_25hyperlight_component_util6rtypes17emit_resource_ref0B5_
FNDA:0,_RNCNvNtCs6kXspXXDlJP_25hyperlight_component_util6rtypes17emit_var_ref_noff0B5_
FNDA:1,_RNCNvNtCs6kXspXXDlJP_25hyperlight_component_util6rtypes19emit_value_toplevel0B5_
FNDA:1,_RNCNvNtCs6kXspXXDlJP_25hyperlight_component_util6rtypes19emit_value_toplevels0_0B5_
FNDA:1,_RNCNvNtCs6kXspXXDlJP_25hyperlight_component_util6rtypes19emit_value_toplevels1_0B5_
FNDA:0,_RNCNvNtCs6kXspXXDlJP_25hyperlight_component_util6rtypes19emit_value_toplevels2_0B5_
FNDA:2,_RNCNvNtCs6kXspXXDlJP_25hyperlight_component_util6rtypes19emit_value_toplevels_0B5_
FNDA:5,_RNCNvNtCs6kXspXXDlJP_25hyperlight_component_util6rtypes21try_find_local_var_id0B5_
FNDA:0,_RNCNvNtCs6kXspXXDlJP_25hyperlight_component_util6rtypes23emit_type_defn_var_list0B5_
FNDA:0,_RNCNvNtCs6kXspXXDlJP_25hyperlight_component_util6rtypes9emit_func0B5_
FNDA:0,_RNCNvNtCs6kXspXXDlJP_25hyperlight_component_util6rtypes9emit_tvis0B5_
FNDA:247,_RNvNtCs6kXspXXDlJP_25hyperlight_component_util6rtypes10emit_value
FNDA:5,_RNvNtCs6kXspXXDlJP_25hyperlight_component_util6rtypes12emit_defined
FNDA:25,_RNvNtCs6kXspXXDlJP_25hyperlight_component_util6rtypes12emit_var_ref
FNDA:4,_RNvNtCs6kXspXXDlJP_25hyperlight_component_util6rtypes13emit_instance
FNDA:1,_RNvNtCs6kXspXXDlJP_25hyperlight_component_util6rtypes13emit_toplevel
FNDA:201,_RNvNtCs6kXspXXDlJP_25hyperlight_component_util6rtypes13numeric_rtype
FNDA:1,_RNvNtCs6kXspXXDlJP_25hyperlight_component_util6rtypes14emit_component
FNDA:80,_RNvNtCs6kXspXXDlJP_25hyperlight_component_util6rtypes15emit_func_param
FNDA:52,_RNvNtCs6kXspXXDlJP_25hyperlight_component_util6rtypes16emit_extern_decl
FNDA:79,_RNvNtCs6kXspXXDlJP_25hyperlight_component_util6rtypes16emit_func_result
FNDA:4,_RNvNtCs6kXspXXDlJP_25hyperlight_component_util6rtypes17emit_resource_ref
FNDA:45,_RNvNtCs6kXspXXDlJP_25hyperlight_component_util6rtypes17emit_var_ref_noff
FNDA:20,_RNvNtCs6kXspXXDlJP_25hyperlight_component_util6rtypes18emit_var_ref_value
FNDA:5,_RNvNtCs6kXspXXDlJP_25hyperlight_component_util6rtypes19emit_value_toplevel
FNDA:45,_RNvNtCs6kXspXXDlJP_25hyperlight_component_util6rtypes21try_find_local_var_id
FNDA:5,_RNvNtCs6kXspXXDlJP_25hyperlight_component_util6rtypes23emit_type_defn_var_list
FNDA:0,_RNvNtCs6kXspXXDlJP_25hyperlight_component_util6rtypes9emit_func
FNDA:5,_RNvNtCs6kXspXXDlJP_25hyperlight_component_util6rtypes9emit_tvis
FNDA:5,_RNvNvNtCs6kXspXXDlJP_25hyperlight_component_util6rtypes16emit_extern_decl10go_defined
FNF:49
FNH:34
DA:39,5
DA:40,5
DA:41,5
DA:42,5
DA:43,5
DA:44,5
DA:45,0
DA:47,5
DA:49,5
DA:58,4
DA:59,4
DA:60,4
DA:61,4
DA:62,4
DA:68,0
DA:69,0
DA:70,4
DA:71,4
DA:72,4
DA:73,4
DA:74,4
DA:75,4
DA:76,4
DA:77,4
DA:78,4
DA:79,3
DA:80,3
DA:81,3
DA:82,3
DA:83,3
DA:84,3
DA:85,0
DA:86,3
DA:87,3
DA:88,1
DA:89,1
DA:90,1
DA:91,1
DA:92,1
DA:93,1
DA:94,1
DA:95,1
DA:96,1
DA:97,1
DA:98,1
DA:99,1
DA:100,0
DA:101,0
DA:102,1
DA:103,1
DA:104,1
DA:105,1
DA:106,1
DA:107,1
DA:108,1
DA:109,1
DA:110,1
DA:111,1
DA:112,1
DA:113,0
DA:114,0
DA:115,0
DA:116,0
DA:117,1
DA:118,1
DA:119,1
DA:120,1
DA:121,1
DA:122,1
DA:123,1
DA:124,4
DA:132,45
DA:133,45
DA:134,45
DA:135,45
DA:136,45
DA:137,45
DA:138,45
DA:139,40
DA:140,5
DA:142,45
DA:144,5
DA:146,1
DA:147,1
DA:148,0
DA:149,0
DA:150,0
DA:152,4
DA:153,5
DA:154,5
DA:155,5
DA:156,4
DA:157,4
DA:158,4
DA:159,5
DA:160,1
DA:161,4
DA:162,5
DA:163,4
DA:164,4
DA:166,40
DA:167,40
DA:168,40
DA:169,40
DA:170,40
DA:171,40
DA:173,30
DA:174,30
DA:175,30
DA:176,30
DA:177,30
DA:179,10
DA:180,10
DA:183,0
DA:185,45
DA:193,25
DA:194,25
DA:195,0
DA:197,25
DA:198,25
DA:206,20
DA:207,20
DA:208,0
DA:210,20
DA:211,20
DA:218,45
DA:219,45
DA:221,45
DA:222,45
DA:223,45
DA:224,45
DA:225,45
DA:226,45
DA:227,45
DA:228,45
DA:229,45
DA:230,45
DA:231,45
DA:232,0
DA:233,0
DA:235,0
DA:238,45
DA:241,45
DA:246,0
DA:247,0
DA:248,0
DA:251,45
DA:252,45
DA:258,201
DA:259,201
DA:260,64
DA:261,105
DA:262,32
DA:263,0
DA:265,201
DA:271,247
DA:272,20
DA:273,6
DA:275,99
DA:276,99
DA:278,11
DA:279,27
DA:280,12
DA:281,12
DA:282,12
DA:284,56
DA:285,56
DA:286,56
DA:287,56
DA:289,0
DA:290,4
DA:291,8
DA:292,4
DA:294,0
DA:295,0
DA:296,0
DA:297,4
DA:298,4
DA:299,4
DA:301,4
DA:302,4
DA:303,4
DA:304,4
DA:305,4
DA:307,3
DA:308,0
DA:309,3
DA:310,3
DA:311,0
DA:312,0
DA:313,0
DA:314,0
DA:315,0
DA:316,0
DA:317,0
DA:319,0
DA:320,0
DA:321,0
DA:322,0
DA:325,3
DA:329,1
DA:330,0
DA:331,1
DA:332,1
DA:333,0
DA:334,0
DA:335,0
DA:336,0
DA:337,0
DA:338,0
DA:339,0
DA:341,0
DA:342,0
DA:343,0
DA:344,0
DA:347,1
DA:348,1
DA:352,20
DA:353,0
DA:355,247
DA:360,5
DA:361,5
DA:362,5
DA:363,1
DA:364,1
DA:365,1
DA:366,1
DA:367,2
DA:368,2
DA:369,2
DA:370,2
DA:371,0
DA:373,2
DA:375,2
DA:376,2
DA:377,2
DA:378,1
DA:379,1
DA:380,1
DA:381,1
DA:382,1
DA:383,0
DA:384,0
DA:385,0
DA:386,0
DA:387,0
DA:388,0
DA:390,1
DA:392,1
DA:393,1
DA:394,1
DA:395,1
DA:396,1
DA:398,2
DA:399,2
DA:400,2
DA:401,2
DA:402,35
DA:403,35
DA:404,35
DA:405,35
DA:406,35
DA:407,2
DA:408,2
DA:409,2
DA:410,2
DA:411,2
DA:412,2
DA:413,2
DA:414,2
DA:416,1
DA:417,1
DA:418,1
DA:419,1
DA:420,3
DA:421,3
DA:422,3
DA:423,3
DA:424,0
DA:426,3
DA:428,3
DA:429,2
DA:430,2
DA:431,2
DA:433,1
DA:435,3
DA:436,1
DA:437,1
DA:438,1
DA:439,1
DA:440,1
DA:441,0
DA:442,0
DA:443,0
DA:444,0
DA:445,0
DA:446,0
DA:448,1
DA:450,1
DA:451,1
DA:452,1
DA:453,1
DA:454,1
DA:456,1
DA:457,1
DA:458,1
DA:459,1
DA:460,3
DA:461,3
DA:462,3
DA:463,3
DA:464,0
DA:466,3
DA:468,3
DA:469,3
DA:470,1
DA:471,1
DA:472,1
DA:473,1
DA:474,1
DA:475,0
DA:476,0
DA:477,0
DA:478,0
DA:479,0
DA:480,0
DA:481,0
DA:483,1
DA:485,1
DA:486,1
DA:487,1
DA:488,1
DA:489,1
DA:491,0
DA:493,5
DA:501,5
DA:502,0
DA:505,0
DA:507,0
DA:508,0
DA:509,0
DA:511,5
DA:512,0
DA:514,5
DA:519,80
DA:520,80
DA:521,80
DA:522,80
DA:523,80
DA:529,79
DA:530,79
DA:531,75
DA:532,4
DA:534,79
DA:540,0
DA:541,0
DA:542,0
DA:543,0
DA:544,0
DA:545,0
DA:546,0
DA:547,0
DA:548,0
DA:553,5
DA:554,5
DA:555,5
DA:556,5
DA:557,5
DA:558,5
DA:559,5
DA:560,5
DA:561,5
DA:562,5
DA:563,5
DA:564,5
DA:565,5
DA:566,5
DA:570,5
DA:571,5
DA:572,5
DA:574,0
DA:575,0
DA:576,0
DA:577,0
DA:578,0
DA:579,0
DA:581,0
DA:582,0
DA:584,0
DA:585,0
DA:586,0
DA:588,5
DA:597,0
DA:598,0
DA:599,0
DA:600,0
DA:601,0
DA:602,0
DA:603,0
DA:604,0
DA:605,0
DA:606,0
DA:610,52
DA:611,52
DA:612,52
DA:613,52
DA:614,52
DA:615,52
DA:616,52
DA:617,0
DA:618,42
DA:619,42
DA:620,42
DA:621,40
DA:622,40
DA:623,40
DA:624,40
DA:625,40
DA:626,40
DA:627,40
DA:628,40
DA:629,40
DA:630,40
DA:632,2
DA:633,2
DA:634,2
DA:635,2
DA:636,2
DA:637,2
DA:638,2
DA:639,2
DA:640,4
DA:641,2
DA:642,2
DA:644,1
DA:645,1
DA:646,1
DA:648,1
DA:649,1
DA:650,1
DA:651,1
DA:652,1
DA:654,0
DA:655,0
DA:656,0
DA:657,0
DA:658,0
DA:661,2
DA:662,0
DA:663,0
DA:664,0
DA:665,2
DA:669,6
DA:670,5
DA:671,5
DA:672,5
DA:673,5
DA:674,5
DA:675,5
DA:676,5
DA:677,5
DA:678,5
DA:679,5
DA:680,5
DA:681,5
DA:682,5
DA:683,6
DA:684,6
DA:685,6
DA:686,6
DA:687,5
DA:688,5
DA:689,5
DA:690,5
DA:691,5
DA:692,5
DA:693,5
DA:696,1
DA:697,1
DA:698,1
DA:699,1
DA:700,1
DA:701,1
DA:702,1
DA:703,1
DA:707,0
DA:710,4
DA:711,4
DA:712,4
DA:713,4
DA:714,4
DA:715,4
DA:716,4
DA:717,4
DA:718,0
DA:719,0
DA:720,0
DA:721,0
DA:722,0
DA:724,4
DA:727,4
DA:728,4
DA:729,4
DA:730,4
DA:731,4
DA:732,4
DA:733,4
DA:734,4
DA:737,0
DA:740,52
DA:744,4
DA:745,4
DA:746,4
DA:747,4
DA:748,4
DA:749,4
DA:750,4
DA:751,4
DA:752,4
DA:764,1
DA:765,3
DA:766,3
DA:767,3
DA:768,3
DA:769,3
DA:770,3
DA:771,3
DA:772,3
DA:773,48
DA:774,3
DA:775,3
DA:776,3
DA:777,3
DA:778,3
DA:779,3
DA:780,3
DA:781,3
DA:782,1
DA:783,1
DA:784,1
DA:787,3
DA:788,3
DA:789,3
DA:790,1
DA:791,1
DA:792,3
DA:793,1
DA:794,1
DA:796,3
DA:797,3
DA:798,3
DA:799,0
DA:800,0
DA:801,0
DA:803,3
DA:804,4
DA:811,1
DA:812,1
DA:813,1
DA:814,1
DA:815,1
DA:816,1
DA:817,1
DA:818,1
DA:819,1
DA:820,1
DA:821,1
DA:822,1
DA:823,1
DA:824,1
DA:825,1
DA:826,1
DA:827,1
DA:828,1
DA:829,2
DA:830,1
DA:831,1
DA:833,1
DA:834,1
DA:835,1
DA:836,1
DA:837,1
DA:838,1
DA:839,1
DA:840,1
DA:841,1
DA:842,1
DA:843,1
DA:844,1
DA:845,1
DA:846,1
DA:847,1
DA:848,1
DA:849,1
DA:850,1
DA:851,1
DA:852,2
DA:853,1
DA:854,1
DA:855,1
DA:856,1
DA:857,1
DA:858,1
DA:860,1
DA:861,1
DA:862,1
DA:863,1
DA:864,1
DA:865,1
DA:866,1
DA:867,1
DA:868,1
DA:869,1
DA:870,1
DA:871,1
DA:874,1
DA:875,1
DA:876,1
DA:877,1
BRF:0
BRH:0
LF:658
LH:513
end_of_record
SF:/home/runner/work/hyperlight/hyperlight/src/hyperlight_component_util/src/substitute.rs
FN:618,_RNCNvMsb_NtCs6kXspXXDlJP_25hyperlight_component_util10substituteNtB7_7Closing11subst_uevar0B9_
FN:636,_RNCNvMsb_NtCs6kXspXXDlJP_25hyperlight_component_util10substituteNtB7_7Closing11subst_uevars0_0B9_
FN:625,_RNCNvMsb_NtCs6kXspXXDlJP_25hyperlight_component_util10substituteNtB7_7Closing11subst_uevars_0B9_
FN:532,_RNCNvXs9_NtCs6kXspXXDlJP_25hyperlight_component_util10substituteNtB7_7OpeningNtB7_12Substitution10subst_bvar0B9_
FN:87,_RNCNvYINtNtCs6kXspXXDlJP_25hyperlight_component_util10substitute7ShiftedNtB7_7ClosingENtB7_12Substitution12value_option0B9_
FN:65,_RNCNvYINtNtCs6kXspXXDlJP_25hyperlight_component_util10substitute7ShiftedNtB7_7ClosingENtB7_12Substitution13record_fields0B9_
FN:76,_RNCNvYINtNtCs6kXspXXDlJP_25hyperlight_component_util10substitute7ShiftedNtB7_7ClosingENtB7_12Substitution13variant_cases0B9_
FN:107,_RNCNvYINtNtCs6kXspXXDlJP_25hyperlight_component_util10substitute7ShiftedNtB7_7ClosingENtB7_12Substitution5value0B9_
FN:117,_RNCNvYINtNtCs6kXspXXDlJP_25hyperlight_component_util10substitute7ShiftedNtB7_7ClosingENtB7_12Substitution5values_0B9_
FN:135,_RNCNvYINtNtCs6kXspXXDlJP_25hyperlight_component_util10substitute7ShiftedNtB7_7ClosingENtB7_12Substitution6params0B9_
FN:223,_RNCNvYINtNtCs6kXspXXDlJP_25hyperlight_component_util10substitute7ShiftedNtB7_7ClosingENtB7_12Substitution8instance0B9_
FN:257,_RNCNvYINtNtCs6kXspXXDlJP_25hyperlight_component_util10substitute7ShiftedNtB7_7ClosingENtB7_12Substitution9component0B9_
FN:87,_RNCNvYINtNtCs6kXspXXDlJP_25hyperlight_component_util10substitute7ShiftedNtB7_7OpeningENtB7_12Substitution12value_option0B9_
FN:65,_RNCNvYINtNtCs6kXspXXDlJP_25hyperlight_component_util10substitute7ShiftedNtB7_7OpeningENtB7_12Substitution13record_fields0B9_
FN:76,_RNCNvYINtNtCs6kXspXXDlJP_25hyperlight_component_util10substitute7ShiftedNtB7_7OpeningENtB7_12Substitution13variant_cases0B9_
FN:107,_RNCNvYINtNtCs6kXspXXDlJP_25hyperlight_component_util10substitute7ShiftedNtB7_7OpeningENtB7_12Substitution5value0B9_
FN:117,_RNCNvYINtNtCs6kXspXXDlJP_25hyperlight_component_util10substitute7ShiftedNtB7_7OpeningENtB7_12Substitution5values_0B9_
FN:135,_RNCNvYINtNtCs6kXspXXDlJP_25hyperlight_component_util10substitute7ShiftedNtB7_7OpeningENtB7_12Substitution6params0B9_
FN:223,_RNCNvYINtNtCs6kXspXXDlJP_25hyperlight_component_util10substitute7ShiftedNtB7_7OpeningENtB7_12Substitution8instance0B9_
FN:257,_RNCNvYINtNtCs6kXspXXDlJP_25hyperlight_component_util10substitute7ShiftedNtB7_7OpeningENtB7_12Substitution9component0B9_
FN:87,_RNCNvYINtNtCs6kXspXXDlJP_25hyperlight_component_util10substitute7ShiftedNtB7_7RBShiftENtB7_12Substitution12value_option0B9_
FN:65,_RNCNvYINtNtCs6kXspXXDlJP_25hyperlight_component_util10substitute7ShiftedNtB7_7RBShiftENtB7_12Substitution13record_fields0B9_
FN:76,_RNCNvYINtNtCs6kXspXXDlJP_25hyperlight_component_util10substitute7ShiftedNtB7_7RBShiftENtB7_12Substitution13variant_cases0B9_
FN:107,_RNCNvYINtNtCs6kXspXXDlJP_25hyperlight_component_util10substitute7ShiftedNtB7_7RBShiftENtB7_12Substitution5value0B9_
FN:117,_RNCNvYINtNtCs6kXspXXDlJP_25hyperlight_component_util10substitute7ShiftedNtB7_7RBShiftENtB7_12Substitution5values_0B9_
FN:135,_RNCNvYINtNtCs6kXspXXDlJP_25hyperlight_component_util10substitute7ShiftedNtB7_7RBShiftENtB7_12Substitution6params0B9_
FN:223,_RNCNvYINtNtCs6kXspXXDlJP_25hyperlight_component_util10substitute7ShiftedNtB7_7RBShiftENtB7_12Substitution8instance0B9_
FN:257,_RNCNvYINtNtCs6kXspXXDlJP_25hyperlight_component_util10substitute7ShiftedNtB7_7RBShiftENtB7_12Substitution9component0B9_
FN:87,_RNCNvYINtNtCs6kXspXXDlJP_25hyperlight_component_util10substitute7ShiftedNtB7_8InnerizeENtB7_12Substitution12value_option0B9_
FN:65,_RNCNvYINtNtCs6kXspXXDlJP_25hyperlight_component_util10substitute7ShiftedNtB7_8InnerizeENtB7_12Substitution13record_fields0B9_
FN:76,_RNCNvYINtNtCs6kXspXXDlJP_25hyperlight_component_util10substitute7ShiftedNtB7_8InnerizeENtB7_12Substitution13variant_cases0B9_
FN:107,_RNCNvYINtNtCs6kXspXXDlJP_25hyperlight_component_util10substitute7ShiftedNtB7_8InnerizeENtB7_12Substitution5value0B9_
FN:117,_RNCNvYINtNtCs6kXspXXDlJP_25hyperlight_component_util10substitute7ShiftedNtB7_8InnerizeENtB7_12Substitution5values_0B9_
FN:135,_RNCNvYINtNtCs6kXspXXDlJP_25hyperlight_component_util10substitute7ShiftedNtB7_8InnerizeENtB7_12Substitution6params0B9_
FN:223,_RNCNvYINtNtCs6kXspXXDlJP_25hyperlight_component_util10substitute7ShiftedNtB7_8InnerizeENtB7_12Substitution8instance0B9_
FN:257,_RNCNvYINtNtCs6kXspXXDlJP_25hyperlight_component_util10substitute7ShiftedNtB7_8InnerizeENtB7_12Substitution9component0B9_
FN:87,_RNCNvYNtNtCs6kXspXXDlJP_25hyperlight_component_util10substitute7ClosingNtB6_12Substitution12value_option0B8_
FN:65,_RNCNvYNtNtCs6kXspXXDlJP_25hyperlight_component_util10substitute7ClosingNtB6_12Substitution13record_fields0B8_
FN:76,_RNCNvYNtNtCs6kXspXXDlJP_25hyperlight_component_util10substitute7ClosingNtB6_12Substitution13variant_cases0B8_
FN:107,_RNCNvYNtNtCs6kXspXXDlJP_25hyperlight_component_util10substitute7ClosingNtB6_12Substitution5value0B8_
FN:117,_RNCNvYNtNtCs6kXspXXDlJP_25hyperlight_component_util10substitute7ClosingNtB6_12Substitution5values_0B8_
FN:135,_RNCNvYNtNtCs6kXspXXDlJP_25hyperlight_component_util10substitute7ClosingNtB6_12Substitution6params0B8_
FN:223,_RNCNvYNtNtCs6kXspXXDlJP_25hyperlight_component_util10substitute7ClosingNtB6_12Substitution8instance0B8_
FN:257,_RNCNvYNtNtCs6kXspXXDlJP_25hyperlight_component_util10substitute7ClosingNtB6_12Substitution9component0B8_
FN:87,_RNCNvYNtNtCs6kXspXXDlJP_25hyperlight_component_util10substitute7OpeningNtB6_12Substitution12value_option0B8_
FN:65,_RNCNvYNtNtCs6kXspXXDlJP_25hyperlight_component_util10substitute7OpeningNtB6_12Substitution13record_fields0B8_
FN:76,_RNCNvYNtNtCs6kXspXXDlJP_25hyperlight_component_util10substitute7OpeningNtB6_12Substitution13variant_cases0B8_
FN:107,_RNCNvYNtNtCs6kXspXXDlJP_25hyperlight_component_util10substitute7OpeningNtB6_12Substitution5value0B8_
FN:117,_RNCNvYNtNtCs6kXspXXDlJP_25hyperlight_component_util10substitute7OpeningNtB6_12Substitution5values_0B8_
FN:135,_RNCNvYNtNtCs6kXspXXDlJP_25hyperlight_component_util10substitute7OpeningNtB6_12Substitution6params0B8_
FN:223,_RNCNvYNtNtCs6kXspXXDlJP_25hyperlight_component_util10substitute7OpeningNtB6_12Substitution8instance0B8_
FN:257,_RNCNvYNtNtCs6kXspXXDlJP_25hyperlight_component_util10substitute7OpeningNtB6_12Substitution9component0B8_
FN:87,_RNCNvYNtNtCs6kXspXXDlJP_25hyperlight_component_util10substitute7RBShiftNtB6_12Substitution12value_option0B8_
FN:65,_RNCNvYNtNtCs6kXspXXDlJP_25hyperlight_component_util10substitute7RBShiftNtB6_12Substitution13record_fields0B8_
FN:76,_RNCNvYNtNtCs6kXspXXDlJP_25hyperlight_component_util10substitute7RBShiftNtB6_12Substitution13variant_cases0B8_
FN:107,_RNCNvYNtNtCs6kXspXXDlJP_25hyperlight_component_util10substitute7RBShiftNtB6_12Substitution5value0B8_
FN:117,_RNCNvYNtNtCs6kXspXXDlJP_25hyperlight_component_util10substitute7RBShiftNtB6_12Substitution5values_0B8_
FN:135,_RNCNvYNtNtCs6kXspXXDlJP_25hyperlight_component_util10substitute7RBShiftNtB6_12Substitution6params0B8_
FN:257,_RNCNvYNtNtCs6kXspXXDlJP_25hyperlight_component_util10substitute7RBShiftNtB6_12Substitution9component0B8_
FN:87,_RNCNvYNtNtCs6kXspXXDlJP_25hyperlight_component_util10substitute8InnerizeNtB6_12Substitution12value_option0B8_
FN:65,_RNCNvYNtNtCs6kXspXXDlJP_25hyperlight_component_util10substitute8InnerizeNtB6_12Substitution13record_fields0B8_
FN:76,_RNCNvYNtNtCs6kXspXXDlJP_25hyperlight_component_util10substitute8InnerizeNtB6_12Substitution13variant_cases0B8_
FN:107,_RNCNvYNtNtCs6kXspXXDlJP_25hyperlight_component_util10substitute8InnerizeNtB6_12Substitution5value0B8_
FN:117,_RNCNvYNtNtCs6kXspXXDlJP_25hyperlight_component_util10substitute8InnerizeNtB6_12Substitution5values_0B8_
FN:135,_RNCNvYNtNtCs6kXspXXDlJP_25hyperlight_component_util10substitute8InnerizeNtB6_12Substitution6params0B8_
FN:257,_RNCNvYNtNtCs6kXspXXDlJP_25hyperlight_component_util10substitute8InnerizeNtB6_12Substitution9component0B8_
FN:382,_RNvMs2_NtCs6kXspXXDlJP_25hyperlight_component_util10substituteINtB5_7ShiftedNtB5_7ClosingE11sub_rbshiftB7_
FN:353,_RNvMs2_NtCs6kXspXXDlJP_25hyperlight_component_util10substituteINtB5_7ShiftedNtB5_7ClosingE3newB7_
FN:363,_RNvMs2_NtCs6kXspXXDlJP_25hyperlight_component_util10substituteINtB5_7ShiftedNtB5_7ClosingE6bshiftB7_
FN:378,_RNvMs2_NtCs6kXspXXDlJP_25hyperlight_component_util10substituteINtB5_7ShiftedNtB5_7ClosingE7rbshiftB7_
FN:382,_RNvMs2_NtCs6kXspXXDlJP_25hyperlight_component_util10substituteINtB5_7ShiftedNtB5_7OpeningE11sub_rbshiftB7_
FN:353,_RNvMs2_NtCs6kXspXXDlJP_25hyperlight_component_util10substituteINtB5_7ShiftedNtB5_7OpeningE3newB7_
FN:363,_RNvMs2_NtCs6kXspXXDlJP_25hyperlight_component_util10substituteINtB5_7ShiftedNtB5_7OpeningE6bshiftB7_
FN:378,_RNvMs2_NtCs6kXspXXDlJP_25hyperlight_component_util10substituteINtB5_7ShiftedNtB5_7OpeningE7rbshiftB7_
FN:382,_RNvMs2_NtCs6kXspXXDlJP_25hyperlight_component_util10substituteINtB5_7ShiftedNtB5_7RBShiftE11sub_rbshiftB7_
FN:353,_RNvMs2_NtCs6kXspXXDlJP_25hyperlight_component_util10substituteINtB5_7ShiftedNtB5_7RBShiftE3newB7_
FN:363,_RNvMs2_NtCs6kXspXXDlJP_25hyperlight_component_util10substituteINtB5_7ShiftedNtB5_7RBShiftE6bshiftB7_
FN:378,_RNvMs2_NtCs6kXspXXDlJP_25hyperlight_component_util10substituteINtB5_7ShiftedNtB5_7RBShiftE7rbshiftB7_
FN:382,_RNvMs2_NtCs6kXspXXDlJP_25hyperlight_component_util10substituteINtB5_7ShiftedNtB5_8InnerizeE11sub_rbshiftB7_
FN:353,_RNvMs2_NtCs6kXspXXDlJP_25hyperlight_component_util10substituteINtB5_7ShiftedNtB5_8InnerizeE3newB7_
FN:363,_RNvMs2_NtCs6kXspXXDlJP_25hyperlight_component_util10substituteINtB5_7ShiftedNtB5_8InnerizeE6bshiftB7_
FN:378,_RNvMs2_NtCs6kXspXXDlJP_25hyperlight_component_util10substituteINtB5_7ShiftedNtB5_8InnerizeE7rbshiftB7_
FN:481,_RNvMs6_NtCs6kXspXXDlJP_25hyperlight_component_util10substituteNtB5_8Innerize3new
FN:554,_RNvMsa_NtCs6kXspXXDlJP_25hyperlight_component_util10substituteNtB5_7Opening3new
FN:561,_RNvMsa_NtCs6kXspXXDlJP_25hyperlight_component_util10substituteNtB5_7Opening4next
FN:609,_RNvMsb_NtCs6kXspXXDlJP_25hyperlight_component_util10substituteNtB5_7Closing11subst_uevar
FN:593,_RNvMsb_NtCs6kXspXXDlJP_25hyperlight_component_util10substituteNtB5_7Closing12is_universal
FN:586,_RNvMsb_NtCs6kXspXXDlJP_25hyperlight_component_util10substituteNtB5_7Closing3new
FN:603,_RNvMsb_NtCs6kXspXXDlJP_25hyperlight_component_util10substituteNtB5_7Closing6next_e
FN:596,_RNvMsb_NtCs6kXspXXDlJP_25hyperlight_component_util10substituteNtB5_7Closing6next_u
FN:277,_RNvXNtCs6kXspXXDlJP_25hyperlight_component_util10substituteNtB2_7RBShiftNtB2_9Shiftable7shifted
FN:334,_RNvXs0_NtCs6kXspXXDlJP_25hyperlight_component_util10substituteINtB5_7ShiftedNtB5_7ClosingENtNtCs649FzoMgw5V_4core5clone5Clone5cloneB7_
FN:334,_RNvXs0_NtCs6kXspXXDlJP_25hyperlight_component_util10substituteINtB5_7ShiftedNtB5_7OpeningENtNtCs649FzoMgw5V_4core5clone5Clone5cloneB7_
FN:334,_RNvXs0_NtCs6kXspXXDlJP_25hyperlight_component_util10substituteINtB5_7ShiftedNtB5_7RBShiftENtNtCs649FzoMgw5V_4core5clone5Clone5cloneB7_
FN:334,_RNvXs0_NtCs6kXspXXDlJP_25hyperlight_component_util10substituteINtB5_7ShiftedNtB5_8InnerizeENtNtCs649FzoMgw5V_4core5clone5Clone5cloneB7_
FN:347,_RNvXs1_NtCs6kXspXXDlJP_25hyperlight_component_util10substituteINtB5_7ShiftedNtB5_7ClosingENtB5_9Shiftable7shiftedB7_
FN:347,_RNvXs1_NtCs6kXspXXDlJP_25hyperlight_component_util10substituteINtB5_7ShiftedNtB5_7OpeningENtB5_9Shiftable7shiftedB7_
FN:347,_RNvXs1_NtCs6kXspXXDlJP_25hyperlight_component_util10substituteINtB5_7ShiftedNtB5_7RBShiftENtB5_9Shiftable7shiftedB7_
FN:347,_RNvXs1_NtCs6kXspXXDlJP_25hyperlight_component_util10substituteINtB5_7ShiftedNtB5_8InnerizeENtB5_9Shiftable7shiftedB7_
FN:400,_RNvXs3_NtCs6kXspXXDlJP_25hyperlight_component_util10substituteINtB5_7ShiftedNtB5_7ClosingENtB5_12Substitution10subst_bvarB7_
FN:406,_RNvXs3_NtCs6kXspXXDlJP_25hyperlight_component_util10substituteINtB5_7ShiftedNtB5_7ClosingENtB5_12Substitution10subst_evarB7_
FN:415,_RNvXs3_NtCs6kXspXXDlJP_25hyperlight_component_util10substituteINtB5_7ShiftedNtB5_7ClosingENtB5_12Substitution10subst_uvarB7_
FN:400,_RNvXs3_NtCs6kXspXXDlJP_25hyperlight_component_util10substituteINtB5_7ShiftedNtB5_7OpeningENtB5_12Substitution10subst_bvarB7_
FN:406,_RNvXs3_NtCs6kXspXXDlJP_25hyperlight_component_util10substituteINtB5_7ShiftedNtB5_7OpeningENtB5_12Substitution10subst_evarB7_
FN:415,_RNvXs3_NtCs6kXspXXDlJP_25hyperlight_component_util10substituteINtB5_7ShiftedNtB5_7OpeningENtB5_12Substitution10subst_uvarB7_
FN:400,_RNvXs3_NtCs6kXspXXDlJP_25hyperlight_component_util10substituteINtB5_7ShiftedNtB5_7RBShiftENtB5_12Substitution10subst_bvarB7_
FN:406,_RNvXs3_NtCs6kXspXXDlJP_25hyperlight_component_util10substituteINtB5_7ShiftedNtB5_7RBShiftENtB5_12Substitution10subst_evarB7_
FN:415,_RNvXs3_NtCs6kXspXXDlJP_25hyperlight_component_util10substituteINtB5_7ShiftedNtB5_7RBShiftENtB5_12Substitution10subst_uvarB7_
FN:400,_RNvXs3_NtCs6kXspXXDlJP_25hyperlight_component_util10substituteINtB5_7ShiftedNtB5_8InnerizeENtB5_12Substitution10subst_bvarB7_
FN:406,_RNvXs3_NtCs6kXspXXDlJP_25hyperlight_component_util10substituteINtB5_7ShiftedNtB5_8InnerizeENtB5_12Substitution10subst_evarB7_
FN:415,_RNvXs3_NtCs6kXspXXDlJP_25hyperlight_component_util10substituteINtB5_7ShiftedNtB5_8InnerizeENtB5_12Substitution10subst_uvarB7_
FN:443,_RNvXs4_NtCs6kXspXXDlJP_25hyperlight_component_util10substituteNtB5_8InnerizeNtB5_9Shiftable7shifted
FN:449,_RNvXs5_NtCs6kXspXXDlJP_25hyperlight_component_util10substituteNtB5_8InnerizeNtB5_12Substitution10subst_bvar
FN:455,_RNvXs5_NtCs6kXspXXDlJP_25hyperlight_component_util10substituteNtB5_8InnerizeNtB5_12Substitution10subst_evar
FN:467,_RNvXs5_NtCs6kXspXXDlJP_25hyperlight_component_util10substituteNtB5_8InnerizeNtB5_12Substitution10subst_uvar
FN:525,_RNvXs8_NtCs6kXspXXDlJP_25hyperlight_component_util10substituteNtB5_7OpeningNtB5_9Shiftable7shifted
FN:531,_RNvXs9_NtCs6kXspXXDlJP_25hyperlight_component_util10substituteNtB5_7OpeningNtB5_12Substitution10subst_bvar
FN:546,_RNvXs9_NtCs6kXspXXDlJP_25hyperlight_component_util10substituteNtB5_7OpeningNtB5_12Substitution10subst_evar
FN:549,_RNvXs9_NtCs6kXspXXDlJP_25hyperlight_component_util10substituteNtB5_7OpeningNtB5_12Substitution10subst_uvar
FN:283,_RNvXs_NtCs6kXspXXDlJP_25hyperlight_component_util10substituteNtB4_7RBShiftNtB4_12Substitution10subst_bvar
FN:288,_RNvXs_NtCs6kXspXXDlJP_25hyperlight_component_util10substituteNtB4_7RBShiftNtB4_12Substitution10subst_evar
FN:291,_RNvXs_NtCs6kXspXXDlJP_25hyperlight_component_util10substituteNtB4_7RBShiftNtB4_12Substitution10subst_uvar
FN:645,_RNvXsc_NtCs6kXspXXDlJP_25hyperlight_component_util10substituteNtB5_7ClosingNtB5_9Shiftable7shifted
FN:663,_RNvXsd_NtCs6kXspXXDlJP_25hyperlight_component_util10substituteNtB5_7ClosingNtB5_12Substitution10subst_bvar
FN:666,_RNvXsd_NtCs6kXspXXDlJP_25hyperlight_component_util10substituteNtB5_7ClosingNtB5_12Substitution10subst_evar
FN:669,_RNvXsd_NtCs6kXspXXDlJP_25hyperlight_component_util10substituteNtB5_7ClosingNtB5_12Substitution10subst_uvar
FN:163,_RNvYINtNtCs6kXspXXDlJP_25hyperlight_component_util10substitute7ShiftedNtB5_7ClosingENtB5_12Substitution10handleableB7_
FN:188,_RNvYINtNtCs6kXspXXDlJP_25hyperlight_component_util10substitute7ShiftedNtB5_7ClosingENtB5_12Substitution10type_boundB7_
FN:212,_RNvYINtNtCs6kXspXXDlJP_25hyperlight_component_util10substitute7ShiftedNtB5_7ClosingENtB5_12Substitution11extern_declB7_
FN:202,_RNvYINtNtCs6kXspXXDlJP_25hyperlight_component_util10substitute7ShiftedNtB5_7ClosingENtB5_12Substitution11extern_descB7_
FN:171,_RNvYINtNtCs6kXspXXDlJP_25hyperlight_component_util10substitute7ShiftedNtB5_7ClosingENtB5_12Substitution11handleable_B7_
FN:86,_RNvYINtNtCs6kXspXXDlJP_25hyperlight_component_util10substitute7ShiftedNtB5_7ClosingENtB5_12Substitution12value_optionB7_
FN:195,_RNvYINtNtCs6kXspXXDlJP_25hyperlight_component_util10substitute7ShiftedNtB5_7ClosingENtB5_12Substitution13bounded_tyvarB7_
FN:63,_RNvYINtNtCs6kXspXXDlJP_25hyperlight_component_util10substitute7ShiftedNtB5_7ClosingENtB5_12Substitution13record_fieldsB7_
FN:74,_RNvYINtNtCs6kXspXXDlJP_25hyperlight_component_util10substitute7ShiftedNtB5_7ClosingENtB5_12Substitution13variant_casesB7_
FN:228,_RNvYINtNtCs6kXspXXDlJP_25hyperlight_component_util10substitute7ShiftedNtB5_7ClosingENtB5_12Substitution18qualified_instanceB7_
FN:155,_RNvYINtNtCs6kXspXXDlJP_25hyperlight_component_util10substitute7ShiftedNtB5_7ClosingENtB5_12Substitution3varB7_
FN:148,_RNvYINtNtCs6kXspXXDlJP_25hyperlight_component_util10substitute7ShiftedNtB5_7ClosingENtB5_12Substitution4funcB7_
FN:127,_RNvYINtNtCs6kXspXXDlJP_25hyperlight_component_util10substitute7ShiftedNtB5_7ClosingENtB5_12Substitution5paramB7_
FN:90,_RNvYINtNtCs6kXspXXDlJP_25hyperlight_component_util10substitute7ShiftedNtB5_7ClosingENtB5_12Substitution5valueB7_
FN:134,_RNvYINtNtCs6kXspXXDlJP_25hyperlight_component_util10substitute7ShiftedNtB5_7ClosingENtB5_12Substitution6paramsB7_
FN:138,_RNvYINtNtCs6kXspXXDlJP_25hyperlight_component_util10substitute7ShiftedNtB5_7ClosingENtB5_12Substitution6resultB7_
FN:178,_RNvYINtNtCs6kXspXXDlJP_25hyperlight_component_util10substitute7ShiftedNtB5_7ClosingENtB5_12Substitution7definedB7_
FN:219,_RNvYINtNtCs6kXspXXDlJP_25hyperlight_component_util10substitute7ShiftedNtB5_7ClosingENtB5_12Substitution8instanceB7_
FN:246,_RNvYINtNtCs6kXspXXDlJP_25hyperlight_component_util10substitute7ShiftedNtB5_7ClosingENtB5_12Substitution9componentB7_
FN:163,_RNvYINtNtCs6kXspXXDlJP_25hyperlight_component_util10substitute7ShiftedNtB5_7OpeningENtB5_12Substitution10handleableB7_
FN:188,_RNvYINtNtCs6kXspXXDlJP_25hyperlight_component_util10substitute7ShiftedNtB5_7OpeningENtB5_12Substitution10type_boundB7_
FN:212,_RNvYINtNtCs6kXspXXDlJP_25hyperlight_component_util10substitute7ShiftedNtB5_7OpeningENtB5_12Substitution11extern_declB7_
FN:202,_RNvYINtNtCs6kXspXXDlJP_25hyperlight_component_util10substitute7ShiftedNtB5_7OpeningENtB5_12Substitution11extern_descB7_
FN:171,_RNvYINtNtCs6kXspXXDlJP_25hyperlight_component_util10substitute7ShiftedNtB5_7OpeningENtB5_12Substitution11handleable_B7_
FN:86,_RNvYINtNtCs6kXspXXDlJP_25hyperlight_component_util10substitute7ShiftedNtB5_7OpeningENtB5_12Substitution12value_optionB7_
FN:195,_RNvYINtNtCs6kXspXXDlJP_25hyperlight_component_util10substitute7ShiftedNtB5_7OpeningENtB5_12Substitution13bounded_tyvarB7_
FN:63,_RNvYINtNtCs6kXspXXDlJP_25hyperlight_component_util10substitute7ShiftedNtB5_7OpeningENtB5_12Substitution13record_fieldsB7_
FN:74,_RNvYINtNtCs6kXspXXDlJP_25hyperlight_component_util10substitute7ShiftedNtB5_7OpeningENtB5_12Substitution13variant_casesB7_
FN:228,_RNvYINtNtCs6kXspXXDlJP_25hyperlight_component_util10substitute7ShiftedNtB5_7OpeningENtB5_12Substitution18qualified_instanceB7_
FN:155,_RNvYINtNtCs6kXspXXDlJP_25hyperlight_component_util10substitute7ShiftedNtB5_7OpeningENtB5_12Substitution3varB7_
FN:148,_RNvYINtNtCs6kXspXXDlJP_25hyperlight_component_util10substitute7ShiftedNtB5_7OpeningENtB5_12Substitution4funcB7_
FN:127,_RNvYINtNtCs6kXspXXDlJP_25hyperlight_component_util10substitute7ShiftedNtB5_7OpeningENtB5_12Substitution5paramB7_
FN:90,_RNvYINtNtCs6kXspXXDlJP_25hyperlight_component_util10substitute7ShiftedNtB5_7OpeningENtB5_12Substitution5valueB7_
FN:134,_RNvYINtNtCs6kXspXXDlJP_25hyperlight_component_util10substitute7ShiftedNtB5_7OpeningENtB5_12Substitution6paramsB7_
FN:138,_RNvYINtNtCs6kXspXXDlJP_25hyperlight_component_util10substitute7ShiftedNtB5_7OpeningENtB5_12Substitution6resultB7_
FN:178,_RNvYINtNtCs6kXspXXDlJP_25hyperlight_component_util10substitute7ShiftedNtB5_7OpeningENtB5_12Substitution7definedB7_
FN:219,_RNvYINtNtCs6kXspXXDlJP_25hyperlight_component_util10substitute7ShiftedNtB5_7OpeningENtB5_12Substitution8instanceB7_
FN:246,_RNvYINtNtCs6kXspXXDlJP_25hyperlight_component_util10substitute7ShiftedNtB5_7OpeningENtB5_12Substitution9componentB7_
FN:163,_RNvYINtNtCs6kXspXXDlJP_25hyperlight_component_util10substitute7ShiftedNtB5_7RBShiftENtB5_12Substitution10handleableB7_
FN:188,_RNvYINtNtCs6kXspXXDlJP_25hyperlight_component_util10substitute7ShiftedNtB5_7RBShiftENtB5_12Substitution10type_boundB7_
FN:212,_RNvYINtNtCs6kXspXXDlJP_25hyperlight_component_util10substitute7ShiftedNtB5_7RBShiftENtB5_12Substitution11extern_declB7_
FN:202,_RNvYINtNtCs6kXspXXDlJP_25hyperlight_component_util10substitute7ShiftedNtB5_7RBShiftENtB5_12Substitution11extern_descB7_
FN:171,_RNvYINtNtCs6kXspXXDlJP_25hyperlight_component_util10substitute7ShiftedNtB5_7RBShiftENtB5_12Substitution11handleable_B7_
FN:86,_RNvYINtNtCs6kXspXXDlJP_25hyperlight_component_util10substitute7ShiftedNtB5_7RBShiftENtB5_12Substitution12value_optionB7_
FN:195,_RNvYINtNtCs6kXspXXDlJP_25hyperlight_component_util10substitute7ShiftedNtB5_7RBShiftENtB5_12Substitution13bounded_tyvarB7_
FN:63,_RNvYINtNtCs6kXspXXDlJP_25hyperlight_component_util10substitute7ShiftedNtB5_7RBShiftENtB5_12Substitution13record_fieldsB7_
FN:74,_RNvYINtNtCs6kXspXXDlJP_25hyperlight_component_util10substitute7ShiftedNtB5_7RBShiftENtB5_12Substitution13variant_casesB7_
FN:228,_RNvYINtNtCs6kXspXXDlJP_25hyperlight_component_util10substitute7ShiftedNtB5_7RBShiftENtB5_12Substitution18qualified_instanceB7_
FN:155,_RNvYINtNtCs6kXspXXDlJP_25hyperlight_component_util10substitute7ShiftedNtB5_7RBShiftENtB5_12Substitution3varB7_
FN:148,_RNvYINtNtCs6kXspXXDlJP_25hyperlight_component_util10substitute7ShiftedNtB5_7RBShiftENtB5_12Substitution4funcB7_
FN:127,_RNvYINtNtCs6kXspXXDlJP_25hyperlight_component_util10substitute7ShiftedNtB5_7RBShiftENtB5_12Substitution5paramB7_
FN:90,_RNvYINtNtCs6kXspXXDlJP_25hyperlight_component_util10substitute7ShiftedNtB5_7RBShiftENtB5_12Substitution5valueB7_
FN:134,_RNvYINtNtCs6kXspXXDlJP_25hyperlight_component_util10substitute7ShiftedNtB5_7RBShiftENtB5_12Substitution6paramsB7_
FN:138,_RNvYINtNtCs6kXspXXDlJP_25hyperlight_component_util10substitute7ShiftedNtB5_7RBShiftENtB5_12Substitution6resultB7_
FN:178,_RNvYINtNtCs6kXspXXDlJP_25hyperlight_component_util10substitute7ShiftedNtB5_7RBShiftENtB5_12Substitution7definedB7_
FN:219,_RNvYINtNtCs6kXspXXDlJP_25hyperlight_component_util10substitute7ShiftedNtB5_7RBShiftENtB5_12Substitution8instanceB7_
FN:246,_RNvYINtNtCs6kXspXXDlJP_25hyperlight_component_util10substitute7ShiftedNtB5_7RBShiftENtB5_12Substitution9componentB7_
FN:163,_RNvYINtNtCs6kXspXXDlJP_25hyperlight_component_util10substitute7ShiftedNtB5_8InnerizeENtB5_12Substitution10handleableB7_
FN:188,_RNvYINtNtCs6kXspXXDlJP_25hyperlight_component_util10substitute7ShiftedNtB5_8InnerizeENtB5_12Substitution10type_boundB7_
FN:212,_RNvYINtNtCs6kXspXXDlJP_25hyperlight_component_util10substitute7ShiftedNtB5_8InnerizeENtB5_12Substitution11extern_declB7_
FN:202,_RNvYINtNtCs6kXspXXDlJP_25hyperlight_component_util10substitute7ShiftedNtB5_8InnerizeENtB5_12Substitution11extern_descB7_
FN:171,_RNvYINtNtCs6kXspXXDlJP_25hyperlight_component_util10substitute7ShiftedNtB5_8InnerizeENtB5_12Substitution11handleable_B7_
FN:86,_RNvYINtNtCs6kXspXXDlJP_25hyperlight_component_util10substitute7ShiftedNtB5_8InnerizeENtB5_12Substitution12value_optionB7_
FN:195,_RNvYINtNtCs6kXspXXDlJP_25hyperlight_component_util10substitute7ShiftedNtB5_8InnerizeENtB5_12Substitution13bounded_tyvarB7_
FN:63,_RNvYINtNtCs6kXspXXDlJP_25hyperlight_component_util10substitute7ShiftedNtB5_8InnerizeENtB5_12Substitution13record_fieldsB7_
FN:74,_RNvYINtNtCs6kXspXXDlJP_25hyperlight_component_util10substitute7ShiftedNtB5_8InnerizeENtB5_12Substitution13variant_casesB7_
FN:228,_RNvYINtNtCs6kXspXXDlJP_25hyperlight_component_util10substitute7ShiftedNtB5_8InnerizeENtB5_12Substitution18qualified_instanceB7_
FN:155,_RNvYINtNtCs6kXspXXDlJP_25hyperlight_component_util10substitute7ShiftedNtB5_8InnerizeENtB5_12Substitution3varB7_
FN:148,_RNvYINtNtCs6kXspXXDlJP_25hyperlight_component_util10substitute7ShiftedNtB5_8InnerizeENtB5_12Substitution4funcB7_
FN:127,_RNvYINtNtCs6kXspXXDlJP_25hyperlight_component_util10substitute7ShiftedNtB5_8InnerizeENtB5_12Substitution5paramB7_
FN:90,_RNvYINtNtCs6kXspXXDlJP_25hyperlight_component_util10substitute7ShiftedNtB5_8InnerizeENtB5_12Substitution5valueB7_
FN:134,_RNvYINtNtCs6kXspXXDlJP_25hyperlight_component_util10substitute7ShiftedNtB5_8InnerizeENtB5_12Substitution6paramsB7_
FN:138,_RNvYINtNtCs6kXspXXDlJP_25hyperlight_component_util10substitute7ShiftedNtB5_8InnerizeENtB5_12Substitution6resultB7_
FN:178,_RNvYINtNtCs6kXspXXDlJP_25hyperlight_component_util10substitute7ShiftedNtB5_8InnerizeENtB5_12Substitution7definedB7_
FN:219,_RNvYINtNtCs6kXspXXDlJP_25hyperlight_component_util10substitute7ShiftedNtB5_8InnerizeENtB5_12Substitution8instanceB7_
FN:246,_RNvYINtNtCs6kXspXXDlJP_25hyperlight_component_util10substitute7ShiftedNtB5_8InnerizeENtB5_12Substitution9componentB7_
FN:163,_RNvYNtNtCs6kXspXXDlJP_25hyperlight_component_util10substitute7ClosingNtB4_12Substitution10handleableB6_
FN:188,_RNvYNtNtCs6kXspXXDlJP_25hyperlight_component_util10substitute7ClosingNtB4_12Substitution10type_boundB6_
FN:212,_RNvYNtNtCs6kXspXXDlJP_25hyperlight_component_util10substitute7ClosingNtB4_12Substitution11extern_declB6_
FN:202,_RNvYNtNtCs6kXspXXDlJP_25hyperlight_component_util10substitute7ClosingNtB4_12Substitution11extern_descB6_
FN:171,_RNvYNtNtCs6kXspXXDlJP_25hyperlight_component_util10substitute7ClosingNtB4_12Substitution11handleable_B6_
FN:86,_RNvYNtNtCs6kXspXXDlJP_25hyperlight_component_util10substitute7ClosingNtB4_12Substitution12value_optionB6_
FN:195,_RNvYNtNtCs6kXspXXDlJP_25hyperlight_component_util10substitute7ClosingNtB4_12Substitution13bounded_tyvarB6_
FN:63,_RNvYNtNtCs6kXspXXDlJP_25hyperlight_component_util10substitute7ClosingNtB4_12Substitution13record_fieldsB6_
FN:74,_RNvYNtNtCs6kXspXXDlJP_25hyperlight_component_util10substitute7ClosingNtB4_12Substitution13variant_casesB6_
FN:228,_RNvYNtNtCs6kXspXXDlJP_25hyperlight_component_util10substitute7ClosingNtB4_12Substitution18qualified_instanceB6_
FN:155,_RNvYNtNtCs6kXspXXDlJP_25hyperlight_component_util10substitute7ClosingNtB4_12Substitution3varB6_
FN:148,_RNvYNtNtCs6kXspXXDlJP_25hyperlight_component_util10substitute7ClosingNtB4_12Substitution4funcB6_
FN:127,_RNvYNtNtCs6kXspXXDlJP_25hyperlight_component_util10substitute7ClosingNtB4_12Substitution5paramB6_
FN:90,_RNvYNtNtCs6kXspXXDlJP_25hyperlight_component_util10substitute7ClosingNtB4_12Substitution5valueB6_
FN:134,_RNvYNtNtCs6kXspXXDlJP_25hyperlight_component_util10substitute7ClosingNtB4_12Substitution6paramsB6_
FN:138,_RNvYNtNtCs6kXspXXDlJP_25hyperlight_component_util10substitute7ClosingNtB4_12Substitution6resultB6_
FN:178,_RNvYNtNtCs6kXspXXDlJP_25hyperlight_component_util10substitute7ClosingNtB4_12Substitution7definedB6_
FN:219,_RNvYNtNtCs6kXspXXDlJP_25hyperlight_component_util10substitute7ClosingNtB4_12Substitution8instanceB6_
FN:246,_RNvYNtNtCs6kXspXXDlJP_25hyperlight_component_util10substitute7ClosingNtB4_12Substitution9componentB6_
FN:163,_RNvYNtNtCs6kXspXXDlJP_25hyperlight_component_util10substitute7OpeningNtB4_12Substitution10handleableB6_
FN:188,_RNvYNtNtCs6kXspXXDlJP_25hyperlight_component_util10substitute7OpeningNtB4_12Substitution10type_boundB6_
FN:212,_RNvYNtNtCs6kXspXXDlJP_25hyperlight_component_util10substitute7OpeningNtB4_12Substitution11extern_declB6_
FN:202,_RNvYNtNtCs6kXspXXDlJP_25hyperlight_component_util10substitute7OpeningNtB4_12Substitution11extern_descB6_
FN:171,_RNvYNtNtCs6kXspXXDlJP_25hyperlight_component_util10substitute7OpeningNtB4_12Substitution11handleable_B6_
FN:86,_RNvYNtNtCs6kXspXXDlJP_25hyperlight_component_util10substitute7OpeningNtB4_12Substitution12value_optionB6_
FN:195,_RNvYNtNtCs6kXspXXDlJP_25hyperlight_component_util10substitute7OpeningNtB4_12Substitution13bounded_tyvarB6_
FN:63,_RNvYNtNtCs6kXspXXDlJP_25hyperlight_component_util10substitute7OpeningNtB4_12Substitution13record_fieldsB6_
FN:74,_RNvYNtNtCs6kXspXXDlJP_25hyperlight_component_util10substitute7OpeningNtB4_12Substitution13variant_casesB6_
FN:228,_RNvYNtNtCs6kXspXXDlJP_25hyperlight_component_util10substitute7OpeningNtB4_12Substitution18qualified_instanceB6_
FN:155,_RNvYNtNtCs6kXspXXDlJP_25hyperlight_component_util10substitute7OpeningNtB4_12Substitution3varB6_
FN:148,_RNvYNtNtCs6kXspXXDlJP_25hyperlight_component_util10substitute7OpeningNtB4_12Substitution4funcB6_
FN:127,_RNvYNtNtCs6kXspXXDlJP_25hyperlight_component_util10substitute7OpeningNtB4_12Substitution5paramB6_
FN:90,_RNvYNtNtCs6kXspXXDlJP_25hyperlight_component_util10substitute7OpeningNtB4_12Substitution5valueB6_
FN:134,_RNvYNtNtCs6kXspXXDlJP_25hyperlight_component_util10substitute7OpeningNtB4_12Substitution6paramsB6_
FN:138,_RNvYNtNtCs6kXspXXDlJP_25hyperlight_component_util10substitute7OpeningNtB4_12Substitution6resultB6_
FN:178,_RNvYNtNtCs6kXspXXDlJP_25hyperlight_component_util10substitute7OpeningNtB4_12Substitution7definedB6_
FN:219,_RNvYNtNtCs6kXspXXDlJP_25hyperlight_component_util10substitute7OpeningNtB4_12Substitution8instanceB6_
FN:246,_RNvYNtNtCs6kXspXXDlJP_25hyperlight_component_util10substitute7OpeningNtB4_12Substitution9componentB6_
FN:163,_RNvYNtNtCs6kXspXXDlJP_25hyperlight_component_util10substitute7RBShiftNtB4_12Substitution10handleableB6_
FN:171,_RNvYNtNtCs6kXspXXDlJP_25hyperlight_component_util10substitute7RBShiftNtB4_12Substitution11handleable_B6_
FN:86,_RNvYNtNtCs6kXspXXDlJP_25hyperlight_component_util10substitute7RBShiftNtB4_12Substitution12value_optionB6_
FN:63,_RNvYNtNtCs6kXspXXDlJP_25hyperlight_component_util10substitute7RBShiftNtB4_12Substitution13record_fieldsB6_
FN:74,_RNvYNtNtCs6kXspXXDlJP_25hyperlight_component_util10substitute7RBShiftNtB4_12Substitution13variant_casesB6_
FN:228,_RNvYNtNtCs6kXspXXDlJP_25hyperlight_component_util10substitute7RBShiftNtB4_12Substitution18qualified_instanceB6_
FN:155,_RNvYNtNtCs6kXspXXDlJP_25hyperlight_component_util10substitute7RBShiftNtB4_12Substitution3varB6_
FN:148,_RNvYNtNtCs6kXspXXDlJP_25hyperlight_component_util10substitute7RBShiftNtB4_12Substitution4funcB6_
FN:127,_RNvYNtNtCs6kXspXXDlJP_25hyperlight_component_util10substitute7RBShiftNtB4_12Substitution5paramB6_
FN:90,_RNvYNtNtCs6kXspXXDlJP_25hyperlight_component_util10substitute7RBShiftNtB4_12Substitution5valueB6_
FN:134,_RNvYNtNtCs6kXspXXDlJP_25hyperlight_component_util10substitute7RBShiftNtB4_12Substitution6paramsB6_
FN:138,_RNvYNtNtCs6kXspXXDlJP_25hyperlight_component_util10substitute7RBShiftNtB4_12Substitution6resultB6_
FN:178,_RNvYNtNtCs6kXspXXDlJP_25hyperlight_component_util10substitute7RBShiftNtB4_12Substitution7definedB6_
FN:246,_RNvYNtNtCs6kXspXXDlJP_25hyperlight_component_util10substitute7RBShiftNtB4_12Substitution9componentB6_
FN:163,_RNvYNtNtCs6kXspXXDlJP_25hyperlight_component_util10substitute8InnerizeNtB4_12Substitution10handleableB6_
FN:171,_RNvYNtNtCs6kXspXXDlJP_25hyperlight_component_util10substitute8InnerizeNtB4_12Substitution11handleable_B6_
FN:86,_RNvYNtNtCs6kXspXXDlJP_25hyperlight_component_util10substitute8InnerizeNtB4_12Substitution12value_optionB6_
FN:63,_RNvYNtNtCs6kXspXXDlJP_25hyperlight_component_util10substitute8InnerizeNtB4_12Substitution13record_fieldsB6_
FN:74,_RNvYNtNtCs6kXspXXDlJP_25hyperlight_component_util10substitute8InnerizeNtB4_12Substitution13variant_casesB6_
FN:228,_RNvYNtNtCs6kXspXXDlJP_25hyperlight_component_util10substitute8InnerizeNtB4_12Substitution18qualified_instanceB6_
FN:155,_RNvYNtNtCs6kXspXXDlJP_25hyperlight_component_util10substitute8InnerizeNtB4_12Substitution3varB6_
FN:148,_RNvYNtNtCs6kXspXXDlJP_25hyperlight_component_util10substitute8InnerizeNtB4_12Substitution4funcB6_
FN:127,_RNvYNtNtCs6kXspXXDlJP_25hyperlight_component_util10substitute8InnerizeNtB4_12Substitution5paramB6_
FN:90,_RNvYNtNtCs6kXspXXDlJP_25hyperlight_component_util10substitute8InnerizeNtB4_12Substitution5valueB6_
FN:134,_RNvYNtNtCs6kXspXXDlJP_25hyperlight_component_util10substitute8InnerizeNtB4_12Substitution6paramsB6_
FN:138,_RNvYNtNtCs6kXspXXDlJP_25hyperlight_component_util10substitute8InnerizeNtB4_12Substitution6resultB6_
FN:178,_RNvYNtNtCs6kXspXXDlJP_25hyperlight_component_util10substitute8InnerizeNtB4_12Substitution7definedB6_
FN:246,_RNvYNtNtCs6kXspXXDlJP_25hyperlight_component_util10substitute8InnerizeNtB4_12Substitution9componentB6_
FN:501,_RNvXs7_NtCs6kXspXXDlJP_25hyperlight_component_util10substituteINtNtCs649FzoMgw5V_4core6result6ResultNtNtB7_6etypes10ExternDeclNtB5_4VoidENtB5_10Unvoidable8not_voidB7_
FN:501,_RNvXs7_NtCs6kXspXXDlJP_25hyperlight_component_util10substituteINtNtCs649FzoMgw5V_4core6result6ResultNtNtB7_6etypes10ExternDescNtB5_4VoidENtB5_10Unvoidable8not_voidB7_
FN:501,_RNvXs7_NtCs6kXspXXDlJP_25hyperlight_component_util10substituteINtNtCs649FzoMgw5V_4core6result6ResultNtNtB7_6etypes12BoundedTyvarNtB5_4VoidENtB5_10Unvoidable8not_voidB7_
FN:501,_RNvXs7_NtCs6kXspXXDlJP_25hyperlight_component_util10substituteINtNtCs649FzoMgw5V_4core6result6ResultNtNtB7_6etypes17QualifiedInstanceNtB5_4VoidENtB5_10Unvoidable8not_voidB7_
FN:501,_RNvXs7_NtCs6kXspXXDlJP_25hyperlight_component_util10substituteINtNtCs649FzoMgw5V_4core6result6ResultNtNtB7_6etypes7DefinedNtB5_4VoidENtB5_10Unvoidable8not_voidB7_
FN:501,_RNvXs7_NtCs6kXspXXDlJP_25hyperlight_component_util10substituteINtNtCs649FzoMgw5V_4core6result6ResultNtNtB7_6etypes8InstanceNtB5_4VoidENtB5_10Unvoidable8not_voidB7_
FN:375,_RNvMs2_NtCs6kXspXXDlJP_25hyperlight_component_util10substituteINtB5_7ShiftedpE6eshiftB7_
FN:367,_RNvMs2_NtCs6kXspXXDlJP_25hyperlight_component_util10substituteINtB5_7ShiftedpE6oshiftB7_
FN:371,_RNvMs2_NtCs6kXspXXDlJP_25hyperlight_component_util10substituteINtB5_7ShiftedpE6ushiftB7_
FNDA:0,_RNCNvMsb_NtCs6kXspXXDlJP_25hyperlight_component_util10substituteNtB7_7Closing11subst_uevar0B9_
FNDA:66,_RNCNvMsb_NtCs6kXspXXDlJP_25hyperlight_component_util10substituteNtB7_7Closing11subst_uevars0_0B9_
FNDA:114,_RNCNvMsb_NtCs6kXspXXDlJP_25hyperlight_component_util10substituteNtB7_7Closing11subst_uevars_0B9_
FNDA:224,_RNCNvXs9_NtCs6kXspXXDlJP_25hyperlight_component_util10substituteNtB7_7OpeningNtB7_12Substitution10subst_bvar0B9_
FNDA:90,_RNCNvYINtNtCs6kXspXXDlJP_25hyperlight_component_util10substitute7ShiftedNtB7_7ClosingENtB7_12Substitution12value_option0B9_
FNDA:54,_RNCNvYINtNtCs6kXspXXDlJP_25hyperlight_component_util10substitute7ShiftedNtB7_7ClosingENtB7_12Substitution13record_fields0B9_
FNDA:81,_RNCNvYINtNtCs6kXspXXDlJP_25hyperlight_component_util10substitute7ShiftedNtB7_7ClosingENtB7_12Substitution13variant_cases0B9_
FNDA:36,_RNCNvYINtNtCs6kXspXXDlJP_25hyperlight_component_util10substitute7ShiftedNtB7_7ClosingENtB7_12Substitution5value0B9_
FNDA:90,_RNCNvYINtNtCs6kXspXXDlJP_25hyperlight_component_util10substitute7ShiftedNtB7_7ClosingENtB7_12Substitution5values_0B9_
FNDA:363,_RNCNvYINtNtCs6kXspXXDlJP_25hyperlight_component_util10substitute7ShiftedNtB7_7ClosingENtB7_12Substitution6params0B9_
FNDA:419,_RNCNvYINtNtCs6kXspXXDlJP_25hyperlight_component_util10substitute7ShiftedNtB7_7ClosingENtB7_12Substitution8instance0B9_
FNDA:2,_RNCNvYINtNtCs6kXspXXDlJP_25hyperlight_component_util10substitute7ShiftedNtB7_7ClosingENtB7_12Substitution9component0B9_
FNDA:90,_RNCNvYINtNtCs6kXspXXDlJP_25hyperlight_component_util10substitute7ShiftedNtB7_7OpeningENtB7_12Substitution12value_option0B9_
FNDA:54,_RNCNvYINtNtCs6kXspXXDlJP_25hyperlight_component_util10substitute7ShiftedNtB7_7OpeningENtB7_12Substitution13record_fields0B9_
FNDA:81,_RNCNvYINtNtCs6kXspXXDlJP_25hyperlight_component_util10substitute7ShiftedNtB7_7OpeningENtB7_12Substitution13variant_cases0B9_
FNDA:36,_RNCNvYINtNtCs6kXspXXDlJP_25hyperlight_component_util10substitute7ShiftedNtB7_7OpeningENtB7_12Substitution5value0B9_
FNDA:90,_RNCNvYINtNtCs6kXspXXDlJP_25hyperlight_component_util10substitute7ShiftedNtB7_7OpeningENtB7_12Substitution5values_0B9_
FNDA:357,_RNCNvYINtNtCs6kXspXXDlJP_25hyperlight_component_util10substitute7ShiftedNtB7_7OpeningENtB7_12Substitution6params0B9_
FNDA:418,_RNCNvYINtNtCs6kXspXXDlJP_25hyperlight_component_util10substitute7ShiftedNtB7_7OpeningENtB7_12Substitution8instance0B9_
FNDA:2,_RNCNvYINtNtCs6kXspXXDlJP_25hyperlight_component_util10substitute7ShiftedNtB7_7OpeningENtB7_12Substitution9component0B9_
FNDA:0,_RNCNvYINtNtCs6kXspXXDlJP_25hyperlight_component_util10substitute7ShiftedNtB7_7RBShiftENtB7_12Substitution12value_option0B9_
FNDA:0,_RNCNvYINtNtCs6kXspXXDlJP_25hyperlight_component_util10substitute7ShiftedNtB7_7RBShiftENtB7_12Substitution13record_fields0B9_
FNDA:0,_RNCNvYINtNtCs6kXspXXDlJP_25hyperlight_component_util10substitute7ShiftedNtB7_7RBShiftENtB7_12Substitution13variant_cases0B9_
FNDA:0,_RNCNvYINtNtCs6kXspXXDlJP_25hyperlight_component_util10substitute7ShiftedNtB7_7RBShiftENtB7_12Substitution5value0B9_
FNDA:0,_RNCNvYINtNtCs6kXspXXDlJP_25hyperlight_component_util10substitute7ShiftedNtB7_7RBShiftENtB7_12Substitution5values_0B9_
FNDA:0,_RNCNvYINtNtCs6kXspXXDlJP_25hyperlight_component_util10substitute7ShiftedNtB7_7RBShiftENtB7_12Substitution6params0B9_
FNDA:0,_RNCNvYINtNtCs6kXspXXDlJP_25hyperlight_component_util10substitute7ShiftedNtB7_7RBShiftENtB7_12Substitution8instance0B9_
FNDA:0,_RNCNvYINtNtCs6kXspXXDlJP_25hyperlight_component_util10substitute7ShiftedNtB7_7RBShiftENtB7_12Substitution9component0B9_
FNDA:0,_RNCNvYINtNtCs6kXspXXDlJP_25hyperlight_component_util10substitute7ShiftedNtB7_8InnerizeENtB7_12Substitution12value_option0B9_
FNDA:0,_RNCNvYINtNtCs6kXspXXDlJP_25hyperlight_component_util10substitute7ShiftedNtB7_8InnerizeENtB7_12Substitution13record_fields0B9_
FNDA:0,_RNCNvYINtNtCs6kXspXXDlJP_25hyperlight_component_util10substitute7ShiftedNtB7_8InnerizeENtB7_12Substitution13variant_cases0B9_
FNDA:0,_RNCNvYINtNtCs6kXspXXDlJP_25hyperlight_component_util10substitute7ShiftedNtB7_8InnerizeENtB7_12Substitution5value0B9_
FNDA:0,_RNCNvYINtNtCs6kXspXXDlJP_25hyperlight_component_util10substitute7ShiftedNtB7_8InnerizeENtB7_12Substitution5values_0B9_
FNDA:0,_RNCNvYINtNtCs6kXspXXDlJP_25hyperlight_component_util10substitute7ShiftedNtB7_8InnerizeENtB7_12Substitution6params0B9_
FNDA:0,_RNCNvYINtNtCs6kXspXXDlJP_25hyperlight_component_util10substitute7ShiftedNtB7_8InnerizeENtB7_12Substitution8instance0B9_
FNDA:0,_RNCNvYINtNtCs6kXspXXDlJP_25hyperlight_component_util10substitute7ShiftedNtB7_8InnerizeENtB7_12Substitution9component0B9_
FNDA:60,_RNCNvYNtNtCs6kXspXXDlJP_25hyperlight_component_util10substitute7ClosingNtB6_12Substitution12value_option0B8_
FNDA:36,_RNCNvYNtNtCs6kXspXXDlJP_25hyperlight_component_util10substitute7ClosingNtB6_12Substitution13record_fields0B8_
FNDA:54,_RNCNvYNtNtCs6kXspXXDlJP_25hyperlight_component_util10substitute7ClosingNtB6_12Substitution13variant_cases0B8_
FNDA:24,_RNCNvYNtNtCs6kXspXXDlJP_25hyperlight_component_util10substitute7ClosingNtB6_12Substitution5value0B8_
FNDA:60,_RNCNvYNtNtCs6kXspXXDlJP_25hyperlight_component_util10substitute7ClosingNtB6_12Substitution5values_0B8_
FNDA:246,_RNCNvYNtNtCs6kXspXXDlJP_25hyperlight_component_util10substitute7ClosingNtB6_12Substitution6params0B8_
FNDA:282,_RNCNvYNtNtCs6kXspXXDlJP_25hyperlight_component_util10substitute7ClosingNtB6_12Substitution8instance0B8_
FNDA:2,_RNCNvYNtNtCs6kXspXXDlJP_25hyperlight_component_util10substitute7ClosingNtB6_12Substitution9component0B8_
FNDA:140,_RNCNvYNtNtCs6kXspXXDlJP_25hyperlight_component_util10substitute7OpeningNtB6_12Substitution12value_option0B8_
FNDA:84,_RNCNvYNtNtCs6kXspXXDlJP_25hyperlight_component_util10substitute7OpeningNtB6_12Substitution13record_fields0B8_
FNDA:126,_RNCNvYNtNtCs6kXspXXDlJP_25hyperlight_component_util10substitute7OpeningNtB6_12Substitution13variant_cases0B8_
FNDA:56,_RNCNvYNtNtCs6kXspXXDlJP_25hyperlight_component_util10substitute7OpeningNtB6_12Substitution5value0B8_
FNDA:140,_RNCNvYNtNtCs6kXspXXDlJP_25hyperlight_component_util10substitute7OpeningNtB6_12Substitution5values_0B8_
FNDA:572,_RNCNvYNtNtCs6kXspXXDlJP_25hyperlight_component_util10substitute7OpeningNtB6_12Substitution6params0B8_
FNDA:512,_RNCNvYNtNtCs6kXspXXDlJP_25hyperlight_component_util10substitute7OpeningNtB6_12Substitution8instance0B8_
FNDA:4,_RNCNvYNtNtCs6kXspXXDlJP_25hyperlight_component_util10substitute7OpeningNtB6_12Substitution9component0B8_
FNDA:0,_RNCNvYNtNtCs6kXspXXDlJP_25hyperlight_component_util10substitute7RBShiftNtB6_12Substitution12value_option0B8_
FNDA:0,_RNCNvYNtNtCs6kXspXXDlJP_25hyperlight_component_util10substitute7RBShiftNtB6_12Substitution13record_fields0B8_
FNDA:0,_RNCNvYNtNtCs6kXspXXDlJP_25hyperlight_component_util10substitute7RBShiftNtB6_12Substitution13variant_cases0B8_
FNDA:0,_RNCNvYNtNtCs6kXspXXDlJP_25hyperlight_component_util10substitute7RBShiftNtB6_12Substitution5value0B8_
FNDA:0,_RNCNvYNtNtCs6kXspXXDlJP_25hyperlight_component_util10substitute7RBShiftNtB6_12Substitution5values_0B8_
FNDA:0,_RNCNvYNtNtCs6kXspXXDlJP_25hyperlight_component_util10substitute7RBShiftNtB6_12Substitution6params0B8_
FNDA:0,_RNCNvYNtNtCs6kXspXXDlJP_25hyperlight_component_util10substitute7RBShiftNtB6_12Substitution9component0B8_
FNDA:0,_RNCNvYNtNtCs6kXspXXDlJP_25hyperlight_component_util10substitute8InnerizeNtB6_12Substitution12value_option0B8_
FNDA:0,_RNCNvYNtNtCs6kXspXXDlJP_25hyperlight_component_util10substitute8InnerizeNtB6_12Substitution13record_fields0B8_
FNDA:0,_RNCNvYNtNtCs6kXspXXDlJP_25hyperlight_component_util10substitute8InnerizeNtB6_12Substitution13variant_cases0B8_
FNDA:0,_RNCNvYNtNtCs6kXspXXDlJP_25hyperlight_component_util10substitute8InnerizeNtB6_12Substitution5value0B8_
FNDA:0,_RNCNvYNtNtCs6kXspXXDlJP_25hyperlight_component_util10substitute8InnerizeNtB6_12Substitution5values_0B8_
FNDA:0,_RNCNvYNtNtCs6kXspXXDlJP_25hyperlight_component_util10substitute8InnerizeNtB6_12Substitution6params0B8_
FNDA:0,_RNCNvYNtNtCs6kXspXXDlJP_25hyperlight_component_util10substitute8InnerizeNtB6_12Substitution9component0B8_
FNDA:0,_RNvMs2_NtCs6kXspXXDlJP_25hyperlight_component_util10substituteINtB5_7ShiftedNtB5_7ClosingE11sub_rbshiftB7_
FNDA:13,_RNvMs2_NtCs6kXspXXDlJP_25hyperlight_component_util10substituteINtB5_7ShiftedNtB5_7ClosingE3newB7_
FNDA:50,_RNvMs2_NtCs6kXspXXDlJP_25hyperlight_component_util10substituteINtB5_7ShiftedNtB5_7ClosingE6bshiftB7_
FNDA:50,_RNvMs2_NtCs6kXspXXDlJP_25hyperlight_component_util10substituteINtB5_7ShiftedNtB5_7ClosingE7rbshiftB7_
FNDA:0,_RNvMs2_NtCs6kXspXXDlJP_25hyperlight_component_util10substituteINtB5_7ShiftedNtB5_7OpeningE11sub_rbshiftB7_
FNDA:8,_RNvMs2_NtCs6kXspXXDlJP_25hyperlight_component_util10substituteINtB5_7ShiftedNtB5_7OpeningE3newB7_
FNDA:49,_RNvMs2_NtCs6kXspXXDlJP_25hyperlight_component_util10substituteINtB5_7ShiftedNtB5_7OpeningE6bshiftB7_
FNDA:49,_RNvMs2_NtCs6kXspXXDlJP_25hyperlight_component_util10substituteINtB5_7ShiftedNtB5_7OpeningE7rbshiftB7_
FNDA:0,_RNvMs2_NtCs6kXspXXDlJP_25hyperlight_component_util10substituteINtB5_7ShiftedNtB5_7RBShiftE11sub_rbshiftB7_
FNDA:0,_RNvMs2_NtCs6kXspXXDlJP_25hyperlight_component_util10substituteINtB5_7ShiftedNtB5_7RBShiftE3newB7_
FNDA:0,_RNvMs2_NtCs6kXspXXDlJP_25hyperlight_component_util10substituteINtB5_7ShiftedNtB5_7RBShiftE6bshiftB7_
FNDA:0,_RNvMs2_NtCs6kXspXXDlJP_25hyperlight_component_util10substituteINtB5_7ShiftedNtB5_7RBShiftE7rbshiftB7_
FNDA:0,_RNvMs2_NtCs6kXspXXDlJP_25hyperlight_component_util10substituteINtB5_7ShiftedNtB5_8InnerizeE11sub_rbshiftB7_
FNDA:0,_RNvMs2_NtCs6kXspXXDlJP_25hyperlight_component_util10substituteINtB5_7ShiftedNtB5_8InnerizeE3newB7_
FNDA:0,_RNvMs2_NtCs6kXspXXDlJP_25hyperlight_component_util10substituteINtB5_7ShiftedNtB5_8InnerizeE6bshiftB7_
FNDA:0,_RNvMs2_NtCs6kXspXXDlJP_25hyperlight_component_util10substituteINtB5_7ShiftedNtB5_8InnerizeE7rbshiftB7_
FNDA:0,_RNvMs6_NtCs6kXspXXDlJP_25hyperlight_component_util10substituteNtB5_8Innerize3new
FNDA:165,_RNvMsa_NtCs6kXspXXDlJP_25hyperlight_component_util10substituteNtB5_7Opening3new
FNDA:79,_RNvMsa_NtCs6kXspXXDlJP_25hyperlight_component_util10substituteNtB5_7Opening4next
FNDA:114,_RNvMsb_NtCs6kXspXXDlJP_25hyperlight_component_util10substituteNtB5_7Closing11subst_uevar
FNDA:142,_RNvMsb_NtCs6kXspXXDlJP_25hyperlight_component_util10substituteNtB5_7Closing12is_universal
FNDA:24,_RNvMsb_NtCs6kXspXXDlJP_25hyperlight_component_util10substituteNtB5_7Closing3new
FNDA:28,_RNvMsb_NtCs6kXspXXDlJP_25hyperlight_component_util10substituteNtB5_7Closing6next_e
FNDA:6,_RNvMsb_NtCs6kXspXXDlJP_25hyperlight_component_util10substituteNtB5_7Closing6next_u
FNDA:0,_RNvXNtCs6kXspXXDlJP_25hyperlight_component_util10substituteNtB2_7RBShiftNtB2_9Shiftable7shifted
FNDA:3,_RNvXs0_NtCs6kXspXXDlJP_25hyperlight_component_util10substituteINtB5_7ShiftedNtB5_7ClosingENtNtCs649FzoMgw5V_4core5clone5Clone5cloneB7_
FNDA:4,_RNvXs0_NtCs6kXspXXDlJP_25hyperlight_component_util10substituteINtB5_7ShiftedNtB5_7OpeningENtNtCs649FzoMgw5V_4core5clone5Clone5cloneB7_
FNDA:0,_RNvXs0_NtCs6kXspXXDlJP_25hyperlight_component_util10substituteINtB5_7ShiftedNtB5_7RBShiftENtNtCs649FzoMgw5V_4core5clone5Clone5cloneB7_
FNDA:0,_RNvXs0_NtCs6kXspXXDlJP_25hyperlight_component_util10substituteINtB5_7ShiftedNtB5_8InnerizeENtNtCs649FzoMgw5V_4core5clone5Clone5cloneB7_
FNDA:3,_RNvXs1_NtCs6kXspXXDlJP_25hyperlight_component_util10substituteINtB5_7ShiftedNtB5_7ClosingENtB5_9Shiftable7shiftedB7_
FNDA:4,_RNvXs1_NtCs6kXspXXDlJP_25hyperlight_component_util10substituteINtB5_7ShiftedNtB5_7OpeningENtB5_9Shiftable7shiftedB7_
FNDA:0,_RNvXs1_NtCs6kXspXXDlJP_25hyperlight_component_util10substituteINtB5_7ShiftedNtB5_7RBShiftENtB5_9Shiftable7shiftedB7_
FNDA:0,_RNvXs1_NtCs6kXspXXDlJP_25hyperlight_component_util10substituteINtB5_7ShiftedNtB5_8InnerizeENtB5_9Shiftable7shiftedB7_
FNDA:165,_RNvXs3_NtCs6kXspXXDlJP_25hyperlight_component_util10substituteINtB5_7ShiftedNtB5_7ClosingENtB5_12Substitution10subst_bvarB7_
FNDA:0,_RNvXs3_NtCs6kXspXXDlJP_25hyperlight_component_util10substituteINtB5_7ShiftedNtB5_7ClosingENtB5_12Substitution10subst_evarB7_
FNDA:0,_RNvXs3_NtCs6kXspXXDlJP_25hyperlight_component_util10substituteINtB5_7ShiftedNtB5_7ClosingENtB5_12Substitution10subst_uvarB7_
FNDA:159,_RNvXs3_NtCs6kXspXXDlJP_25hyperlight_component_util10substituteINtB5_7ShiftedNtB5_7OpeningENtB5_12Substitution10subst_bvarB7_
FNDA:0,_RNvXs3_NtCs6kXspXXDlJP_25hyperlight_component_util10substituteINtB5_7ShiftedNtB5_7OpeningENtB5_12Substitution10subst_evarB7_
FNDA:0,_RNvXs3_NtCs6kXspXXDlJP_25hyperlight_component_util10substituteINtB5_7ShiftedNtB5_7OpeningENtB5_12Substitution10subst_uvarB7_
FNDA:0,_RNvXs3_NtCs6kXspXXDlJP_25hyperlight_component_util10substituteINtB5_7ShiftedNtB5_7RBShiftENtB5_12Substitution10subst_bvarB7_
FNDA:0,_RNvXs3_NtCs6kXspXXDlJP_25hyperlight_component_util10substituteINtB5_7ShiftedNtB5_7RBShiftENtB5_12Substitution10subst_evarB7_
FNDA:0,_RNvXs3_NtCs6kXspXXDlJP_25hyperlight_component_util10substituteINtB5_7ShiftedNtB5_7RBShiftENtB5_12Substitution10subst_uvarB7_
FNDA:0,_RNvXs3_NtCs6kXspXXDlJP_25hyperlight_component_util10substituteINtB5_7ShiftedNtB5_8InnerizeENtB5_12Substitution10subst_bvarB7_
FNDA:0,_RNvXs3_NtCs6kXspXXDlJP_25hyperlight_component_util10substituteINtB5_7ShiftedNtB5_8InnerizeENtB5_12Substitution10subst_evarB7_
FNDA:0,_RNvXs3_NtCs6kXspXXDlJP_25hyperlight_component_util10substituteINtB5_7ShiftedNtB5_8InnerizeENtB5_12Substitution10subst_uvarB7_
FNDA:0,_RNvXs4_NtCs6kXspXXDlJP_25hyperlight_component_util10substituteNtB5_8InnerizeNtB5_9Shiftable7shifted
FNDA:0,_RNvXs5_NtCs6kXspXXDlJP_25hyperlight_component_util10substituteNtB5_8InnerizeNtB5_12Substitution10subst_bvar
FNDA:0,_RNvXs5_NtCs6kXspXXDlJP_25hyperlight_component_util10substituteNtB5_8InnerizeNtB5_12Substitution10subst_evar
FNDA:0,_RNvXs5_NtCs6kXspXXDlJP_25hyperlight_component_util10substituteNtB5_8InnerizeNtB5_12Substitution10subst_uvar
FNDA:8,_RNvXs8_NtCs6kXspXXDlJP_25hyperlight_component_util10substituteNtB5_7OpeningNtB5_9Shiftable7shifted
FNDA:224,_RNvXs9_NtCs6kXspXXDlJP_25hyperlight_component_util10substituteNtB5_7OpeningNtB5_12Substitution10subst_bvar
FNDA:40,_RNvXs9_NtCs6kXspXXDlJP_25hyperlight_component_util10substituteNtB5_7OpeningNtB5_12Substitution10subst_evar
FNDA:0,_RNvXs9_NtCs6kXspXXDlJP_25hyperlight_component_util10substituteNtB5_7OpeningNtB5_12Substitution10subst_uvar
FNDA:0,_RNvXs_NtCs6kXspXXDlJP_25hyperlight_component_util10substituteNtB4_7RBShiftNtB4_12Substitution10subst_bvar
FNDA:0,_RNvXs_NtCs6kXspXXDlJP_25hyperlight_component_util10substituteNtB4_7RBShiftNtB4_12Substitution10subst_evar
FNDA:0,_RNvXs_NtCs6kXspXXDlJP_25hyperlight_component_util10substituteNtB4_7RBShiftNtB4_12Substitution10subst_uvar
FNDA:13,_RNvXsc_NtCs6kXspXXDlJP_25hyperlight_component_util10substituteNtB5_7ClosingNtB5_9Shiftable7shifted
FNDA:0,_RNvXsd_NtCs6kXspXXDlJP_25hyperlight_component_util10substituteNtB5_7ClosingNtB5_12Substitution10subst_bvar
FNDA:93,_RNvXsd_NtCs6kXspXXDlJP_25hyperlight_component_util10substituteNtB5_7ClosingNtB5_12Substitution10subst_evar
FNDA:21,_RNvXsd_NtCs6kXspXXDlJP_25hyperlight_component_util10substituteNtB5_7ClosingNtB5_12Substitution10subst_uvar
FNDA:75,_RNvYINtNtCs6kXspXXDlJP_25hyperlight_component_util10substitute7ShiftedNtB5_7ClosingENtB5_12Substitution10handleableB7_
FNDA:50,_RNvYINtNtCs6kXspXXDlJP_25hyperlight_component_util10substitute7ShiftedNtB5_7ClosingENtB5_12Substitution10type_boundB7_
FNDA:423,_RNvYINtNtCs6kXspXXDlJP_25hyperlight_component_util10substitute7ShiftedNtB5_7ClosingENtB5_12Substitution11extern_declB7_
FNDA:423,_RNvYINtNtCs6kXspXXDlJP_25hyperlight_component_util10substitute7ShiftedNtB5_7ClosingENtB5_12Substitution11extern_descB7_
FNDA:25,_RNvYINtNtCs6kXspXXDlJP_25hyperlight_component_util10substitute7ShiftedNtB5_7ClosingENtB5_12Substitution11handleable_B7_
FNDA:117,_RNvYINtNtCs6kXspXXDlJP_25hyperlight_component_util10substitute7ShiftedNtB5_7ClosingENtB5_12Substitution12value_optionB7_
FNDA:50,_RNvYINtNtCs6kXspXXDlJP_25hyperlight_component_util10substitute7ShiftedNtB5_7ClosingENtB5_12Substitution13bounded_tyvarB7_
FNDA:27,_RNvYINtNtCs6kXspXXDlJP_25hyperlight_component_util10substitute7ShiftedNtB5_7ClosingENtB5_12Substitution13record_fieldsB7_
FNDA:27,_RNvYINtNtCs6kXspXXDlJP_25hyperlight_component_util10substitute7ShiftedNtB5_7ClosingENtB5_12Substitution13variant_casesB7_
FNDA:2,_RNvYINtNtCs6kXspXXDlJP_25hyperlight_component_util10substitute7ShiftedNtB5_7ClosingENtB5_12Substitution18qualified_instanceB7_
FNDA:165,_RNvYINtNtCs6kXspXXDlJP_25hyperlight_component_util10substitute7ShiftedNtB5_7ClosingENtB5_12Substitution3varB7_
FNDA:359,_RNvYINtNtCs6kXspXXDlJP_25hyperlight_component_util10substitute7ShiftedNtB5_7ClosingENtB5_12Substitution4funcB7_
FNDA:363,_RNvYINtNtCs6kXspXXDlJP_25hyperlight_component_util10substitute7ShiftedNtB5_7ClosingENtB5_12Substitution5paramB7_
FNDA:1342,_RNvYINtNtCs6kXspXXDlJP_25hyperlight_component_util10substitute7ShiftedNtB5_7ClosingENtB5_12Substitution5valueB7_
FNDA:359,_RNvYINtNtCs6kXspXXDlJP_25hyperlight_component_util10substitute7ShiftedNtB5_7ClosingENtB5_12Substitution6paramsB7_
FNDA:359,_RNvYINtNtCs6kXspXXDlJP_25hyperlight_component_util10substitute7ShiftedNtB5_7ClosingENtB5_12Substitution6resultB7_
FNDA:95,_RNvYINtNtCs6kXspXXDlJP_25hyperlight_component_util10substitute7ShiftedNtB5_7ClosingENtB5_12Substitution7definedB7_
FNDA:27,_RNvYINtNtCs6kXspXXDlJP_25hyperlight_component_util10substitute7ShiftedNtB5_7ClosingENtB5_12Substitution8instanceB7_
FNDA:1,_RNvYINtNtCs6kXspXXDlJP_25hyperlight_component_util10substitute7ShiftedNtB5_7ClosingENtB5_12Substitution9componentB7_
FNDA:69,_RNvYINtNtCs6kXspXXDlJP_25hyperlight_component_util10substitute7ShiftedNtB5_7OpeningENtB5_12Substitution10handleableB7_
FNDA:49,_RNvYINtNtCs6kXspXXDlJP_25hyperlight_component_util10substitute7ShiftedNtB5_7OpeningENtB5_12Substitution10type_boundB7_
FNDA:424,_RNvYINtNtCs6kXspXXDlJP_25hyperlight_component_util10substitute7ShiftedNtB5_7OpeningENtB5_12Substitution11extern_declB7_
FNDA:424,_RNvYINtNtCs6kXspXXDlJP_25hyperlight_component_util10substitute7ShiftedNtB5_7OpeningENtB5_12Substitution11extern_descB7_
FNDA:20,_RNvYINtNtCs6kXspXXDlJP_25hyperlight_component_util10substitute7ShiftedNtB5_7OpeningENtB5_12Substitution11handleable_B7_
FNDA:117,_RNvYINtNtCs6kXspXXDlJP_25hyperlight_component_util10substitute7ShiftedNtB5_7OpeningENtB5_12Substitution12value_optionB7_
FNDA:49,_RNvYINtNtCs6kXspXXDlJP_25hyperlight_component_util10substitute7ShiftedNtB5_7OpeningENtB5_12Substitution13bounded_tyvarB7_
FNDA:27,_RNvYINtNtCs6kXspXXDlJP_25hyperlight_component_util10substitute7ShiftedNtB5_7OpeningENtB5_12Substitution13record_fieldsB7_
FNDA:27,_RNvYINtNtCs6kXspXXDlJP_25hyperlight_component_util10substitute7ShiftedNtB5_7OpeningENtB5_12Substitution13variant_casesB7_
FNDA:3,_RNvYINtNtCs6kXspXXDlJP_25hyperlight_component_util10substitute7ShiftedNtB5_7OpeningENtB5_12Substitution18qualified_instanceB7_
FNDA:159,_RNvYINtNtCs6kXspXXDlJP_25hyperlight_component_util10substitute7ShiftedNtB5_7OpeningENtB5_12Substitution3varB7_
FNDA:355,_RNvYINtNtCs6kXspXXDlJP_25hyperlight_component_util10substitute7ShiftedNtB5_7OpeningENtB5_12Substitution4funcB7_
FNDA:357,_RNvYINtNtCs6kXspXXDlJP_25hyperlight_component_util10substitute7ShiftedNtB5_7OpeningENtB5_12Substitution5paramB7_
FNDA:1334,_RNvYINtNtCs6kXspXXDlJP_25hyperlight_component_util10substitute7ShiftedNtB5_7OpeningENtB5_12Substitution5valueB7_
FNDA:355,_RNvYINtNtCs6kXspXXDlJP_25hyperlight_component_util10substitute7ShiftedNtB5_7OpeningENtB5_12Substitution6paramsB7_
FNDA:355,_RNvYINtNtCs6kXspXXDlJP_25hyperlight_component_util10substitute7ShiftedNtB5_7OpeningENtB5_12Substitution6resultB7_
FNDA:94,_RNvYINtNtCs6kXspXXDlJP_25hyperlight_component_util10substitute7ShiftedNtB5_7OpeningENtB5_12Substitution7definedB7_
FNDA:28,_RNvYINtNtCs6kXspXXDlJP_25hyperlight_component_util10substitute7ShiftedNtB5_7OpeningENtB5_12Substitution8instanceB7_
FNDA:1,_RNvYINtNtCs6kXspXXDlJP_25hyperlight_component_util10substitute7ShiftedNtB5_7OpeningENtB5_12Substitution9componentB7_
FNDA:0,_RNvYINtNtCs6kXspXXDlJP_25hyperlight_component_util10substitute7ShiftedNtB5_7RBShiftENtB5_12Substitution10handleableB7_
FNDA:0,_RNvYINtNtCs6kXspXXDlJP_25hyperlight_component_util10substitute7ShiftedNtB5_7RBShiftENtB5_12Substitution10type_boundB7_
FNDA:0,_RNvYINtNtCs6kXspXXDlJP_25hyperlight_component_util10substitute7ShiftedNtB5_7RBShiftENtB5_12Substitution11extern_declB7_
FNDA:0,_RNvYINtNtCs6kXspXXDlJP_25hyperlight_component_util10substitute7ShiftedNtB5_7RBShiftENtB5_12Substitution11extern_descB7_
FNDA:0,_RNvYINtNtCs6kXspXXDlJP_25hyperlight_component_util10substitute7ShiftedNtB5_7RBShiftENtB5_12Substitution11handleable_B7_
FNDA:0,_RNvYINtNtCs6kXspXXDlJP_25hyperlight_component_util10substitute7ShiftedNtB5_7RBShiftENtB5_12Substitution12value_optionB7_
FNDA:0,_RNvYINtNtCs6kXspXXDlJP_25hyperlight_component_util10substitute7ShiftedNtB5_7RBShiftENtB5_12Substitution13bounded_tyvarB7_
FNDA:0,_RNvYINtNtCs6kXspXXDlJP_25hyperlight_component_util10substitute7ShiftedNtB5_7RBShiftENtB5_12Substitution13record_fieldsB7_
FNDA:0,_RNvYINtNtCs6kXspXXDlJP_25hyperlight_component_util10substitute7ShiftedNtB5_7RBShiftENtB5_12Substitution13variant_casesB7_
FNDA:0,_RNvYINtNtCs6kXspXXDlJP_25hyperlight_component_util10substitute7ShiftedNtB5_7RBShiftENtB5_12Substitution18qualified_instanceB7_
FNDA:0,_RNvYINtNtCs6kXspXXDlJP_25hyperlight_component_util10substitute7ShiftedNtB5_7RBShiftENtB5_12Substitution3varB7_
FNDA:0,_RNvYINtNtCs6kXspXXDlJP_25hyperlight_component_util10substitute7ShiftedNtB5_7RBShiftENtB5_12Substitution4funcB7_
FNDA:0,_RNvYINtNtCs6kXspXXDlJP_25hyperlight_component_util10substitute7ShiftedNtB5_7RBShiftENtB5_12Substitution5paramB7_
FNDA:0,_RNvYINtNtCs6kXspXXDlJP_25hyperlight_component_util10substitute7ShiftedNtB5_7RBShiftENtB5_12Substitution5valueB7_
FNDA:0,_RNvYINtNtCs6kXspXXDlJP_25hyperlight_component_util10substitute7ShiftedNtB5_7RBShiftENtB5_12Substitution6paramsB7_
FNDA:0,_RNvYINtNtCs6kXspXXDlJP_25hyperlight_component_util10substitute7ShiftedNtB5_7RBShiftENtB5_12Substitution6resultB7_
FNDA:0,_RNvYINtNtCs6kXspXXDlJP_25hyperlight_component_util10substitute7ShiftedNtB5_7RBShiftENtB5_12Substitution7definedB7_
FNDA:0,_RNvYINtNtCs6kXspXXDlJP_25hyperlight_component_util10substitute7ShiftedNtB5_7RBShiftENtB5_12Substitution8instanceB7_
FNDA:0,_RNvYINtNtCs6kXspXXDlJP_25hyperlight_component_util10substitute7ShiftedNtB5_7RBShiftENtB5_12Substitution9componentB7_
FNDA:0,_RNvYINtNtCs6kXspXXDlJP_25hyperlight_component_util10substitute7ShiftedNtB5_8InnerizeENtB5_12Substitution10handleableB7_
FNDA:0,_RNvYINtNtCs6kXspXXDlJP_25hyperlight_component_util10substitute7ShiftedNtB5_8InnerizeENtB5_12Substitution10type_boundB7_
FNDA:0,_RNvYINtNtCs6kXspXXDlJP_25hyperlight_component_util10substitute7ShiftedNtB5_8InnerizeENtB5_12Substitution11extern_declB7_
FNDA:0,_RNvYINtNtCs6kXspXXDlJP_25hyperlight_component_util10substitute7ShiftedNtB5_8InnerizeENtB5_12Substitution11extern_descB7_
FNDA:0,_RNvYINtNtCs6kXspXXDlJP_25hyperlight_component_util10substitute7ShiftedNtB5_8InnerizeENtB5_12Substitution11handleable_B7_
FNDA:0,_RNvYINtNtCs6kXspXXDlJP_25hyperlight_component_util10substitute7ShiftedNtB5_8InnerizeENtB5_12Substitution12value_optionB7_
FNDA:0,_RNvYINtNtCs6kXspXXDlJP_25hyperlight_component_util10substitute7ShiftedNtB5_8InnerizeENtB5_12Substitution13bounded_tyvarB7_
FNDA:0,_RNvYINtNtCs6kXspXXDlJP_25hyperlight_component_util10substitute7ShiftedNtB5_8InnerizeENtB5_12Substitution13record_fieldsB7_
FNDA:0,_RNvYINtNtCs6kXspXXDlJP_25hyperlight_component_util10substitute7ShiftedNtB5_8InnerizeENtB5_12Substitution13variant_casesB7_
FNDA:0,_RNvYINtNtCs6kXspXXDlJP_25hyperlight_component_util10substitute7ShiftedNtB5_8InnerizeENtB5_12Substitution18qualified_instanceB7_
FNDA:0,_RNvYINtNtCs6kXspXXDlJP_25hyperlight_component_util10substitute7ShiftedNtB5_8InnerizeENtB5_12Substitution3varB7_
FNDA:0,_RNvYINtNtCs6kXspXXDlJP_25hyperlight_component_util10substitute7ShiftedNtB5_8InnerizeENtB5_12Substitution4funcB7_
FNDA:0,_RNvYINtNtCs6kXspXXDlJP_25hyperlight_component_util10substitute7ShiftedNtB5_8InnerizeENtB5_12Substitution5paramB7_
FNDA:0,_RNvYINtNtCs6kXspXXDlJP_25hyperlight_component_util10substitute7ShiftedNtB5_8InnerizeENtB5_12Substitution5valueB7_
FNDA:0,_RNvYINtNtCs6kXspXXDlJP_25hyperlight_component_util10substitute7ShiftedNtB5_8InnerizeENtB5_12Substitution6paramsB7_
FNDA:0,_RNvYINtNtCs6kXspXXDlJP_25hyperlight_component_util10substitute7ShiftedNtB5_8InnerizeENtB5_12Substitution6resultB7_
FNDA:0,_RNvYINtNtCs6kXspXXDlJP_25hyperlight_component_util10substitute7ShiftedNtB5_8InnerizeENtB5_12Substitution7definedB7_
FNDA:0,_RNvYINtNtCs6kXspXXDlJP_25hyperlight_component_util10substitute7ShiftedNtB5_8InnerizeENtB5_12Substitution8instanceB7_
FNDA:0,_RNvYINtNtCs6kXspXXDlJP_25hyperlight_component_util10substitute7ShiftedNtB5_8InnerizeENtB5_12Substitution9componentB7_
FNDA:54,_RNvYNtNtCs6kXspXXDlJP_25hyperlight_component_util10substitute7ClosingNtB4_12Substitution10handleableB6_
FNDA:34,_RNvYNtNtCs6kXspXXDlJP_25hyperlight_component_util10substitute7ClosingNtB4_12Substitution10type_boundB6_
FNDA:284,_RNvYNtNtCs6kXspXXDlJP_25hyperlight_component_util10substitute7ClosingNtB4_12Substitution11extern_declB6_
FNDA:284,_RNvYNtNtCs6kXspXXDlJP_25hyperlight_component_util10substitute7ClosingNtB4_12Substitution11extern_descB6_
FNDA:20,_RNvYNtNtCs6kXspXXDlJP_25hyperlight_component_util10substitute7ClosingNtB4_12Substitution11handleable_B6_
FNDA:78,_RNvYNtNtCs6kXspXXDlJP_25hyperlight_component_util10substitute7ClosingNtB4_12Substitution12value_optionB6_
FNDA:34,_RNvYNtNtCs6kXspXXDlJP_25hyperlight_component_util10substitute7ClosingNtB4_12Substitution13bounded_tyvarB6_
FNDA:18,_RNvYNtNtCs6kXspXXDlJP_25hyperlight_component_util10substitute7ClosingNtB4_12Substitution13record_fieldsB6_
FNDA:18,_RNvYNtNtCs6kXspXXDlJP_25hyperlight_component_util10substitute7ClosingNtB4_12Substitution13variant_casesB6_
FNDA:12,_RNvYNtNtCs6kXspXXDlJP_25hyperlight_component_util10substitute7ClosingNtB4_12Substitution18qualified_instanceB6_
FNDA:114,_RNvYNtNtCs6kXspXXDlJP_25hyperlight_component_util10substitute7ClosingNtB4_12Substitution3varB6_
FNDA:242,_RNvYNtNtCs6kXspXXDlJP_25hyperlight_component_util10substitute7ClosingNtB4_12Substitution4funcB6_
FNDA:246,_RNvYNtNtCs6kXspXXDlJP_25hyperlight_component_util10substitute7ClosingNtB4_12Substitution5paramB6_
FNDA:900,_RNvYNtNtCs6kXspXXDlJP_25hyperlight_component_util10substitute7ClosingNtB4_12Substitution5valueB6_
FNDA:242,_RNvYNtNtCs6kXspXXDlJP_25hyperlight_component_util10substitute7ClosingNtB4_12Substitution6paramsB6_
FNDA:242,_RNvYNtNtCs6kXspXXDlJP_25hyperlight_component_util10substitute7ClosingNtB4_12Substitution6resultB6_
FNDA:64,_RNvYNtNtCs6kXspXXDlJP_25hyperlight_component_util10substitute7ClosingNtB4_12Substitution7definedB6_
FNDA:19,_RNvYNtNtCs6kXspXXDlJP_25hyperlight_component_util10substitute7ClosingNtB4_12Substitution8instanceB6_
FNDA:1,_RNvYNtNtCs6kXspXXDlJP_25hyperlight_component_util10substitute7ClosingNtB4_12Substitution9componentB6_
FNDA:124,_RNvYNtNtCs6kXspXXDlJP_25hyperlight_component_util10substitute7OpeningNtB4_12Substitution10handleableB6_
FNDA:79,_RNvYNtNtCs6kXspXXDlJP_25hyperlight_component_util10substitute7OpeningNtB4_12Substitution10type_boundB6_
FNDA:516,_RNvYNtNtCs6kXspXXDlJP_25hyperlight_component_util10substitute7OpeningNtB4_12Substitution11extern_declB6_
FNDA:662,_RNvYNtNtCs6kXspXXDlJP_25hyperlight_component_util10substitute7OpeningNtB4_12Substitution11extern_descB6_
FNDA:45,_RNvYNtNtCs6kXspXXDlJP_25hyperlight_component_util10substitute7OpeningNtB4_12Substitution11handleable_B6_
FNDA:182,_RNvYNtNtCs6kXspXXDlJP_25hyperlight_component_util10substitute7OpeningNtB4_12Substitution12value_optionB6_
FNDA:79,_RNvYNtNtCs6kXspXXDlJP_25hyperlight_component_util10substitute7OpeningNtB4_12Substitution13bounded_tyvarB6_
FNDA:42,_RNvYNtNtCs6kXspXXDlJP_25hyperlight_component_util10substitute7OpeningNtB4_12Substitution13record_fieldsB6_
FNDA:42,_RNvYNtNtCs6kXspXXDlJP_25hyperlight_component_util10substitute7OpeningNtB4_12Substitution13variant_casesB6_
FNDA:6,_RNvYNtNtCs6kXspXXDlJP_25hyperlight_component_util10substitute7OpeningNtB4_12Substitution18qualified_instanceB6_
FNDA:264,_RNvYNtNtCs6kXspXXDlJP_25hyperlight_component_util10substitute7OpeningNtB4_12Substitution3varB6_
FNDA:563,_RNvYNtNtCs6kXspXXDlJP_25hyperlight_component_util10substitute7OpeningNtB4_12Substitution4funcB6_
FNDA:572,_RNvYNtNtCs6kXspXXDlJP_25hyperlight_component_util10substitute7OpeningNtB4_12Substitution5paramB6_
FNDA:2097,_RNvYNtNtCs6kXspXXDlJP_25hyperlight_component_util10substitute7OpeningNtB4_12Substitution5valueB6_
FNDA:563,_RNvYNtNtCs6kXspXXDlJP_25hyperlight_component_util10substitute7OpeningNtB4_12Substitution6paramsB6_
FNDA:563,_RNvYNtNtCs6kXspXXDlJP_25hyperlight_component_util10substitute7OpeningNtB4_12Substitution6resultB6_
FNDA:149,_RNvYNtNtCs6kXspXXDlJP_25hyperlight_component_util10substitute7OpeningNtB4_12Substitution7definedB6_
FNDA:31,_RNvYNtNtCs6kXspXXDlJP_25hyperlight_component_util10substitute7OpeningNtB4_12Substitution8instanceB6_
FNDA:2,_RNvYNtNtCs6kXspXXDlJP_25hyperlight_component_util10substitute7OpeningNtB4_12Substitution9componentB6_
FNDA:0,_RNvYNtNtCs6kXspXXDlJP_25hyperlight_component_util10substitute7RBShiftNtB4_12Substitution10handleableB6_
FNDA:0,_RNvYNtNtCs6kXspXXDlJP_25hyperlight_component_util10substitute7RBShiftNtB4_12Substitution11handleable_B6_
FNDA:0,_RNvYNtNtCs6kXspXXDlJP_25hyperlight_component_util10substitute7RBShiftNtB4_12Substitution12value_optionB6_
FNDA:0,_RNvYNtNtCs6kXspXXDlJP_25hyperlight_component_util10substitute7RBShiftNtB4_12Substitution13record_fieldsB6_
FNDA:0,_RNvYNtNtCs6kXspXXDlJP_25hyperlight_component_util10substitute7RBShiftNtB4_12Substitution13variant_casesB6_
FNDA:0,_RNvYNtNtCs6kXspXXDlJP_25hyperlight_component_util10substitute7RBShiftNtB4_12Substitution18qualified_instanceB6_
FNDA:0,_RNvYNtNtCs6kXspXXDlJP_25hyperlight_component_util10substitute7RBShiftNtB4_12Substitution3varB6_
FNDA:0,_RNvYNtNtCs6kXspXXDlJP_25hyperlight_component_util10substitute7RBShiftNtB4_12Substitution4funcB6_
FNDA:0,_RNvYNtNtCs6kXspXXDlJP_25hyperlight_component_util10substitute7RBShiftNtB4_12Substitution5paramB6_
FNDA:0,_RNvYNtNtCs6kXspXXDlJP_25hyperlight_component_util10substitute7RBShiftNtB4_12Substitution5valueB6_
FNDA:0,_RNvYNtNtCs6kXspXXDlJP_25hyperlight_component_util10substitute7RBShiftNtB4_12Substitution6paramsB6_
FNDA:0,_RNvYNtNtCs6kXspXXDlJP_25hyperlight_component_util10substitute7RBShiftNtB4_12Substitution6resultB6_
FNDA:0,_RNvYNtNtCs6kXspXXDlJP_25hyperlight_component_util10substitute7RBShiftNtB4_12Substitution7definedB6_
FNDA:0,_RNvYNtNtCs6kXspXXDlJP_25hyperlight_component_util10substitute7RBShiftNtB4_12Substitution9componentB6_
FNDA:0,_RNvYNtNtCs6kXspXXDlJP_25hyperlight_component_util10substitute8InnerizeNtB4_12Substitution10handleableB6_
FNDA:0,_RNvYNtNtCs6kXspXXDlJP_25hyperlight_component_util10substitute8InnerizeNtB4_12Substitution11handleable_B6_
FNDA:0,_RNvYNtNtCs6kXspXXDlJP_25hyperlight_component_util10substitute8InnerizeNtB4_12Substitution12value_optionB6_
FNDA:0,_RNvYNtNtCs6kXspXXDlJP_25hyperlight_component_util10substitute8InnerizeNtB4_12Substitution13record_fieldsB6_
FNDA:0,_RNvYNtNtCs6kXspXXDlJP_25hyperlight_component_util10substitute8InnerizeNtB4_12Substitution13variant_casesB6_
FNDA:0,_RNvYNtNtCs6kXspXXDlJP_25hyperlight_component_util10substitute8InnerizeNtB4_12Substitution18qualified_instanceB6_
FNDA:0,_RNvYNtNtCs6kXspXXDlJP_25hyperlight_component_util10substitute8InnerizeNtB4_12Substitution3varB6_
FNDA:0,_RNvYNtNtCs6kXspXXDlJP_25hyperlight_component_util10substitute8InnerizeNtB4_12Substitution4funcB6_
FNDA:0,_RNvYNtNtCs6kXspXXDlJP_25hyperlight_component_util10substitute8InnerizeNtB4_12Substitution5paramB6_
FNDA:0,_RNvYNtNtCs6kXspXXDlJP_25hyperlight_component_util10substitute8InnerizeNtB4_12Substitution5valueB6_
FNDA:0,_RNvYNtNtCs6kXspXXDlJP_25hyperlight_component_util10substitute8InnerizeNtB4_12Substitution6paramsB6_
FNDA:0,_RNvYNtNtCs6kXspXXDlJP_25hyperlight_component_util10substitute8InnerizeNtB4_12Substitution6resultB6_
FNDA:0,_RNvYNtNtCs6kXspXXDlJP_25hyperlight_component_util10substitute8InnerizeNtB4_12Substitution7definedB6_
FNDA:0,_RNvYNtNtCs6kXspXXDlJP_25hyperlight_component_util10substitute8InnerizeNtB4_12Substitution9componentB6_
FNDA:4,_RNvXs7_NtCs6kXspXXDlJP_25hyperlight_component_util10substituteINtNtCs649FzoMgw5V_4core6result6ResultNtNtB7_6etypes10ExternDeclNtB5_4VoidENtB5_10Unvoidable8not_voidB7_
FNDA:146,_RNvXs7_NtCs6kXspXXDlJP_25hyperlight_component_util10substituteINtNtCs649FzoMgw5V_4core6result6ResultNtNtB7_6etypes10ExternDescNtB5_4VoidENtB5_10Unvoidable8not_voidB7_
FNDA:79,_RNvXs7_NtCs6kXspXXDlJP_25hyperlight_component_util10substituteINtNtCs649FzoMgw5V_4core6result6ResultNtNtB7_6etypes12BoundedTyvarNtB5_4VoidENtB5_10Unvoidable8not_voidB7_
FNDA:6,_RNvXs7_NtCs6kXspXXDlJP_25hyperlight_component_util10substituteINtNtCs649FzoMgw5V_4core6result6ResultNtNtB7_6etypes17QualifiedInstanceNtB5_4VoidENtB5_10Unvoidable8not_voidB7_
FNDA:0,_RNvXs7_NtCs6kXspXXDlJP_25hyperlight_component_util10substituteINtNtCs649FzoMgw5V_4core6result6ResultNtNtB7_6etypes7DefinedNtB5_4VoidENtB5_10Unvoidable8not_voidB7_
FNDA:13,_RNvXs7_NtCs6kXspXXDlJP_25hyperlight_component_util10substituteINtNtCs649FzoMgw5V_4core6result6ResultNtNtB7_6etypes8InstanceNtB5_4VoidENtB5_10Unvoidable8not_voidB7_
FNDA:0,_RNvMs2_NtCs6kXspXXDlJP_25hyperlight_component_util10substituteINtB5_7ShiftedpE6eshiftB7_
FNDA:0,_RNvMs2_NtCs6kXspXXDlJP_25hyperlight_component_util10substituteINtB5_7ShiftedpE6oshiftB7_
FNDA:0,_RNvMs2_NtCs6kXspXXDlJP_25hyperlight_component_util10substituteINtB5_7ShiftedpE6ushiftB7_
FNF:68
FNH:50
DA:63,114
DA:64,114
DA:65,228
DA:66,228
DA:67,228
DA:68,228
DA:70,228
DA:71,114
DA:72,114
DA:74,114
DA:75,114
DA:76,342
DA:77,342
DA:78,342
DA:79,342
DA:80,342
DA:82,342
DA:83,114
DA:84,114
DA:86,494
DA:87,494
DA:88,494
DA:90,5673
DA:91,5673
DA:92,101
DA:93,608
DA:94,1064
DA:95,304
DA:96,310
DA:97,706
DA:98,228
DA:99,1064
DA:100,114
DA:101,114
DA:102,228
DA:103,114
DA:104,76
DA:105,76
DA:106,76
DA:107,152
DA:108,76
DA:110,76
DA:111,76
DA:112,76
DA:114,88
DA:115,22
DA:116,380
DA:117,380
DA:118,170
DA:119,210
DA:120,0
DA:121,380
DA:122,380
DA:125,5673
DA:127,1538
DA:128,1538
DA:129,1538
DA:130,1538
DA:132,1538
DA:134,1519
DA:135,1538
DA:136,1519
DA:138,1519
DA:139,1519
DA:140,1519
DA:141,1519
DA:142,1519
DA:143,1437
DA:144,82
DA:146,1519
DA:148,1519
DA:149,1519
DA:150,1519
DA:151,1519
DA:153,1519
DA:155,702
DA:156,154
DA:157,548
DA:158,21
DA:159,133
DA:161,702
DA:163,322
DA:164,322
DA:165,322
DA:166,0
DA:167,322
DA:169,322
DA:171,110
DA:172,110
DA:173,110
DA:174,0
DA:176,110
DA:178,402
DA:179,402
DA:180,212
DA:181,190
DA:182,0
DA:183,0
DA:184,0
DA:186,402
DA:188,212
DA:189,212
DA:190,190
DA:191,22
DA:193,212
DA:195,212
DA:196,212
DA:197,212
DA:198,212
DA:200,212
DA:202,1793
DA:203,1793
DA:204,0
DA:205,1519
DA:206,212
DA:207,57
DA:208,5
DA:210,1793
DA:212,1647
DA:213,1647
DA:214,1647
DA:215,1647
DA:217,1647
DA:219,105
DA:220,105
DA:221,105
DA:222,105
DA:223,1631
DA:224,105
DA:225,105
DA:226,105
DA:228,23
DA:229,23
DA:230,23
DA:231,23
DA:232,23
DA:233,23
DA:234,92
DA:235,69
DA:236,69
DA:237,69
DA:239,23
DA:240,23
DA:241,23
DA:242,23
DA:243,23
DA:244,23
DA:246,5
DA:247,5
DA:248,5
DA:249,35
DA:250,30
DA:251,30
DA:252,30
DA:254,5
DA:255,5
DA:256,5
DA:257,10
DA:258,5
DA:259,5
DA:260,5
DA:261,5
DA:262,5
DA:263,5
DA:264,5
DA:265,5
DA:277,0
DA:278,0
DA:279,0
DA:283,0
DA:284,0
DA:285,0
DA:286,0
DA:287,0
DA:288,0
DA:289,0
DA:290,0
DA:291,0
DA:292,0
DA:293,0
DA:334,7
DA:335,7
DA:336,7
DA:337,7
DA:338,7
DA:339,7
DA:340,7
DA:341,7
DA:342,7
DA:343,7
DA:347,7
DA:348,7
DA:349,7
DA:353,21
DA:354,21
DA:355,21
DA:356,21
DA:357,21
DA:358,21
DA:359,21
DA:360,21
DA:361,21
DA:362,21
DA:363,99
DA:364,99
DA:365,99
DA:367,0
DA:368,0
DA:369,0
DA:371,0
DA:372,0
DA:373,0
DA:375,0
DA:376,0
DA:377,0
DA:378,99
DA:379,99
DA:380,99
DA:382,0
DA:383,0
DA:384,0
DA:385,0
DA:386,0
DA:387,0
DA:388,0
DA:389,0
DA:390,0
DA:391,0
DA:393,0
DA:395,0
DA:400,324
DA:401,324
DA:402,0
DA:403,324
DA:405,324
DA:406,0
DA:407,0
DA:408,0
DA:409,0
DA:411,0
DA:412,0
DA:414,0
DA:415,0
DA:416,0
DA:417,0
DA:418,0
DA:420,0
DA:421,0
DA:423,0
DA:443,0
DA:444,0
DA:445,0
DA:449,0
DA:450,0
DA:451,0
DA:455,0
DA:456,0
DA:457,0
DA:458,0
DA:459,0
DA:461,0
DA:462,0
DA:463,0
DA:466,0
DA:467,0
DA:468,0
DA:469,0
DA:470,0
DA:471,0
DA:473,0
DA:474,0
DA:475,0
DA:478,0
DA:481,0
DA:482,0
DA:483,0
DA:484,0
DA:485,0
DA:486,0
DA:501,248
DA:502,248
DA:503,248
DA:504,248
DA:505,248
DA:506,248
DA:525,8
DA:526,8
DA:527,8
DA:531,224
DA:532,224
DA:533,224
DA:534,224
DA:535,63
DA:537,161
DA:539,224
DA:540,224
DA:541,224
DA:543,0
DA:545,224
DA:546,40
DA:547,40
DA:548,40
DA:549,0
DA:550,0
DA:551,0
DA:554,165
DA:555,165
DA:556,165
DA:557,165
DA:558,165
DA:559,165
DA:560,165
DA:561,79
DA:562,79
DA:563,79
DA:586,24
DA:587,24
DA:588,24
DA:589,24
DA:590,24
DA:591,24
DA:592,24
DA:593,142
DA:594,142
DA:595,142
DA:596,6
DA:597,6
DA:598,0
DA:600,6
DA:601,6
DA:602,6
DA:603,28
DA:604,28
DA:605,0
DA:606,28
DA:607,28
DA:608,28
DA:609,114
DA:610,114
DA:611,114
DA:612,114
DA:613,114
DA:614,114
DA:615,114
DA:616,0
DA:617,114
DA:618,114
DA:619,0
DA:620,0
DA:622,0
DA:624,0
DA:625,114
DA:626,114
DA:627,0
DA:628,114
DA:629,114
DA:630,0
DA:631,114
DA:632,114
DA:633,21
DA:634,0
DA:635,21
DA:636,66
DA:638,93
DA:640,114
DA:641,114
DA:645,13
DA:646,13
DA:647,13
DA:663,0
DA:664,0
DA:665,0
DA:666,93
DA:667,93
DA:668,93
DA:669,21
DA:670,21
DA:671,21
BRF:0
BRH:0
LF:393
LH:287
end_of_record
SF:/home/runner/work/hyperlight/hyperlight/src/hyperlight_component_util/src/subtype.rs
FN:206,_RNvMNtCs6kXspXXDlJP_25hyperlight_component_util7subtypeNtNtB4_6etypes3Ctx12subtype_func
FN:63,_RNvMNtCs6kXspXXDlJP_25hyperlight_component_util7subtypeNtNtB4_6etypes3Ctx13subtype_value
FN:227,_RNvMNtCs6kXspXXDlJP_25hyperlight_component_util7subtypeNtNtB4_6etypes3Ctx15subtype_defined
FN:139,_RNvMNtCs6kXspXXDlJP_25hyperlight_component_util7subtypeNtNtB4_6etypes3Ctx15subtype_var_var
FN:220,_RNvMNtCs6kXspXXDlJP_25hyperlight_component_util7subtypeNtNtB4_6etypes3Ctx17subtype_component
FN:184,_RNvMNtCs6kXspXXDlJP_25hyperlight_component_util7subtypeNtNtB4_6etypes3Ctx18subtype_handleable
FN:170,_RNvMNtCs6kXspXXDlJP_25hyperlight_component_util7subtypeNtNtB4_6etypes3Ctx20subtype_resource_var
FN:127,_RNvMNtCs6kXspXXDlJP_25hyperlight_component_util7subtypeNtNtB4_6etypes3Ctx20subtype_value_option
FN:156,_RNvMNtCs6kXspXXDlJP_25hyperlight_component_util7subtypeNtNtB4_6etypes3Ctx20subtype_var_resource
FN:213,_RNvMNtCs6kXspXXDlJP_25hyperlight_component_util7subtypeNtNtB4_6etypes3Ctx26subtype_qualified_instance
FN:248,_RNvMNtCs6kXspXXDlJP_25hyperlight_component_util7subtypeNtNtB4_6etypes3Ctx30subtype_handleable_is_resource
FN:98,_RNCNCNvMNtCs6kXspXXDlJP_25hyperlight_component_util7subtypeNtNtB8_6etypes3Ctx13subtype_values0_00B8_
FN:111,_RNCNCNvMNtCs6kXspXXDlJP_25hyperlight_component_util7subtypeNtNtB8_6etypes3Ctx13subtype_values3_00B8_
FN:80,_RNCNvMNtCs6kXspXXDlJP_25hyperlight_component_util7subtypeNtNtB6_6etypes3Ctx13subtype_value0B6_
FN:98,_RNCNvMNtCs6kXspXXDlJP_25hyperlight_component_util7subtypeNtNtB6_6etypes3Ctx13subtype_values0_0B6_
FN:99,_RNCNvMNtCs6kXspXXDlJP_25hyperlight_component_util7subtypeNtNtB6_6etypes3Ctx13subtype_values1_0B6_
FN:102,_RNCNvMNtCs6kXspXXDlJP_25hyperlight_component_util7subtypeNtNtB6_6etypes3Ctx13subtype_values2_0B6_
FN:111,_RNCNvMNtCs6kXspXXDlJP_25hyperlight_component_util7subtypeNtNtB6_6etypes3Ctx13subtype_values3_0B6_
FN:112,_RNCNvMNtCs6kXspXXDlJP_25hyperlight_component_util7subtypeNtNtB6_6etypes3Ctx13subtype_values4_0B6_
FN:90,_RNCNvMNtCs6kXspXXDlJP_25hyperlight_component_util7subtypeNtNtB6_6etypes3Ctx13subtype_values_0B6_
FNDA:0,_RNvMNtCs6kXspXXDlJP_25hyperlight_component_util7subtypeNtNtB4_6etypes3Ctx12subtype_func
FNDA:0,_RNvMNtCs6kXspXXDlJP_25hyperlight_component_util7subtypeNtNtB4_6etypes3Ctx13subtype_value
FNDA:0,_RNvMNtCs6kXspXXDlJP_25hyperlight_component_util7subtypeNtNtB4_6etypes3Ctx15subtype_defined
FNDA:0,_RNvMNtCs6kXspXXDlJP_25hyperlight_component_util7subtypeNtNtB4_6etypes3Ctx15subtype_var_var
FNDA:0,_RNvMNtCs6kXspXXDlJP_25hyperlight_component_util7subtypeNtNtB4_6etypes3Ctx17subtype_component
FNDA:0,_RNvMNtCs6kXspXXDlJP_25hyperlight_component_util7subtypeNtNtB4_6etypes3Ctx18subtype_handleable
FNDA:0,_RNvMNtCs6kXspXXDlJP_25hyperlight_component_util7subtypeNtNtB4_6etypes3Ctx20subtype_resource_var
FNDA:0,_RNvMNtCs6kXspXXDlJP_25hyperlight_component_util7subtypeNtNtB4_6etypes3Ctx20subtype_value_option
FNDA:0,_RNvMNtCs6kXspXXDlJP_25hyperlight_component_util7subtypeNtNtB4_6etypes3Ctx20subtype_var_resource
FNDA:0,_RNvMNtCs6kXspXXDlJP_25hyperlight_component_util7subtypeNtNtB4_6etypes3Ctx26subtype_qualified_instance
FNDA:25,_RNvMNtCs6kXspXXDlJP_25hyperlight_component_util7subtypeNtNtB4_6etypes3Ctx30subtype_handleable_is_resource
FNDA:0,_RNCNCNvMNtCs6kXspXXDlJP_25hyperlight_component_util7subtypeNtNtB8_6etypes3Ctx13subtype_values0_00B8_
FNDA:0,_RNCNCNvMNtCs6kXspXXDlJP_25hyperlight_component_util7subtypeNtNtB8_6etypes3Ctx13subtype_values3_00B8_
FNDA:0,_RNCNvMNtCs6kXspXXDlJP_25hyperlight_component_util7subtypeNtNtB6_6etypes3Ctx13subtype_value0B6_
FNDA:0,_RNCNvMNtCs6kXspXXDlJP_25hyperlight_component_util7subtypeNtNtB6_6etypes3Ctx13subtype_values0_0B6_
FNDA:0,_RNCNvMNtCs6kXspXXDlJP_25hyperlight_component_util7subtypeNtNtB6_6etypes3Ctx13subtype_values1_0B6_
FNDA:0,_RNCNvMNtCs6kXspXXDlJP_25hyperlight_component_util7subtypeNtNtB6_6etypes3Ctx13subtype_values2_0B6_
FNDA:0,_RNCNvMNtCs6kXspXXDlJP_25hyperlight_component_util7subtypeNtNtB6_6etypes3Ctx13subtype_values3_0B6_
FNDA:0,_RNCNvMNtCs6kXspXXDlJP_25hyperlight_component_util7subtypeNtNtB6_6etypes3Ctx13subtype_values4_0B6_
FNDA:0,_RNCNvMNtCs6kXspXXDlJP_25hyperlight_component_util7subtypeNtNtB6_6etypes3Ctx13subtype_values_0B6_
FNF:20
FNH:1
DA:63,0
DA:64,0
DA:65,0
DA:66,0
DA:67,0
DA:70,0
DA:71,0
DA:72,0
DA:73,0
DA:74,0
DA:75,0
DA:76,0
DA:77,0
DA:78,0
DA:79,0
DA:80,0
DA:81,0
DA:82,0
DA:85,0
DA:87,0
DA:88,0
DA:89,0
DA:90,0
DA:91,0
DA:92,0
DA:93,0
DA:94,0
DA:96,0
DA:97,0
DA:98,0
DA:99,0
DA:100,0
DA:101,0
DA:102,0
DA:103,0
DA:104,0
DA:107,0
DA:109,0
DA:110,0
DA:111,0
DA:112,0
DA:113,0
DA:114,0
DA:115,0
DA:116,0
DA:117,0
DA:118,0
DA:119,0
DA:120,0
DA:122,0
DA:123,0
DA:124,0
DA:126,0
DA:127,0
DA:128,0
DA:129,0
DA:130,0
DA:131,0
DA:132,0
DA:133,0
DA:134,0
DA:135,0
DA:136,0
DA:138,0
DA:139,0
DA:140,0
DA:141,0
DA:142,0
DA:144,0
DA:145,0
DA:147,0
DA:148,0
DA:151,0
DA:153,0
DA:155,0
DA:156,0
DA:157,0
DA:158,0
DA:159,0
DA:160,0
DA:161,0
DA:162,0
DA:163,0
DA:164,0
DA:165,0
DA:167,0
DA:169,0
DA:170,0
DA:171,0
DA:172,0
DA:173,0
DA:174,0
DA:175,0
DA:176,0
DA:177,0
DA:178,0
DA:179,0
DA:181,0
DA:183,0
DA:184,0
DA:185,0
DA:186,0
DA:187,0
DA:188,0
DA:189,0
DA:190,0
DA:191,0
DA:192,0
DA:194,0
DA:195,0
DA:197,0
DA:198,0
DA:199,0
DA:201,0
DA:205,0
DA:206,0
DA:207,0
DA:208,0
DA:209,0
DA:210,0
DA:211,0
DA:213,0
DA:214,0
DA:215,0
DA:216,0
DA:217,0
DA:218,0
DA:220,0
DA:221,0
DA:222,0
DA:223,0
DA:224,0
DA:225,0
DA:227,0
DA:228,0
DA:229,0
DA:230,0
DA:231,0
DA:232,0
DA:233,0
DA:234,0
DA:236,0
DA:237,0
DA:238,0
DA:239,0
DA:241,0
DA:242,0
DA:243,0
DA:244,0
DA:245,0
DA:247,0
DA:248,25
DA:249,25
DA:250,0
DA:251,25
DA:252,0
DA:253,15
DA:254,10
DA:255,0
DA:258,25
BRF:0
BRH:0
LF:170
LH:6
end_of_record
SF:/home/runner/work/hyperlight/hyperlight/src/hyperlight_component_util/src/tv.rs
FN:42,_RNvMNtCs6kXspXXDlJP_25hyperlight_component_util2tvNtNtB4_6etypes3Ctx11lookup_evar
FN:37,_RNvMNtCs6kXspXXDlJP_25hyperlight_component_util2tvNtNtB4_6etypes3Ctx11lookup_uvar
FN:58,_RNvMNtCs6kXspXXDlJP_25hyperlight_component_util2tvNtNtB4_6etypes3Ctx13resolve_tyvar
FN:86,_RNvMNtCs6kXspXXDlJP_25hyperlight_component_util2tvNtNtB4_6etypes3Ctx14bound_to_evars
FN:104,_RNvMNtCs6kXspXXDlJP_25hyperlight_component_util2tvNtNtB4_6etypes3Ctx14bound_to_uvars
FN:49,_RNvMNtCs6kXspXXDlJP_25hyperlight_component_util2tvNtNtB4_6etypes3Ctx9var_bound
FN:59,_RNCNvMNtCs6kXspXXDlJP_25hyperlight_component_util2tvNtNtB6_6etypes3Ctx13resolve_tyvar0B6_
FNDA:153,_RNvMNtCs6kXspXXDlJP_25hyperlight_component_util2tvNtNtB4_6etypes3Ctx11lookup_evar
FNDA:52,_RNvMNtCs6kXspXXDlJP_25hyperlight_component_util2tvNtNtB4_6etypes3Ctx11lookup_uvar
FNDA:55,_RNvMNtCs6kXspXXDlJP_25hyperlight_component_util2tvNtNtB4_6etypes3Ctx13resolve_tyvar
FNDA:157,_RNvMNtCs6kXspXXDlJP_25hyperlight_component_util2tvNtNtB4_6etypes3Ctx14bound_to_evars
FNDA:8,_RNvMNtCs6kXspXXDlJP_25hyperlight_component_util2tvNtNtB4_6etypes3Ctx14bound_to_uvars
FNDA:150,_RNvMNtCs6kXspXXDlJP_25hyperlight_component_util2tvNtNtB4_6etypes3Ctx9var_bound
FNDA:0,_RNCNvMNtCs6kXspXXDlJP_25hyperlight_component_util2tvNtNtB6_6etypes3Ctx13resolve_tyvar0B6_
FNF:7
FNH:6
DA:37,52
DA:38,52
DA:39,52
DA:40,52
DA:42,153
DA:43,153
DA:44,153
DA:45,153
DA:49,150
DA:50,150
DA:51,0
DA:52,42
DA:53,108
DA:55,150
DA:58,55
DA:59,55
DA:60,0
DA:61,30
DA:62,30
DA:63,55
DA:64,0
DA:65,45
DA:66,45
DA:67,45
DA:68,30
DA:69,0
DA:70,15
DA:73,10
DA:74,10
DA:75,10
DA:76,0
DA:77,10
DA:81,55
DA:86,157
DA:87,157
DA:88,157
DA:89,157
DA:90,157
DA:91,157
DA:92,218
DA:93,61
DA:94,61
DA:95,61
DA:96,61
DA:97,61
DA:98,157
DA:99,157
DA:104,8
DA:105,8
DA:106,8
DA:107,8
DA:108,8
DA:109,8
DA:110,8
DA:111,26
DA:112,18
DA:113,18
DA:114,18
DA:115,18
DA:116,18
DA:117,8
DA:118,8
BRF:0
BRH:0
LF:63
LH:57
end_of_record
SF:/home/runner/work/hyperlight/hyperlight/src/hyperlight_component_util/src/util.rs
FN:22,_RINvNtCs6kXspXXDlJP_25hyperlight_component_util4util23read_wit_type_from_fileNtCslx8VUdehuJt_10proc_macro11TokenStreamNCNvCs5xvH27WXDiW_26hyperlight_component_macro12host_bindgens0_0NtNtNtCsiHPLOJXd9bG_3std3ffi6os_str8OsStringEB1W_
FN:22,_RINvNtCs6kXspXXDlJP_25hyperlight_component_util4util23read_wit_type_from_fileNtCslx8VUdehuJt_10proc_macro11TokenStreamNCNvCs5xvH27WXDiW_26hyperlight_component_macro13guest_bindgens0_0NtNtNtCsiHPLOJXd9bG_3std3ffi6os_str8OsStringEB1W_
FN:57,_RNvNtCs6kXspXXDlJP_25hyperlight_component_util4util10emit_decls
FN:22,_RINvNtCs6kXspXXDlJP_25hyperlight_component_util4util23read_wit_type_from_filepppEB4_
FNDA:1,_RINvNtCs6kXspXXDlJP_25hyperlight_component_util4util23read_wit_type_from_fileNtCslx8VUdehuJt_10proc_macro11TokenStreamNCNvCs5xvH27WXDiW_26hyperlight_component_macro12host_bindgens0_0NtNtNtCsiHPLOJXd9bG_3std3ffi6os_str8OsStringEB1W_
FNDA:0,_RINvNtCs6kXspXXDlJP_25hyperlight_component_util4util23read_wit_type_from_fileNtCslx8VUdehuJt_10proc_macro11TokenStreamNCNvCs5xvH27WXDiW_26hyperlight_component_macro13guest_bindgens0_0NtNtNtCsiHPLOJXd9bG_3std3ffi6os_str8OsStringEB1W_
FNDA:1,_RNvNtCs6kXspXXDlJP_25hyperlight_component_util4util10emit_decls
FNDA:0,_RINvNtCs6kXspXXDlJP_25hyperlight_component_util4util23read_wit_type_from_filepppEB4_
FNF:2
FNH:2
DA:22,1
DA:23,1
DA:24,1
DA:25,1
DA:26,1
DA:27,1
DA:28,1
DA:29,1
DA:30,1
DA:31,1
DA:32,1
DA:33,1
DA:34,1
DA:35,1
DA:36,1
DA:37,1
DA:38,1
DA:39,1
DA:40,1
DA:42,0
DA:43,1
DA:44,1
DA:46,1
DA:47,0
DA:49,1
DA:50,1
DA:51,1
DA:57,1
DA:58,1
DA:59,0
DA:60,0
DA:61,0
DA:62,0
DA:63,0
DA:64,0
DA:65,0
DA:67,1
DA:69,1
BRF:0
BRH:0
LF:38
LH:29
end_of_record
SF:/home/runner/work/hyperlight/hyperlight/src/hyperlight_component_util/src/wf.rs
FN:315,_RNvMs1_NtCs6kXspXXDlJP_25hyperlight_component_util2wfNtNtB7_6etypes3Ctx10wf_defined
FN:348,_RNvMs1_NtCs6kXspXXDlJP_25hyperlight_component_util2wfNtNtB7_6etypes3Ctx11wf_instance
FN:375,_RNvMs1_NtCs6kXspXXDlJP_25hyperlight_component_util2wfNtNtB7_6etypes3Ctx12wf_component
FN:297,_RNvMs1_NtCs6kXspXXDlJP_25hyperlight_component_util2wfNtNtB7_6etypes3Ctx13wf_handleable
FN:276,_RNvMs1_NtCs6kXspXXDlJP_25hyperlight_component_util2wfNtNtB7_6etypes3Ctx13wf_type_bound
FN:341,_RNvMs1_NtCs6kXspXXDlJP_25hyperlight_component_util2wfNtNtB7_6etypes3Ctx14wf_extern_decl
FN:328,_RNvMs1_NtCs6kXspXXDlJP_25hyperlight_component_util2wfNtNtB7_6etypes3Ctx14wf_extern_desc
FN:251,_RNvMs1_NtCs6kXspXXDlJP_25hyperlight_component_util2wfNtNtB7_6etypes3Ctx15wf_value_option
FN:286,_RNvMs1_NtCs6kXspXXDlJP_25hyperlight_component_util2wfNtNtB7_6etypes3Ctx16wf_bounded_tyvar
FN:158,_RNvMs1_NtCs6kXspXXDlJP_25hyperlight_component_util2wfNtNtB7_6etypes3Ctx16wf_record_fields
FN:172,_RNvMs1_NtCs6kXspXXDlJP_25hyperlight_component_util2wfNtNtB7_6etypes3Ctx16wf_variant_cases
FN:362,_RNvMs1_NtCs6kXspXXDlJP_25hyperlight_component_util2wfNtNtB7_6etypes3Ctx21wf_qualified_instance
FN:258,_RNvMs1_NtCs6kXspXXDlJP_25hyperlight_component_util2wfNtNtB7_6etypes3Ctx7wf_func
FN:195,_RNvMs1_NtCs6kXspXXDlJP_25hyperlight_component_util2wfNtNtB7_6etypes3Ctx8wf_value
FN:140,_RINvNtCs6kXspXXDlJP_25hyperlight_component_util2wf22error_if_duplicates_byRNtNtB4_6etypes10ExternDeclReNtB2_5ErrorINtNtNtCs649FzoMgw5V_4core5slice4iter4IterB1b_ENCNvMs1_B2_NtB1d_3Ctx11wf_instance0NCB2B_s_0EB4_
FN:140,_RINvNtCs6kXspXXDlJP_25hyperlight_component_util2wf22error_if_duplicates_byRNtNtB4_6etypes10ExternDeclReNtB2_5ErrorINtNtNtCs649FzoMgw5V_4core5slice4iter4IterB1b_ENCNvMs1_B2_NtB1d_3Ctx12wf_components_0NCB2B_s0_0EB4_
FN:140,_RINvNtCs6kXspXXDlJP_25hyperlight_component_util2wf22error_if_duplicates_byRNtNtB4_6etypes11RecordFieldReNtB2_5ErrorINtNtNtCs649FzoMgw5V_4core5slice4iter4IterB1b_ENCNvMs1_B2_NtB1d_3Ctx16wf_record_fieldss_0NCB2C_s0_0EB4_
FN:140,_RINvNtCs6kXspXXDlJP_25hyperlight_component_util2wf22error_if_duplicates_byRNtNtB4_6etypes11VariantCaseReNtB2_5ErrorINtNtNtCs649FzoMgw5V_4core5slice4iter4IterB1b_ENCNvMs1_B2_NtB1d_3Ctx16wf_variant_casess_0NCB2C_s0_0EB4_
FN:140,_RINvNtCs6kXspXXDlJP_25hyperlight_component_util2wf22error_if_duplicates_byRNtNtB4_6etypes4NameReNtB2_5ErrorINtNtNtCs649FzoMgw5V_4core5slice4iter4IterB1b_ENCNvMs1_B2_NtB1d_3Ctx8wf_values1_0NCB2u_s2_0EB4_
FN:140,_RINvNtCs6kXspXXDlJP_25hyperlight_component_util2wf22error_if_duplicates_byRNtNtB4_6etypes4NameReNtB2_5ErrorINtNtNtCs649FzoMgw5V_4core5slice4iter4IterB1b_ENCNvMs1_B2_NtB1d_3Ctx8wf_values_0NCB2u_s0_0EB4_
FN:355,_RNCNvMs1_NtCs6kXspXXDlJP_25hyperlight_component_util2wfNtNtB9_6etypes3Ctx11wf_instance0B9_
FN:360,_RNCNvMs1_NtCs6kXspXXDlJP_25hyperlight_component_util2wfNtNtB9_6etypes3Ctx11wf_instances0_0B9_
FN:356,_RNCNvMs1_NtCs6kXspXXDlJP_25hyperlight_component_util2wfNtNtB9_6etypes3Ctx11wf_instances_0B9_
FN:384,_RNCNvMs1_NtCs6kXspXXDlJP_25hyperlight_component_util2wfNtNtB9_6etypes3Ctx12wf_component0B9_
FN:388,_RNCNvMs1_NtCs6kXspXXDlJP_25hyperlight_component_util2wfNtNtB9_6etypes3Ctx12wf_components0_0B9_
FN:392,_RNCNvMs1_NtCs6kXspXXDlJP_25hyperlight_component_util2wfNtNtB9_6etypes3Ctx12wf_components1_0B9_
FN:393,_RNCNvMs1_NtCs6kXspXXDlJP_25hyperlight_component_util2wfNtNtB9_6etypes3Ctx12wf_components2_0B9_
FN:387,_RNCNvMs1_NtCs6kXspXXDlJP_25hyperlight_component_util2wfNtNtB9_6etypes3Ctx12wf_components_0B9_
FN:256,_RNCNvMs1_NtCs6kXspXXDlJP_25hyperlight_component_util2wfNtNtB9_6etypes3Ctx15wf_value_option0B9_
FN:164,_RNCNvMs1_NtCs6kXspXXDlJP_25hyperlight_component_util2wfNtNtB9_6etypes3Ctx16wf_record_fields0B9_
FN:168,_RNCNvMs1_NtCs6kXspXXDlJP_25hyperlight_component_util2wfNtNtB9_6etypes3Ctx16wf_record_fieldss0_0B9_
FN:167,_RNCNvMs1_NtCs6kXspXXDlJP_25hyperlight_component_util2wfNtNtB9_6etypes3Ctx16wf_record_fieldss_0B9_
FN:178,_RNCNvMs1_NtCs6kXspXXDlJP_25hyperlight_component_util2wfNtNtB9_6etypes3Ctx16wf_variant_cases0B9_
FN:182,_RNCNvMs1_NtCs6kXspXXDlJP_25hyperlight_component_util2wfNtNtB9_6etypes3Ctx16wf_variant_casess0_0B9_
FN:181,_RNCNvMs1_NtCs6kXspXXDlJP_25hyperlight_component_util2wfNtNtB9_6etypes3Ctx16wf_variant_casess_0B9_
FN:371,_RNCNvMs1_NtCs6kXspXXDlJP_25hyperlight_component_util2wfNtNtB9_6etypes3Ctx21wf_qualified_instance0B9_
FN:270,_RNCNvMs1_NtCs6kXspXXDlJP_25hyperlight_component_util2wfNtNtB9_6etypes3Ctx7wf_func0B9_
FN:202,_RNCNvMs1_NtCs6kXspXXDlJP_25hyperlight_component_util2wfNtNtB9_6etypes3Ctx8wf_value0B9_
FN:222,_RNCNvMs1_NtCs6kXspXXDlJP_25hyperlight_component_util2wfNtNtB9_6etypes3Ctx8wf_values0_0B9_
FN:226,_RNCNvMs1_NtCs6kXspXXDlJP_25hyperlight_component_util2wfNtNtB9_6etypes3Ctx8wf_values1_0B9_
FN:227,_RNCNvMs1_NtCs6kXspXXDlJP_25hyperlight_component_util2wfNtNtB9_6etypes3Ctx8wf_values2_0B9_
FN:232,_RNCNvMs1_NtCs6kXspXXDlJP_25hyperlight_component_util2wfNtNtB9_6etypes3Ctx8wf_values3_0B9_
FN:246,_RNCNvMs1_NtCs6kXspXXDlJP_25hyperlight_component_util2wfNtNtB9_6etypes3Ctx8wf_values4_0B9_
FN:221,_RNCNvMs1_NtCs6kXspXXDlJP_25hyperlight_component_util2wfNtNtB9_6etypes3Ctx8wf_values_0B9_
FN:98,_RNvMs0_NtCs6kXspXXDlJP_25hyperlight_component_util2wfNtB5_19DefinedTypePosition11anon_export
FN:92,_RNvMs0_NtCs6kXspXXDlJP_25hyperlight_component_util2wfNtB5_19DefinedTypePosition15not_anon_export
FN:86,_RNvMs0_NtCs6kXspXXDlJP_25hyperlight_component_util2wfNtB5_19DefinedTypePosition6export
FN:80,_RNvMs0_NtCs6kXspXXDlJP_25hyperlight_component_util2wfNtB5_19DefinedTypePosition8internal
FN:55,_RNvMs_NtCs6kXspXXDlJP_25hyperlight_component_util2wfNtB4_17ValueTypePosition11anon_export
FN:49,_RNvMs_NtCs6kXspXXDlJP_25hyperlight_component_util2wfNtB4_17ValueTypePosition15not_anon_export
FN:41,_RNvXNtCs6kXspXXDlJP_25hyperlight_component_util2wfNtB2_17ValueTypePositionINtNtCs649FzoMgw5V_4core7convert4FromNtB2_19DefinedTypePositionE4from
FNDA:210,_RNvMs1_NtCs6kXspXXDlJP_25hyperlight_component_util2wfNtNtB7_6etypes3Ctx10wf_defined
FNDA:24,_RNvMs1_NtCs6kXspXXDlJP_25hyperlight_component_util2wfNtNtB7_6etypes3Ctx11wf_instance
FNDA:6,_RNvMs1_NtCs6kXspXXDlJP_25hyperlight_component_util2wfNtNtB7_6etypes3Ctx12wf_component
FNDA:70,_RNvMs1_NtCs6kXspXXDlJP_25hyperlight_component_util2wfNtNtB7_6etypes3Ctx13wf_handleable
FNDA:150,_RNvMs1_NtCs6kXspXXDlJP_25hyperlight_component_util2wfNtNtB7_6etypes3Ctx13wf_type_bound
FNDA:378,_RNvMs1_NtCs6kXspXXDlJP_25hyperlight_component_util2wfNtNtB7_6etypes3Ctx14wf_extern_decl
FNDA:378,_RNvMs1_NtCs6kXspXXDlJP_25hyperlight_component_util2wfNtNtB7_6etypes3Ctx14wf_extern_desc
FNDA:179,_RNvMs1_NtCs6kXspXXDlJP_25hyperlight_component_util2wfNtNtB7_6etypes3Ctx15wf_value_option
FNDA:50,_RNvMs1_NtCs6kXspXXDlJP_25hyperlight_component_util2wfNtNtB7_6etypes3Ctx16wf_bounded_tyvar
FNDA:49,_RNvMs1_NtCs6kXspXXDlJP_25hyperlight_component_util2wfNtNtB7_6etypes3Ctx16wf_record_fields
FNDA:49,_RNvMs1_NtCs6kXspXXDlJP_25hyperlight_component_util2wfNtNtB7_6etypes3Ctx16wf_variant_cases
FNDA:13,_RNvMs1_NtCs6kXspXXDlJP_25hyperlight_component_util2wfNtNtB7_6etypes3Ctx21wf_qualified_instance
FNDA:321,_RNvMs1_NtCs6kXspXXDlJP_25hyperlight_component_util2wfNtNtB7_6etypes3Ctx7wf_func
FNDA:1422,_RNvMs1_NtCs6kXspXXDlJP_25hyperlight_component_util2wfNtNtB7_6etypes3Ctx8wf_value
FNDA:24,_RINvNtCs6kXspXXDlJP_25hyperlight_component_util2wf22error_if_duplicates_byRNtNtB4_6etypes10ExternDeclReNtB2_5ErrorINtNtNtCs649FzoMgw5V_4core5slice4iter4IterB1b_ENCNvMs1_B2_NtB1d_3Ctx11wf_instance0NCB2B_s_0EB4_
FNDA:6,_RINvNtCs6kXspXXDlJP_25hyperlight_component_util2wf22error_if_duplicates_byRNtNtB4_6etypes10ExternDeclReNtB2_5ErrorINtNtNtCs649FzoMgw5V_4core5slice4iter4IterB1b_ENCNvMs1_B2_NtB1d_3Ctx12wf_components_0NCB2B_s0_0EB4_
FNDA:49,_RINvNtCs6kXspXXDlJP_25hyperlight_component_util2wf22error_if_duplicates_byRNtNtB4_6etypes11RecordFieldReNtB2_5ErrorINtNtNtCs649FzoMgw5V_4core5slice4iter4IterB1b_ENCNvMs1_B2_NtB1d_3Ctx16wf_record_fieldss_0NCB2C_s0_0EB4_
FNDA:49,_RINvNtCs6kXspXXDlJP_25hyperlight_component_util2wf22error_if_duplicates_byRNtNtB4_6etypes11VariantCaseReNtB2_5ErrorINtNtNtCs649FzoMgw5V_4core5slice4iter4IterB1b_ENCNvMs1_B2_NtB1d_3Ctx16wf_variant_casess_0NCB2C_s0_0EB4_
FNDA:49,_RINvNtCs6kXspXXDlJP_25hyperlight_component_util2wf22error_if_duplicates_byRNtNtB4_6etypes4NameReNtB2_5ErrorINtNtNtCs649FzoMgw5V_4core5slice4iter4IterB1b_ENCNvMs1_B2_NtB1d_3Ctx8wf_values1_0NCB2u_s2_0EB4_
FNDA:98,_RINvNtCs6kXspXXDlJP_25hyperlight_component_util2wf22error_if_duplicates_byRNtNtB4_6etypes4NameReNtB2_5ErrorINtNtNtCs649FzoMgw5V_4core5slice4iter4IterB1b_ENCNvMs1_B2_NtB1d_3Ctx8wf_values_0NCB2u_s0_0EB4_
FNDA:374,_RNCNvMs1_NtCs6kXspXXDlJP_25hyperlight_component_util2wfNtNtB9_6etypes3Ctx11wf_instance0B9_
FNDA:374,_RNCNvMs1_NtCs6kXspXXDlJP_25hyperlight_component_util2wfNtNtB9_6etypes3Ctx11wf_instances0_0B9_
FNDA:0,_RNCNvMs1_NtCs6kXspXXDlJP_25hyperlight_component_util2wfNtNtB9_6etypes3Ctx11wf_instances_0B9_
FNDA:12,_RNCNvMs1_NtCs6kXspXXDlJP_25hyperlight_component_util2wfNtNtB9_6etypes3Ctx12wf_component0B9_
FNDA:0,_RNCNvMs1_NtCs6kXspXXDlJP_25hyperlight_component_util2wfNtNtB9_6etypes3Ctx12wf_components0_0B9_
FNDA:4,_RNCNvMs1_NtCs6kXspXXDlJP_25hyperlight_component_util2wfNtNtB9_6etypes3Ctx12wf_components1_0B9_
FNDA:4,_RNCNvMs1_NtCs6kXspXXDlJP_25hyperlight_component_util2wfNtNtB9_6etypes3Ctx12wf_components2_0B9_
FNDA:4,_RNCNvMs1_NtCs6kXspXXDlJP_25hyperlight_component_util2wfNtNtB9_6etypes3Ctx12wf_components_0B9_
FNDA:130,_RNCNvMs1_NtCs6kXspXXDlJP_25hyperlight_component_util2wfNtNtB9_6etypes3Ctx15wf_value_option0B9_
FNDA:98,_RNCNvMs1_NtCs6kXspXXDlJP_25hyperlight_component_util2wfNtNtB9_6etypes3Ctx16wf_record_fields0B9_
FNDA:0,_RNCNvMs1_NtCs6kXspXXDlJP_25hyperlight_component_util2wfNtNtB9_6etypes3Ctx16wf_record_fieldss0_0B9_
FNDA:98,_RNCNvMs1_NtCs6kXspXXDlJP_25hyperlight_component_util2wfNtNtB9_6etypes3Ctx16wf_record_fieldss_0B9_
FNDA:147,_RNCNvMs1_NtCs6kXspXXDlJP_25hyperlight_component_util2wfNtNtB9_6etypes3Ctx16wf_variant_cases0B9_
FNDA:0,_RNCNvMs1_NtCs6kXspXXDlJP_25hyperlight_component_util2wfNtNtB9_6etypes3Ctx16wf_variant_casess0_0B9_
FNDA:147,_RNCNvMs1_NtCs6kXspXXDlJP_25hyperlight_component_util2wfNtNtB9_6etypes3Ctx16wf_variant_casess_0B9_
FNDA:38,_RNCNvMs1_NtCs6kXspXXDlJP_25hyperlight_component_util2wfNtNtB9_6etypes3Ctx21wf_qualified_instance0B9_
FNDA:326,_RNCNvMs1_NtCs6kXspXXDlJP_25hyperlight_component_util2wfNtNtB9_6etypes3Ctx7wf_func0B9_
FNDA:25,_RNCNvMs1_NtCs6kXspXXDlJP_25hyperlight_component_util2wfNtNtB9_6etypes3Ctx8wf_value0B9_
FNDA:0,_RNCNvMs1_NtCs6kXspXXDlJP_25hyperlight_component_util2wfNtNtB9_6etypes3Ctx8wf_values0_0B9_
FNDA:147,_RNCNvMs1_NtCs6kXspXXDlJP_25hyperlight_component_util2wfNtNtB9_6etypes3Ctx8wf_values1_0B9_
FNDA:0,_RNCNvMs1_NtCs6kXspXXDlJP_25hyperlight_component_util2wfNtNtB9_6etypes3Ctx8wf_values2_0B9_
FNDA:32,_RNCNvMs1_NtCs6kXspXXDlJP_25hyperlight_component_util2wfNtNtB9_6etypes3Ctx8wf_values3_0B9_
FNDA:80,_RNCNvMs1_NtCs6kXspXXDlJP_25hyperlight_component_util2wfNtNtB9_6etypes3Ctx8wf_values4_0B9_
FNDA:1715,_RNCNvMs1_NtCs6kXspXXDlJP_25hyperlight_component_util2wfNtNtB9_6etypes3Ctx8wf_values_0B9_
FNDA:1743,_RNvMs0_NtCs6kXspXXDlJP_25hyperlight_component_util2wfNtB5_19DefinedTypePosition11anon_export
FNDA:200,_RNvMs0_NtCs6kXspXXDlJP_25hyperlight_component_util2wfNtB5_19DefinedTypePosition15not_anon_export
FNDA:0,_RNvMs0_NtCs6kXspXXDlJP_25hyperlight_component_util2wfNtB5_19DefinedTypePosition6export
FNDA:12,_RNvMs0_NtCs6kXspXXDlJP_25hyperlight_component_util2wfNtB5_19DefinedTypePosition8internal
FNDA:1422,_RNvMs_NtCs6kXspXXDlJP_25hyperlight_component_util2wfNtB4_17ValueTypePosition11anon_export
FNDA:80,_RNvMs_NtCs6kXspXXDlJP_25hyperlight_component_util2wfNtB4_17ValueTypePosition15not_anon_export
FNDA:165,_RNvXNtCs6kXspXXDlJP_25hyperlight_component_util2wfNtB2_17ValueTypePositionINtNtCs649FzoMgw5V_4core7convert4FromNtB2_19DefinedTypePositionE4from
FNF:46
FNH:39
DA:41,165
DA:42,165
DA:43,165
DA:44,165
DA:45,165
DA:46,165
DA:49,80
DA:50,80
DA:51,80
DA:52,80
DA:53,80
DA:54,80
DA:55,1422
DA:56,1422
DA:57,1422
DA:58,1422
DA:59,1422
DA:60,1422
DA:80,12
DA:81,12
DA:82,12
DA:83,12
DA:84,12
DA:85,12
DA:86,0
DA:87,0
DA:88,0
DA:89,0
DA:90,0
DA:91,0
DA:92,200
DA:93,200
DA:94,200
DA:95,200
DA:96,200
DA:97,200
DA:98,1743
DA:99,1743
DA:100,1743
DA:101,1743
DA:102,1743
DA:103,1743
DA:140,275
DA:141,275
DA:142,275
DA:143,275
DA:144,275
DA:145,275
DA:146,275
DA:147,0
DA:149,275
DA:151,275
DA:158,49
DA:159,49
DA:160,49
DA:161,49
DA:162,49
DA:163,49
DA:164,98
DA:165,49
DA:166,49
DA:167,98
DA:168,49
DA:169,49
DA:170,49
DA:171,49
DA:172,49
DA:173,49
DA:174,49
DA:175,49
DA:176,49
DA:177,49
DA:178,147
DA:179,49
DA:180,49
DA:181,147
DA:182,49
DA:183,49
DA:184,196
DA:185,147
DA:186,0
DA:187,0
DA:188,0
DA:189,0
DA:190,0
DA:191,147
DA:193,49
DA:194,49
DA:195,1422
DA:196,1422
DA:197,0
DA:199,1422
DA:201,1422
DA:202,1422
DA:203,25
DA:204,25
DA:205,25
DA:206,25
DA:207,25
DA:208,1422
DA:209,21
DA:210,128
DA:211,249
DA:212,64
DA:213,91
DA:214,199
DA:215,48
DA:216,224
DA:217,49
DA:218,49
DA:219,98
DA:220,98
DA:221,1715
DA:222,98
DA:223,98
DA:224,49
DA:225,49
DA:226,147
DA:227,49
DA:228,49
DA:229,16
DA:230,16
DA:231,16
DA:232,32
DA:233,16
DA:234,16
DA:235,16
DA:236,20
DA:237,5
DA:238,5
DA:239,5
DA:241,0
DA:244,80
DA:245,80
DA:246,80
DA:247,80
DA:248,80
DA:250,1422
DA:251,179
DA:252,179
DA:253,179
DA:254,179
DA:255,179
DA:256,179
DA:257,179
DA:258,321
DA:259,321
DA:260,321
DA:261,321
DA:262,321
DA:263,321
DA:264,321
DA:265,321
DA:266,321
DA:267,321
DA:268,321
DA:269,321
DA:270,326
DA:271,321
DA:272,303
DA:273,18
DA:275,321
DA:276,150
DA:277,150
DA:278,150
DA:279,150
DA:280,150
DA:281,150
DA:282,30
DA:283,120
DA:285,150
DA:286,50
DA:287,50
DA:288,50
DA:289,50
DA:290,50
DA:291,50
DA:292,5
DA:293,45
DA:295,50
DA:297,70
DA:298,70
DA:299,70
DA:300,70
DA:301,70
DA:302,70
DA:303,70
DA:304,0
DA:305,0
DA:306,0
DA:309,0
DA:310,0
DA:314,70
DA:315,210
DA:316,210
DA:317,210
DA:318,210
DA:319,210
DA:320,210
DA:321,45
DA:322,165
DA:323,0
DA:324,0
DA:325,0
DA:327,210
DA:328,378
DA:329,378
DA:330,378
DA:331,378
DA:332,378
DA:333,378
DA:334,0
DA:335,321
DA:336,45
DA:337,11
DA:338,1
DA:340,378
DA:341,378
DA:342,378
DA:343,378
DA:344,378
DA:345,378
DA:346,378
DA:347,378
DA:348,24
DA:349,24
DA:350,24
DA:351,24
DA:352,24
DA:353,24
DA:354,24
DA:355,374
DA:356,24
DA:357,24
DA:358,24
DA:359,24
DA:360,374
DA:361,24
DA:362,13
DA:363,13
DA:364,13
DA:365,13
DA:366,13
DA:367,13
DA:368,13
DA:369,13
DA:370,13
DA:371,38
DA:372,13
DA:373,13
DA:374,13
DA:375,6
DA:376,6
DA:377,6
DA:378,6
DA:379,6
DA:380,6
DA:381,6
DA:382,6
DA:383,6
DA:384,12
DA:385,6
DA:386,6
DA:387,6
DA:388,6
DA:389,6
DA:390,6
DA:391,6
DA:392,6
DA:393,6
DA:394,6
DA:395,6
DA:396,6
BRF:0
BRH:0
LF:297
LH:268
end_of_record
SF:/home/runner/work/hyperlight/hyperlight/src/hyperlight_host/src/error.rs
FN:295,_RNvXININtCsbhnjpcZuJYb_15hyperlight_host5errors0_0pENtB5_15HyperlightErrorINtNtCs649FzoMgw5V_4core7convert4FromINtNtNtCsiHPLOJXd9bG_3std4sync6poison11PoisonErrorINtNtB1O_5mutex10MutexGuardpEEE4fromB7_
FN:280,_RNvXNtCsbhnjpcZuJYb_15hyperlight_host5errorNtB2_15HyperlightErrorINtNtCs649FzoMgw5V_4core7convert4FromNtB14_10InfallibleE4from
FN:286,_RNvXs_NtCsbhnjpcZuJYb_15hyperlight_host5errorNtB4_15HyperlightErrorINtNtCs649FzoMgw5V_4core7convert4FromReE4from
FN:295,_RNvXININtCs9Wvk7SR8Ovp_15hyperlight_host5errors0_0pENtB5_15HyperlightErrorINtNtCs649FzoMgw5V_4core7convert4FromINtNtNtCsiHPLOJXd9bG_3std4sync6poison11PoisonErrorINtNtB1O_5mutex10MutexGuardpEEE4fromB7_
FN:280,_RNvXNtCs9Wvk7SR8Ovp_15hyperlight_host5errorNtB2_15HyperlightErrorINtNtCs649FzoMgw5V_4core7convert4FromNtB14_10InfallibleE4from
FN:286,_RNvXs_NtCs9Wvk7SR8Ovp_15hyperlight_host5errorNtB4_15HyperlightErrorINtNtCs649FzoMgw5V_4core7convert4FromReE4from
FNDA:0,_RNvXININtCsbhnjpcZuJYb_15hyperlight_host5errors0_0pENtB5_15HyperlightErrorINtNtCs649FzoMgw5V_4core7convert4FromINtNtNtCsiHPLOJXd9bG_3std4sync6poison11PoisonErrorINtNtB1O_5mutex10MutexGuardpEEE4fromB7_
FNDA:0,_RNvXNtCsbhnjpcZuJYb_15hyperlight_host5errorNtB2_15HyperlightErrorINtNtCs649FzoMgw5V_4core7convert4FromNtB14_10InfallibleE4from
FNDA:0,_RNvXs_NtCsbhnjpcZuJYb_15hyperlight_host5errorNtB4_15HyperlightErrorINtNtCs649FzoMgw5V_4core7convert4FromReE4from
FNDA:0,_RNvXININtCs9Wvk7SR8Ovp_15hyperlight_host5errors0_0pENtB5_15HyperlightErrorINtNtCs649FzoMgw5V_4core7convert4FromINtNtNtCsiHPLOJXd9bG_3std4sync6poison11PoisonErrorINtNtB1O_5mutex10MutexGuardpEEE4fromB7_
FNDA:0,_RNvXNtCs9Wvk7SR8Ovp_15hyperlight_host5errorNtB2_15HyperlightErrorINtNtCs649FzoMgw5V_4core7convert4FromNtB14_10InfallibleE4from
FNDA:0,_RNvXs_NtCs9Wvk7SR8Ovp_15hyperlight_host5errorNtB4_15HyperlightErrorINtNtCs649FzoMgw5V_4core7convert4FromReE4from
FNF:3
FNH:0
DA:280,0
DA:281,0
DA:282,0
DA:286,0
DA:287,0
DA:288,0
DA:295,0
DA:296,0
DA:297,0
DA:298,0
DA:300,0
DA:301,0
BRF:0
BRH:0
LF:12
LH:0
end_of_record
SF:/home/runner/work/hyperlight/hyperlight/src/hyperlight_host/src/func/guest_err.rs
FN:27,_RNvNtNtCsbhnjpcZuJYb_15hyperlight_host4func9guest_err21check_for_guest_error
FN:27,_RNvNtNtCs9Wvk7SR8Ovp_15hyperlight_host4func9guest_err21check_for_guest_error
FNDA:0,_RNvNtNtCsbhnjpcZuJYb_15hyperlight_host4func9guest_err21check_for_guest_error
FNDA:0,_RNvNtNtCs9Wvk7SR8Ovp_15hyperlight_host4func9guest_err21check_for_guest_error
FNF:1
FNH:0
DA:27,0
DA:28,0
DA:29,0
DA:30,0
DA:33,0
DA:34,0
DA:35,0
DA:36,0
DA:37,0
DA:38,0
DA:39,0
DA:40,0
DA:42,0
DA:45,0
DA:48,0
BRF:0
BRH:0
LF:15
LH:0
end_of_record
SF:/home/runner/work/hyperlight/hyperlight/src/hyperlight_host/src/func/host_functions.rs
FN:194,_RINvNtNtCsbhnjpcZuJYb_15hyperlight_host4func14host_functions22register_host_functionTNtNtCs7h7qHWfF5BF_5alloc6string6StringElNCNvNtNtNtB6_7sandbox13uninitialized5testss_15test_host_print0EB6_
FN:194,_RINvNtNtCsbhnjpcZuJYb_15hyperlight_host4func14host_functions22register_host_functionTNtNtCs7h7qHWfF5BF_5alloc6string6StringElNCNvNtNtNtB6_7sandbox13uninitialized5testss_15test_host_prints1_0EB6_
FN:194,_RINvNtNtCsbhnjpcZuJYb_15hyperlight_host4func14host_functions22register_host_functionTNtNtCs7h7qHWfF5BF_5alloc6string6StringElNvNtNtB6_7sandbox10host_funcs19default_writer_funcEB6_
FN:194,_RINvNtNtCsbhnjpcZuJYb_15hyperlight_host4func14host_functions22register_host_functionTNtNtCs7h7qHWfF5BF_5alloc6string6StringElNvNvNtNtNtB6_7sandbox13uninitialized5testss_15test_host_print9fn_writerEB6_
FN:194,_RINvNtNtCsbhnjpcZuJYb_15hyperlight_host4func14host_functions22register_host_functionTNtNtCs7h7qHWfF5BF_5alloc6string6StringEuNCNvNtNtNtB6_7sandbox13uninitialized5testss_19test_host_functionss3_0EB6_
FN:194,_RINvNtNtCsbhnjpcZuJYb_15hyperlight_host4func14host_functions22register_host_functionTlElNCNvNtNtNtB6_7sandbox13uninitialized5testss_19test_host_functionss_0EB6_
FN:194,_RINvNtNtCsbhnjpcZuJYb_15hyperlight_host4func14host_functions22register_host_functionTllElNCNvNtNtNtB6_7sandbox13uninitialized5testss_19test_host_functionss1_0EB6_
FN:194,_RINvNtNtCsbhnjpcZuJYb_15hyperlight_host4func14host_functions22register_host_functionuxNvNvNtNtNtB6_7sandbox21initialized_multi_use5testss_30violate_seccomp_filters_openat19make_openat_syscallEB6_
FN:194,_RINvNtNtCsbhnjpcZuJYb_15hyperlight_host4func14host_functions22register_host_functionuyNvNvNtNtNtB6_7sandbox21initialized_multi_use5testss_28test_violate_seccomp_filters20make_get_pid_syscallEB6_
FN:212,_RNCINvNtNtCsbhnjpcZuJYb_15hyperlight_host4func14host_functions22register_host_functionTNtNtCs7h7qHWfF5BF_5alloc6string6StringElNCNvNtNtNtB8_7sandbox13uninitialized5testss_15test_host_print0E0B8_
FN:212,_RNCINvNtNtCsbhnjpcZuJYb_15hyperlight_host4func14host_functions22register_host_functionTNtNtCs7h7qHWfF5BF_5alloc6string6StringElNCNvNtNtNtB8_7sandbox13uninitialized5testss_15test_host_prints1_0E0B8_
FN:212,_RNCINvNtNtCsbhnjpcZuJYb_15hyperlight_host4func14host_functions22register_host_functionTNtNtCs7h7qHWfF5BF_5alloc6string6StringElNvNtNtB8_7sandbox10host_funcs19default_writer_funcE0B8_
FN:212,_RNCINvNtNtCsbhnjpcZuJYb_15hyperlight_host4func14host_functions22register_host_functionTNtNtCs7h7qHWfF5BF_5alloc6string6StringElNvNvNtNtNtB8_7sandbox13uninitialized5testss_15test_host_print9fn_writerE0B8_
FN:212,_RNCINvNtNtCsbhnjpcZuJYb_15hyperlight_host4func14host_functions22register_host_functionTNtNtCs7h7qHWfF5BF_5alloc6string6StringEuNCNvNtNtNtB8_7sandbox13uninitialized5testss_19test_host_functionss3_0E0B8_
FN:212,_RNCINvNtNtCsbhnjpcZuJYb_15hyperlight_host4func14host_functions22register_host_functionTlElNCNvNtNtNtB8_7sandbox13uninitialized5testss_19test_host_functionss_0E0B8_
FN:212,_RNCINvNtNtCsbhnjpcZuJYb_15hyperlight_host4func14host_functions22register_host_functionTllElNCNvNtNtNtB8_7sandbox13uninitialized5testss_19test_host_functionss1_0E0B8_
FN:212,_RNCINvNtNtCsbhnjpcZuJYb_15hyperlight_host4func14host_functions22register_host_functionuxNvNvNtNtNtB8_7sandbox21initialized_multi_use5testss_30violate_seccomp_filters_openat19make_openat_syscallE0B8_
FN:212,_RNCINvNtNtCsbhnjpcZuJYb_15hyperlight_host4func14host_functions22register_host_functionuyNvNvNtNtNtB8_7sandbox21initialized_multi_use5testss_28test_violate_seccomp_filters20make_get_pid_syscallE0B8_
FN:183,_RNCNCNvXs3_NtNtCsbhnjpcZuJYb_15hyperlight_host4func14host_functionsINtB9_12HostFunctionxuEINtNtCs649FzoMgw5V_4core7convert4FromNvNvNtNtNtBd_7sandbox21initialized_multi_use5testss_30violate_seccomp_filters_openat19make_openat_syscallE4froms_00Bd_
FN:183,_RNCNCNvXs3_NtNtCsbhnjpcZuJYb_15hyperlight_host4func14host_functionsINtB9_12HostFunctionyuEINtNtCs649FzoMgw5V_4core7convert4FromNvNvNtNtNtBd_7sandbox21initialized_multi_use5testss_28test_violate_seccomp_filters20make_get_pid_syscallE4froms_00Bd_
FN:183,_RNCNCNvXs4_NtNtCsbhnjpcZuJYb_15hyperlight_host4func14host_functionsINtB9_12HostFunctionlTNtNtCs7h7qHWfF5BF_5alloc6string6StringEEINtNtCs649FzoMgw5V_4core7convert4FromNCNvNtNtNtBd_7sandbox13uninitialized5testss_15test_host_print0E4froms_00Bd_
FN:183,_RNCNCNvXs4_NtNtCsbhnjpcZuJYb_15hyperlight_host4func14host_functionsINtB9_12HostFunctionlTNtNtCs7h7qHWfF5BF_5alloc6string6StringEEINtNtCs649FzoMgw5V_4core7convert4FromNCNvNtNtNtBd_7sandbox13uninitialized5testss_15test_host_prints1_0E4froms_00Bd_
FN:183,_RNCNCNvXs4_NtNtCsbhnjpcZuJYb_15hyperlight_host4func14host_functionsINtB9_12HostFunctionlTNtNtCs7h7qHWfF5BF_5alloc6string6StringEEINtNtCs649FzoMgw5V_4core7convert4FromNvNtNtBd_7sandbox10host_funcs19default_writer_funcE4froms_00Bd_
FN:183,_RNCNCNvXs4_NtNtCsbhnjpcZuJYb_15hyperlight_host4func14host_functionsINtB9_12HostFunctionlTNtNtCs7h7qHWfF5BF_5alloc6string6StringEEINtNtCs649FzoMgw5V_4core7convert4FromNvNvNtNtNtBd_7sandbox13uninitialized5testss_15test_host_print9fn_writerE4froms_00Bd_
FN:183,_RNCNCNvXs4_NtNtCsbhnjpcZuJYb_15hyperlight_host4func14host_functionsINtB9_12HostFunctionlTlEEINtNtCs649FzoMgw5V_4core7convert4FromNCNvNtNtNtBd_7sandbox13uninitialized5testss_19test_host_functionss_0E4froms_00Bd_
FN:183,_RNCNCNvXs4_NtNtCsbhnjpcZuJYb_15hyperlight_host4func14host_functionsINtB9_12HostFunctionuTNtNtCs7h7qHWfF5BF_5alloc6string6StringEEINtNtCs649FzoMgw5V_4core7convert4FromNCNvNtNtNtBd_7sandbox13uninitialized5testss_19test_host_functionss3_0E4froms_00Bd_
FN:183,_RNCNCNvXs5_NtNtCsbhnjpcZuJYb_15hyperlight_host4func14host_functionsINtB9_12HostFunctionlTllEEINtNtCs649FzoMgw5V_4core7convert4FromNCNvNtNtNtBd_7sandbox13uninitialized5testss_19test_host_functionss1_0E4froms_00Bd_
FN:152,_RNCNvXs1_NtNtCsbhnjpcZuJYb_15hyperlight_host4func14host_functionsNtB7_22TypeErasedHostFunctionINtNtCs649FzoMgw5V_4core7convert4FromINtB7_12HostFunctionlTNtNtCs7h7qHWfF5BF_5alloc6string6StringEEE4from0Bb_
FN:152,_RNCNvXs1_NtNtCsbhnjpcZuJYb_15hyperlight_host4func14host_functionsNtB7_22TypeErasedHostFunctionINtNtCs649FzoMgw5V_4core7convert4FromINtB7_12HostFunctionlTlEEE4from0Bb_
FN:152,_RNCNvXs1_NtNtCsbhnjpcZuJYb_15hyperlight_host4func14host_functionsNtB7_22TypeErasedHostFunctionINtNtCs649FzoMgw5V_4core7convert4FromINtB7_12HostFunctionlTllEEE4from0Bb_
FN:152,_RNCNvXs1_NtNtCsbhnjpcZuJYb_15hyperlight_host4func14host_functionsNtB7_22TypeErasedHostFunctionINtNtCs649FzoMgw5V_4core7convert4FromINtB7_12HostFunctionuTNtNtCs7h7qHWfF5BF_5alloc6string6StringEEE4from0Bb_
FN:152,_RNCNvXs1_NtNtCsbhnjpcZuJYb_15hyperlight_host4func14host_functionsNtB7_22TypeErasedHostFunctionINtNtCs649FzoMgw5V_4core7convert4FromINtB7_12HostFunctionxuEE4from0Bb_
FN:152,_RNCNvXs1_NtNtCsbhnjpcZuJYb_15hyperlight_host4func14host_functionsNtB7_22TypeErasedHostFunctionINtNtCs649FzoMgw5V_4core7convert4FromINtB7_12HostFunctionyuEE4from0Bb_
FN:176,_RNCNvXs3_NtNtCsbhnjpcZuJYb_15hyperlight_host4func14host_functionsINtB7_12HostFunctionxuEINtNtCs649FzoMgw5V_4core7convert4FromNvNvNtNtNtBb_7sandbox21initialized_multi_use5testss_30violate_seccomp_filters_openat19make_openat_syscallE4from0Bb_
FN:181,_RNCNvXs3_NtNtCsbhnjpcZuJYb_15hyperlight_host4func14host_functionsINtB7_12HostFunctionxuEINtNtCs649FzoMgw5V_4core7convert4FromNvNvNtNtNtBb_7sandbox21initialized_multi_use5testss_30violate_seccomp_filters_openat19make_openat_syscallE4froms_0Bb_
FN:176,_RNCNvXs3_NtNtCsbhnjpcZuJYb_15hyperlight_host4func14host_functionsINtB7_12HostFunctionyuEINtNtCs649FzoMgw5V_4core7convert4FromNvNvNtNtNtBb_7sandbox21initialized_multi_use5testss_28test_violate_seccomp_filters20make_get_pid_syscallE4from0Bb_
FN:181,_RNCNvXs3_NtNtCsbhnjpcZuJYb_15hyperlight_host4func14host_functionsINtB7_12HostFunctionyuEINtNtCs649FzoMgw5V_4core7convert4FromNvNvNtNtNtBb_7sandbox21initialized_multi_use5testss_28test_violate_seccomp_filters20make_get_pid_syscallE4froms_0Bb_
FN:176,_RNCNvXs4_NtNtCsbhnjpcZuJYb_15hyperlight_host4func14host_functionsINtB7_12HostFunctionlTNtNtCs7h7qHWfF5BF_5alloc6string6StringEEINtNtCs649FzoMgw5V_4core7convert4FromNCNvNtNtNtBb_7sandbox13uninitialized5testss_15test_host_print0E4from0Bb_
FN:181,_RNCNvXs4_NtNtCsbhnjpcZuJYb_15hyperlight_host4func14host_functionsINtB7_12HostFunctionlTNtNtCs7h7qHWfF5BF_5alloc6string6StringEEINtNtCs649FzoMgw5V_4core7convert4FromNCNvNtNtNtBb_7sandbox13uninitialized5testss_15test_host_print0E4froms_0Bb_
FN:176,_RNCNvXs4_NtNtCsbhnjpcZuJYb_15hyperlight_host4func14host_functionsINtB7_12HostFunctionlTNtNtCs7h7qHWfF5BF_5alloc6string6StringEEINtNtCs649FzoMgw5V_4core7convert4FromNCNvNtNtNtBb_7sandbox13uninitialized5testss_15test_host_prints1_0E4from0Bb_
FN:181,_RNCNvXs4_NtNtCsbhnjpcZuJYb_15hyperlight_host4func14host_functionsINtB7_12HostFunctionlTNtNtCs7h7qHWfF5BF_5alloc6string6StringEEINtNtCs649FzoMgw5V_4core7convert4FromNCNvNtNtNtBb_7sandbox13uninitialized5testss_15test_host_prints1_0E4froms_0Bb_
FN:176,_RNCNvXs4_NtNtCsbhnjpcZuJYb_15hyperlight_host4func14host_functionsINtB7_12HostFunctionlTNtNtCs7h7qHWfF5BF_5alloc6string6StringEEINtNtCs649FzoMgw5V_4core7convert4FromNvNtNtBb_7sandbox10host_funcs19default_writer_funcE4from0Bb_
FN:181,_RNCNvXs4_NtNtCsbhnjpcZuJYb_15hyperlight_host4func14host_functionsINtB7_12HostFunctionlTNtNtCs7h7qHWfF5BF_5alloc6string6StringEEINtNtCs649FzoMgw5V_4core7convert4FromNvNtNtBb_7sandbox10host_funcs19default_writer_funcE4froms_0Bb_
FN:176,_RNCNvXs4_NtNtCsbhnjpcZuJYb_15hyperlight_host4func14host_functionsINtB7_12HostFunctionlTNtNtCs7h7qHWfF5BF_5alloc6string6StringEEINtNtCs649FzoMgw5V_4core7convert4FromNvNvNtNtNtBb_7sandbox13uninitialized5testss_15test_host_print9fn_writerE4from0Bb_
FN:181,_RNCNvXs4_NtNtCsbhnjpcZuJYb_15hyperlight_host4func14host_functionsINtB7_12HostFunctionlTNtNtCs7h7qHWfF5BF_5alloc6string6StringEEINtNtCs649FzoMgw5V_4core7convert4FromNvNvNtNtNtBb_7sandbox13uninitialized5testss_15test_host_print9fn_writerE4froms_0Bb_
FN:176,_RNCNvXs4_NtNtCsbhnjpcZuJYb_15hyperlight_host4func14host_functionsINtB7_12HostFunctionlTlEEINtNtCs649FzoMgw5V_4core7convert4FromNCNvNtNtNtBb_7sandbox13uninitialized5testss_19test_host_functionss_0E4from0Bb_
FN:181,_RNCNvXs4_NtNtCsbhnjpcZuJYb_15hyperlight_host4func14host_functionsINtB7_12HostFunctionlTlEEINtNtCs649FzoMgw5V_4core7convert4FromNCNvNtNtNtBb_7sandbox13uninitialized5testss_19test_host_functionss_0E4froms_0Bb_
FN:176,_RNCNvXs4_NtNtCsbhnjpcZuJYb_15hyperlight_host4func14host_functionsINtB7_12HostFunctionuTNtNtCs7h7qHWfF5BF_5alloc6string6StringEEINtNtCs649FzoMgw5V_4core7convert4FromNCNvNtNtNtBb_7sandbox13uninitialized5testss_19test_host_functionss3_0E4from0Bb_
FN:181,_RNCNvXs4_NtNtCsbhnjpcZuJYb_15hyperlight_host4func14host_functionsINtB7_12HostFunctionuTNtNtCs7h7qHWfF5BF_5alloc6string6StringEEINtNtCs649FzoMgw5V_4core7convert4FromNCNvNtNtNtBb_7sandbox13uninitialized5testss_19test_host_functionss3_0E4froms_0Bb_
FN:176,_RNCNvXs5_NtNtCsbhnjpcZuJYb_15hyperlight_host4func14host_functionsINtB7_12HostFunctionlTllEEINtNtCs649FzoMgw5V_4core7convert4FromNCNvNtNtNtBb_7sandbox13uninitialized5testss_19test_host_functionss1_0E4from0Bb_
FN:181,_RNCNvXs5_NtNtCsbhnjpcZuJYb_15hyperlight_host4func14host_functionsINtB7_12HostFunctionlTllEEINtNtCs649FzoMgw5V_4core7convert4FromNCNvNtNtNtBb_7sandbox13uninitialized5testss_19test_host_functionss1_0E4froms_0Bb_
FN:140,_RNvMs0_NtNtCsbhnjpcZuJYb_15hyperlight_host4func14host_functionsNtB5_22TypeErasedHostFunction4call
FN:134,_RNvMs_NtNtCsbhnjpcZuJYb_15hyperlight_host4func14host_functionsINtB4_12HostFunctionlTNtNtCs7h7qHWfF5BF_5alloc6string6StringEE4callB8_
FN:134,_RNvMs_NtNtCsbhnjpcZuJYb_15hyperlight_host4func14host_functionsINtB4_12HostFunctionlTlEE4callB8_
FN:134,_RNvMs_NtNtCsbhnjpcZuJYb_15hyperlight_host4func14host_functionsINtB4_12HostFunctionlTllEE4callB8_
FN:134,_RNvMs_NtNtCsbhnjpcZuJYb_15hyperlight_host4func14host_functionsINtB4_12HostFunctionuTNtNtCs7h7qHWfF5BF_5alloc6string6StringEE4callB8_
FN:134,_RNvMs_NtNtCsbhnjpcZuJYb_15hyperlight_host4func14host_functionsINtB4_12HostFunctionxuE4callB8_
FN:134,_RNvMs_NtNtCsbhnjpcZuJYb_15hyperlight_host4func14host_functionsINtB4_12HostFunctionyuE4callB8_
FN:150,_RNvXs1_NtNtCsbhnjpcZuJYb_15hyperlight_host4func14host_functionsNtB5_22TypeErasedHostFunctionINtNtCs649FzoMgw5V_4core7convert4FromINtB5_12HostFunctionlTNtNtCs7h7qHWfF5BF_5alloc6string6StringEEE4fromB9_
FN:150,_RNvXs1_NtNtCsbhnjpcZuJYb_15hyperlight_host4func14host_functionsNtB5_22TypeErasedHostFunctionINtNtCs649FzoMgw5V_4core7convert4FromINtB5_12HostFunctionlTlEEE4fromB9_
FN:150,_RNvXs1_NtNtCsbhnjpcZuJYb_15hyperlight_host4func14host_functionsNtB5_22TypeErasedHostFunctionINtNtCs649FzoMgw5V_4core7convert4FromINtB5_12HostFunctionlTllEEE4fromB9_
FN:150,_RNvXs1_NtNtCsbhnjpcZuJYb_15hyperlight_host4func14host_functionsNtB5_22TypeErasedHostFunctionINtNtCs649FzoMgw5V_4core7convert4FromINtB5_12HostFunctionuTNtNtCs7h7qHWfF5BF_5alloc6string6StringEEE4fromB9_
FN:150,_RNvXs1_NtNtCsbhnjpcZuJYb_15hyperlight_host4func14host_functionsNtB5_22TypeErasedHostFunctionINtNtCs649FzoMgw5V_4core7convert4FromINtB5_12HostFunctionxuEE4fromB9_
FN:150,_RNvXs1_NtNtCsbhnjpcZuJYb_15hyperlight_host4func14host_functionsNtB5_22TypeErasedHostFunctionINtNtCs649FzoMgw5V_4core7convert4FromINtB5_12HostFunctionyuEE4fromB9_
FN:175,_RNvXs3_NtNtCsbhnjpcZuJYb_15hyperlight_host4func14host_functionsINtB5_12HostFunctionxuEINtNtCs649FzoMgw5V_4core7convert4FromNvNvNtNtNtB9_7sandbox21initialized_multi_use5testss_30violate_seccomp_filters_openat19make_openat_syscallE4fromB9_
FN:175,_RNvXs3_NtNtCsbhnjpcZuJYb_15hyperlight_host4func14host_functionsINtB5_12HostFunctionyuEINtNtCs649FzoMgw5V_4core7convert4FromNvNvNtNtNtB9_7sandbox21initialized_multi_use5testss_28test_violate_seccomp_filters20make_get_pid_syscallE4fromB9_
FN:175,_RNvXs4_NtNtCsbhnjpcZuJYb_15hyperlight_host4func14host_functionsINtB5_12HostFunctionlTNtNtCs7h7qHWfF5BF_5alloc6string6StringEEINtNtCs649FzoMgw5V_4core7convert4FromNCNvNtNtNtB9_7sandbox13uninitialized5testss_15test_host_print0E4fromB9_
FN:175,_RNvXs4_NtNtCsbhnjpcZuJYb_15hyperlight_host4func14host_functionsINtB5_12HostFunctionlTNtNtCs7h7qHWfF5BF_5alloc6string6StringEEINtNtCs649FzoMgw5V_4core7convert4FromNCNvNtNtNtB9_7sandbox13uninitialized5testss_15test_host_prints1_0E4fromB9_
FN:175,_RNvXs4_NtNtCsbhnjpcZuJYb_15hyperlight_host4func14host_functionsINtB5_12HostFunctionlTNtNtCs7h7qHWfF5BF_5alloc6string6StringEEINtNtCs649FzoMgw5V_4core7convert4FromNvNtNtB9_7sandbox10host_funcs19default_writer_funcE4fromB9_
FN:175,_RNvXs4_NtNtCsbhnjpcZuJYb_15hyperlight_host4func14host_functionsINtB5_12HostFunctionlTNtNtCs7h7qHWfF5BF_5alloc6string6StringEEINtNtCs649FzoMgw5V_4core7convert4FromNvNvNtNtNtB9_7sandbox13uninitialized5testss_15test_host_print9fn_writerE4fromB9_
FN:175,_RNvXs4_NtNtCsbhnjpcZuJYb_15hyperlight_host4func14host_functionsINtB5_12HostFunctionlTlEEINtNtCs649FzoMgw5V_4core7convert4FromNCNvNtNtNtB9_7sandbox13uninitialized5testss_19test_host_functionss_0E4fromB9_
FN:175,_RNvXs4_NtNtCsbhnjpcZuJYb_15hyperlight_host4func14host_functionsINtB5_12HostFunctionuTNtNtCs7h7qHWfF5BF_5alloc6string6StringEEINtNtCs649FzoMgw5V_4core7convert4FromNCNvNtNtNtB9_7sandbox13uninitialized5testss_19test_host_functionss3_0E4fromB9_
FN:175,_RNvXs5_NtNtCsbhnjpcZuJYb_15hyperlight_host4func14host_functionsINtB5_12HostFunctionlTllEEINtNtCs649FzoMgw5V_4core7convert4FromNCNvNtNtNtB9_7sandbox13uninitialized5testss_19test_host_functionss1_0E4fromB9_
FN:47,_RINvXNtNtCsbhnjpcZuJYb_15hyperlight_host4func14host_functionsNtNtNtB7_7sandbox13uninitialized20UninitializedSandboxNtB3_12Registerable22register_host_functionpppEB7_
FN:67,_RINvXNtNtCsbhnjpcZuJYb_15hyperlight_host4func14host_functionsNtNtNtB7_7sandbox13uninitialized20UninitializedSandboxNtB3_12Registerable36register_host_function_with_syscallspppEB7_
FN:55,_RNCINvXNtNtCsbhnjpcZuJYb_15hyperlight_host4func14host_functionsNtNtNtB9_7sandbox13uninitialized20UninitializedSandboxNtB5_12Registerable22register_host_functionpppE0B9_
FN:76,_RNCINvXNtNtCsbhnjpcZuJYb_15hyperlight_host4func14host_functionsNtNtNtB9_7sandbox13uninitialized20UninitializedSandboxNtB5_12Registerable36register_host_function_with_syscallspppE0B9_
FN:183,_RNCNCNvXININtNtCsbhnjpcZuJYb_15hyperlight_host4func14host_functionss6_0pppppEINtB9_12HostFunctionNtYpNtNtBb_8ret_type10ResultType10ReturnTypeTpppEEINtNtCs649FzoMgw5V_4core7convert4FrompE4froms_00Bd_
FN:183,_RNCNCNvXININtNtCsbhnjpcZuJYb_15hyperlight_host4func14host_functionss7_0ppppppEINtB9_12HostFunctionNtYpNtNtBb_8ret_type10ResultType10ReturnTypeTppppEEINtNtCs649FzoMgw5V_4core7convert4FrompE4froms_00Bd_
FN:183,_RNCNCNvXININtNtCsbhnjpcZuJYb_15hyperlight_host4func14host_functionss8_0pppppppEINtB9_12HostFunctionNtYpNtNtBb_8ret_type10ResultType10ReturnTypeTpppppEEINtNtCs649FzoMgw5V_4core7convert4FrompE4froms_00Bd_
FN:183,_RNCNCNvXININtNtCsbhnjpcZuJYb_15hyperlight_host4func14host_functionss9_0ppppppppEINtB9_12HostFunctionNtYpNtNtBb_8ret_type10ResultType10ReturnTypeTppppppEEINtNtCs649FzoMgw5V_4core7convert4FrompE4froms_00Bd_
FN:183,_RNCNCNvXININtNtCsbhnjpcZuJYb_15hyperlight_host4func14host_functionssa_0pppppppppEINtB9_12HostFunctionNtYpNtNtBb_8ret_type10ResultType10ReturnTypeTpppppppEEINtNtCs649FzoMgw5V_4core7convert4FrompE4froms_00Bd_
FN:183,_RNCNCNvXININtNtCsbhnjpcZuJYb_15hyperlight_host4func14host_functionssb_0ppppppppppEINtB9_12HostFunctionNtYpNtNtBb_8ret_type10ResultType10ReturnTypeTppppppppEEINtNtCs649FzoMgw5V_4core7convert4FrompE4froms_00Bd_
FN:183,_RNCNCNvXININtNtCsbhnjpcZuJYb_15hyperlight_host4func14host_functionssc_0pppppppppppEINtB9_12HostFunctionNtYpNtNtBb_8ret_type10ResultType10ReturnTypeTpppppppppEEINtNtCs649FzoMgw5V_4core7convert4FrompE4froms_00Bd_
FN:183,_RNCNCNvXININtNtCsbhnjpcZuJYb_15hyperlight_host4func14host_functionssd_0ppppppppppppEINtB9_12HostFunctionNtYpNtNtBb_8ret_type10ResultType10ReturnTypeTppppppppppEEINtNtCs649FzoMgw5V_4core7convert4FrompE4froms_00Bd_
FN:183,_RNCNCNvXININtNtCsbhnjpcZuJYb_15hyperlight_host4func14host_functionsse_0pppppppppppppEINtB9_12HostFunctionNtYpNtNtBb_8ret_type10ResultType10ReturnTypeTpppppppppppEEINtNtCs649FzoMgw5V_4core7convert4FrompE4froms_00Bd_
FN:183,_RNCNCNvXININtNtCsbhnjpcZuJYb_15hyperlight_host4func14host_functionssf_0ppppppppppppppEINtB9_12HostFunctionNtYpNtNtBb_8ret_type10ResultType10ReturnTypeTppppppppppppEEINtNtCs649FzoMgw5V_4core7convert4FrompE4froms_00Bd_
FN:183,_RNCNCNvXININtNtCsbhnjpcZuJYb_15hyperlight_host4func14host_functionssg_0pppppppppppppppEINtB9_12HostFunctionNtYpNtNtBb_8ret_type10ResultType10ReturnTypeTpppppppppppppEEINtNtCs649FzoMgw5V_4core7convert4FrompE4froms_00Bd_
FN:183,_RNCNCNvXININtNtCsbhnjpcZuJYb_15hyperlight_host4func14host_functionssh_0ppppppppppppppppEINtB9_12HostFunctionNtYpNtNtBb_8ret_type10ResultType10ReturnTypeTppppppppppppppEEINtNtCs649FzoMgw5V_4core7convert4FrompE4froms_00Bd_
FN:183,_RNCNCNvXININtNtCsbhnjpcZuJYb_15hyperlight_host4func14host_functionssi_0pppppppppppppppppEINtB9_12HostFunctionNtYpNtNtBb_8ret_type10ResultType10ReturnTypeTpppppppppppppppEEINtNtCs649FzoMgw5V_4core7convert4FrompE4froms_00Bd_
FN:183,_RNCNCNvXININtNtCsbhnjpcZuJYb_15hyperlight_host4func14host_functionssj_0ppppppppppppppppppEINtB9_12HostFunctionNtYpNtNtBb_8ret_type10ResultType10ReturnTypeTppppppppppppppppEEINtNtCs649FzoMgw5V_4core7convert4FrompE4froms_00Bd_
FN:183,_RNCNCNvXININtNtCsbhnjpcZuJYb_15hyperlight_host4func14host_functionssk_0pppppppppppppppppppEINtB9_12HostFunctionNtYpNtNtBb_8ret_type10ResultType10ReturnTypeTpppppppppppppppppEEINtNtCs649FzoMgw5V_4core7convert4FrompE4froms_00Bd_
FN:183,_RNCNCNvXININtNtCsbhnjpcZuJYb_15hyperlight_host4func14host_functionssl_0ppppppppppppppppppppEINtB9_12HostFunctionNtYpNtNtBb_8ret_type10ResultType10ReturnTypeTppppppppppppppppppEEINtNtCs649FzoMgw5V_4core7convert4FrompE4froms_00Bd_
FN:183,_RNCNCNvXININtNtCsbhnjpcZuJYb_15hyperlight_host4func14host_functionssm_0pppppppppppppppppppppEINtB9_12HostFunctionNtYpNtNtBb_8ret_type10ResultType10ReturnTypeTpppppppppppppppppppEEINtNtCs649FzoMgw5V_4core7convert4FrompE4froms_00Bd_
FN:183,_RNCNCNvXININtNtCsbhnjpcZuJYb_15hyperlight_host4func14host_functionssn_0ppppppppppppppppppppppEINtB9_12HostFunctionNtYpNtNtBb_8ret_type10ResultType10ReturnTypeTppppppppppppppppppppEEINtNtCs649FzoMgw5V_4core7convert4FrompE4froms_00Bd_
FN:183,_RNCNCNvXININtNtCsbhnjpcZuJYb_15hyperlight_host4func14host_functionsso_0pppppppppppppppppppppppEINtB9_12HostFunctionNtYpNtNtBb_8ret_type10ResultType10ReturnTypeTpppppppppppppppppppppEEINtNtCs649FzoMgw5V_4core7convert4FrompE4froms_00Bd_
FN:183,_RNCNCNvXININtNtCsbhnjpcZuJYb_15hyperlight_host4func14host_functionssp_0ppppppppppppppppppppppppEINtB9_12HostFunctionNtYpNtNtBb_8ret_type10ResultType10ReturnTypeTppppppppppppppppppppppEEINtNtCs649FzoMgw5V_4core7convert4FrompE4froms_00Bd_
FN:183,_RNCNCNvXININtNtCsbhnjpcZuJYb_15hyperlight_host4func14host_functionssq_0pppppppppppppppppppppppppEINtB9_12HostFunctionNtYpNtNtBb_8ret_type10ResultType10ReturnTypeTpppppppppppppppppppppppEEINtNtCs649FzoMgw5V_4core7convert4FrompE4froms_00Bd_
FN:183,_RNCNCNvXININtNtCsbhnjpcZuJYb_15hyperlight_host4func14host_functionssr_0ppppppppppppppppppppppppppEINtB9_12HostFunctionNtYpNtNtBb_8ret_type10ResultType10ReturnTypeTppppppppppppppppppppppppEEINtNtCs649FzoMgw5V_4core7convert4FrompE4froms_00Bd_
FN:183,_RNCNCNvXININtNtCsbhnjpcZuJYb_15hyperlight_host4func14host_functionsss_0pppppppppppppppppppppppppppEINtB9_12HostFunctionNtYpNtNtBb_8ret_type10ResultType10ReturnTypeTpppppppppppppppppppppppppEEINtNtCs649FzoMgw5V_4core7convert4FrompE4froms_00Bd_
FN:183,_RNCNCNvXININtNtCsbhnjpcZuJYb_15hyperlight_host4func14host_functionsst_0ppppppppppppppppppppppppppppEINtB9_12HostFunctionNtYpNtNtBb_8ret_type10ResultType10ReturnTypeTppppppppppppppppppppppppppEEINtNtCs649FzoMgw5V_4core7convert4FrompE4froms_00Bd_
FN:183,_RNCNCNvXININtNtCsbhnjpcZuJYb_15hyperlight_host4func14host_functionssu_0pppppppppppppppppppppppppppppEINtB9_12HostFunctionNtYpNtNtBb_8ret_type10ResultType10ReturnTypeTpppppppppppppppppppppppppppEEINtNtCs649FzoMgw5V_4core7convert4FrompE4froms_00Bd_
FN:183,_RNCNCNvXININtNtCsbhnjpcZuJYb_15hyperlight_host4func14host_functionssv_0ppppppppppppppppppppppppppppppEINtB9_12HostFunctionNtYpNtNtBb_8ret_type10ResultType10ReturnTypeTppppppppppppppppppppppppppppEEINtNtCs649FzoMgw5V_4core7convert4FrompE4froms_00Bd_
FN:183,_RNCNCNvXININtNtCsbhnjpcZuJYb_15hyperlight_host4func14host_functionssw_0pppppppppppppppppppppppppppppppEINtB9_12HostFunctionNtYpNtNtBb_8ret_type10ResultType10ReturnTypeTpppppppppppppppppppppppppppppEEINtNtCs649FzoMgw5V_4core7convert4FrompE4froms_00Bd_
FN:183,_RNCNCNvXININtNtCsbhnjpcZuJYb_15hyperlight_host4func14host_functionssx_0ppppppppppppppppppppppppppppppppEINtB9_12HostFunctionNtYpNtNtBb_8ret_type10ResultType10ReturnTypeTppppppppppppppppppppppppppppppEEINtNtCs649FzoMgw5V_4core7convert4FrompE4froms_00Bd_
FN:183,_RNCNCNvXININtNtCsbhnjpcZuJYb_15hyperlight_host4func14host_functionssy_0pppppppppppppppppppppppppppppppppEINtB9_12HostFunctionNtYpNtNtBb_8ret_type10ResultType10ReturnTypeTpppppppppppppppppppppppppppppppEEINtNtCs649FzoMgw5V_4core7convert4FrompE4froms_00Bd_
FN:183,_RNCNCNvXININtNtCsbhnjpcZuJYb_15hyperlight_host4func14host_functionssz_0ppppppppppppppppppppppppppppppppppEINtB9_12HostFunctionNtYpNtNtBb_8ret_type10ResultType10ReturnTypeTppppppppppppppppppppppppppppppppEEINtNtCs649FzoMgw5V_4core7convert4FrompE4froms_00Bd_
FN:176,_RNCNvXININtNtCsbhnjpcZuJYb_15hyperlight_host4func14host_functionss6_0pppppEINtB7_12HostFunctionNtYpNtNtB9_8ret_type10ResultType10ReturnTypeTpppEEINtNtCs649FzoMgw5V_4core7convert4FrompE4from0Bb_
FN:181,_RNCNvXININtNtCsbhnjpcZuJYb_15hyperlight_host4func14host_functionss6_0pppppEINtB7_12HostFunctionNtYpNtNtB9_8ret_type10ResultType10ReturnTypeTpppEEINtNtCs649FzoMgw5V_4core7convert4FrompE4froms_0Bb_
FN:176,_RNCNvXININtNtCsbhnjpcZuJYb_15hyperlight_host4func14host_functionss7_0ppppppEINtB7_12HostFunctionNtYpNtNtB9_8ret_type10ResultType10ReturnTypeTppppEEINtNtCs649FzoMgw5V_4core7convert4FrompE4from0Bb_
FN:181,_RNCNvXININtNtCsbhnjpcZuJYb_15hyperlight_host4func14host_functionss7_0ppppppEINtB7_12HostFunctionNtYpNtNtB9_8ret_type10ResultType10ReturnTypeTppppEEINtNtCs649FzoMgw5V_4core7convert4FrompE4froms_0Bb_
FN:176,_RNCNvXININtNtCsbhnjpcZuJYb_15hyperlight_host4func14host_functionss8_0pppppppEINtB7_12HostFunctionNtYpNtNtB9_8ret_type10ResultType10ReturnTypeTpppppEEINtNtCs649FzoMgw5V_4core7convert4FrompE4from0Bb_
FN:181,_RNCNvXININtNtCsbhnjpcZuJYb_15hyperlight_host4func14host_functionss8_0pppppppEINtB7_12HostFunctionNtYpNtNtB9_8ret_type10ResultType10ReturnTypeTpppppEEINtNtCs649FzoMgw5V_4core7convert4FrompE4froms_0Bb_
FN:176,_RNCNvXININtNtCsbhnjpcZuJYb_15hyperlight_host4func14host_functionss9_0ppppppppEINtB7_12HostFunctionNtYpNtNtB9_8ret_type10ResultType10ReturnTypeTppppppEEINtNtCs649FzoMgw5V_4core7convert4FrompE4from0Bb_
FN:181,_RNCNvXININtNtCsbhnjpcZuJYb_15hyperlight_host4func14host_functionss9_0ppppppppEINtB7_12HostFunctionNtYpNtNtB9_8ret_type10ResultType10ReturnTypeTppppppEEINtNtCs649FzoMgw5V_4core7convert4FrompE4froms_0Bb_
FN:176,_RNCNvXININtNtCsbhnjpcZuJYb_15hyperlight_host4func14host_functionssa_0pppppppppEINtB7_12HostFunctionNtYpNtNtB9_8ret_type10ResultType10ReturnTypeTpppppppEEINtNtCs649FzoMgw5V_4core7convert4FrompE4from0Bb_
FN:181,_RNCNvXININtNtCsbhnjpcZuJYb_15hyperlight_host4func14host_functionssa_0pppppppppEINtB7_12HostFunctionNtYpNtNtB9_8ret_type10ResultType10ReturnTypeTpppppppEEINtNtCs649FzoMgw5V_4core7convert4FrompE4froms_0Bb_
FN:176,_RNCNvXININtNtCsbhnjpcZuJYb_15hyperlight_host4func14host_functionssb_0ppppppppppEINtB7_12HostFunctionNtYpNtNtB9_8ret_type10ResultType10ReturnTypeTppppppppEEINtNtCs649FzoMgw5V_4core7convert4FrompE4from0Bb_
FN:181,_RNCNvXININtNtCsbhnjpcZuJYb_15hyperlight_host4func14host_functionssb_0ppppppppppEINtB7_12HostFunctionNtYpNtNtB9_8ret_type10ResultType10ReturnTypeTppppppppEEINtNtCs649FzoMgw5V_4core7convert4FrompE4froms_0Bb_
FN:176,_RNCNvXININtNtCsbhnjpcZuJYb_15hyperlight_host4func14host_functionssc_0pppppppppppEINtB7_12HostFunctionNtYpNtNtB9_8ret_type10ResultType10ReturnTypeTpppppppppEEINtNtCs649FzoMgw5V_4core7convert4FrompE4from0Bb_
FN:181,_RNCNvXININtNtCsbhnjpcZuJYb_15hyperlight_host4func14host_functionssc_0pppppppppppEINtB7_12HostFunctionNtYpNtNtB9_8ret_type10ResultType10ReturnTypeTpppppppppEEINtNtCs649FzoMgw5V_4core7convert4FrompE4froms_0Bb_
FN:176,_RNCNvXININtNtCsbhnjpcZuJYb_15hyperlight_host4func14host_functionssd_0ppppppppppppEINtB7_12HostFunctionNtYpNtNtB9_8ret_type10ResultType10ReturnTypeTppppppppppEEINtNtCs649FzoMgw5V_4core7convert4FrompE4from0Bb_
FN:181,_RNCNvXININtNtCsbhnjpcZuJYb_15hyperlight_host4func14host_functionssd_0ppppppppppppEINtB7_12HostFunctionNtYpNtNtB9_8ret_type10ResultType10ReturnTypeTppppppppppEEINtNtCs649FzoMgw5V_4core7convert4FrompE4froms_0Bb_
FN:176,_RNCNvXININtNtCsbhnjpcZuJYb_15hyperlight_host4func14host_functionsse_0pppppppppppppEINtB7_12HostFunctionNtYpNtNtB9_8ret_type10ResultType10ReturnTypeTpppppppppppEEINtNtCs649FzoMgw5V_4core7convert4FrompE4from0Bb_
FN:181,_RNCNvXININtNtCsbhnjpcZuJYb_15hyperlight_host4func14host_functionsse_0pppppppppppppEINtB7_12HostFunctionNtYpNtNtB9_8ret_type10ResultType10ReturnTypeTpppppppppppEEINtNtCs649FzoMgw5V_4core7convert4FrompE4froms_0Bb_
FN:176,_RNCNvXININtNtCsbhnjpcZuJYb_15hyperlight_host4func14host_functionssf_0ppppppppppppppEINtB7_12HostFunctionNtYpNtNtB9_8ret_type10ResultType10ReturnTypeTppppppppppppEEINtNtCs649FzoMgw5V_4core7convert4FrompE4from0Bb_
FN:181,_RNCNvXININtNtCsbhnjpcZuJYb_15hyperlight_host4func14host_functionssf_0ppppppppppppppEINtB7_12HostFunctionNtYpNtNtB9_8ret_type10ResultType10ReturnTypeTppppppppppppEEINtNtCs649FzoMgw5V_4core7convert4FrompE4froms_0Bb_
FN:176,_RNCNvXININtNtCsbhnjpcZuJYb_15hyperlight_host4func14host_functionssg_0pppppppppppppppEINtB7_12HostFunctionNtYpNtNtB9_8ret_type10ResultType10ReturnTypeTpppppppppppppEEINtNtCs649FzoMgw5V_4core7convert4FrompE4from0Bb_
FN:181,_RNCNvXININtNtCsbhnjpcZuJYb_15hyperlight_host4func14host_functionssg_0pppppppppppppppEINtB7_12HostFunctionNtYpNtNtB9_8ret_type10ResultType10ReturnTypeTpppppppppppppEEINtNtCs649FzoMgw5V_4core7convert4FrompE4froms_0Bb_
FN:176,_RNCNvXININtNtCsbhnjpcZuJYb_15hyperlight_host4func14host_functionssh_0ppppppppppppppppEINtB7_12HostFunctionNtYpNtNtB9_8ret_type10ResultType10ReturnTypeTppppppppppppppEEINtNtCs649FzoMgw5V_4core7convert4FrompE4from0Bb_
FN:181,_RNCNvXININtNtCsbhnjpcZuJYb_15hyperlight_host4func14host_functionssh_0ppppppppppppppppEINtB7_12HostFunctionNtYpNtNtB9_8ret_type10ResultType10ReturnTypeTppppppppppppppEEINtNtCs649FzoMgw5V_4core7convert4FrompE4froms_0Bb_
FN:176,_RNCNvXININtNtCsbhnjpcZuJYb_15hyperlight_host4func14host_functionssi_0pppppppppppppppppEINtB7_12HostFunctionNtYpNtNtB9_8ret_type10ResultType10ReturnTypeTpppppppppppppppEEINtNtCs649FzoMgw5V_4core7convert4FrompE4from0Bb_
FN:181,_RNCNvXININtNtCsbhnjpcZuJYb_15hyperlight_host4func14host_functionssi_0pppppppppppppppppEINtB7_12HostFunctionNtYpNtNtB9_8ret_type10ResultType10ReturnTypeTpppppppppppppppEEINtNtCs649FzoMgw5V_4core7convert4FrompE4froms_0Bb_
FN:176,_RNCNvXININtNtCsbhnjpcZuJYb_15hyperlight_host4func14host_functionssj_0ppppppppppppppppppEINtB7_12HostFunctionNtYpNtNtB9_8ret_type10ResultType10ReturnTypeTppppppppppppppppEEINtNtCs649FzoMgw5V_4core7convert4FrompE4from0Bb_
FN:181,_RNCNvXININtNtCsbhnjpcZuJYb_15hyperlight_host4func14host_functionssj_0ppppppppppppppppppEINtB7_12HostFunctionNtYpNtNtB9_8ret_type10ResultType10ReturnTypeTppppppppppppppppEEINtNtCs649FzoMgw5V_4core7convert4FrompE4froms_0Bb_
FN:176,_RNCNvXININtNtCsbhnjpcZuJYb_15hyperlight_host4func14host_functionssk_0pppppppppppppppppppEINtB7_12HostFunctionNtYpNtNtB9_8ret_type10ResultType10ReturnTypeTpppppppppppppppppEEINtNtCs649FzoMgw5V_4core7convert4FrompE4from0Bb_
FN:181,_RNCNvXININtNtCsbhnjpcZuJYb_15hyperlight_host4func14host_functionssk_0pppppppppppppppppppEINtB7_12HostFunctionNtYpNtNtB9_8ret_type10ResultType10ReturnTypeTpppppppppppppppppEEINtNtCs649FzoMgw5V_4core7convert4FrompE4froms_0Bb_
FN:176,_RNCNvXININtNtCsbhnjpcZuJYb_15hyperlight_host4func14host_functionssl_0ppppppppppppppppppppEINtB7_12HostFunctionNtYpNtNtB9_8ret_type10ResultType10ReturnTypeTppppppppppppppppppEEINtNtCs649FzoMgw5V_4core7convert4FrompE4from0Bb_
FN:181,_RNCNvXININtNtCsbhnjpcZuJYb_15hyperlight_host4func14host_functionssl_0ppppppppppppppppppppEINtB7_12HostFunctionNtYpNtNtB9_8ret_type10ResultType10ReturnTypeTppppppppppppppppppEEINtNtCs649FzoMgw5V_4core7convert4FrompE4froms_0Bb_
FN:176,_RNCNvXININtNtCsbhnjpcZuJYb_15hyperlight_host4func14host_functionssm_0pppppppppppppppppppppEINtB7_12HostFunctionNtYpNtNtB9_8ret_type10ResultType10ReturnTypeTpppppppppppppppppppEEINtNtCs649FzoMgw5V_4core7convert4FrompE4from0Bb_
FN:181,_RNCNvXININtNtCsbhnjpcZuJYb_15hyperlight_host4func14host_functionssm_0pppppppppppppppppppppEINtB7_12HostFunctionNtYpNtNtB9_8ret_type10ResultType10ReturnTypeTpppppppppppppppppppEEINtNtCs649FzoMgw5V_4core7convert4FrompE4froms_0Bb_
FN:176,_RNCNvXININtNtCsbhnjpcZuJYb_15hyperlight_host4func14host_functionssn_0ppppppppppppppppppppppEINtB7_12HostFunctionNtYpNtNtB9_8ret_type10ResultType10ReturnTypeTppppppppppppppppppppEEINtNtCs649FzoMgw5V_4core7convert4FrompE4from0Bb_
FN:181,_RNCNvXININtNtCsbhnjpcZuJYb_15hyperlight_host4func14host_functionssn_0ppppppppppppppppppppppEINtB7_12HostFunctionNtYpNtNtB9_8ret_type10ResultType10ReturnTypeTppppppppppppppppppppEEINtNtCs649FzoMgw5V_4core7convert4FrompE4froms_0Bb_
FN:176,_RNCNvXININtNtCsbhnjpcZuJYb_15hyperlight_host4func14host_functionsso_0pppppppppppppppppppppppEINtB7_12HostFunctionNtYpNtNtB9_8ret_type10ResultType10ReturnTypeTpppppppppppppppppppppEEINtNtCs649FzoMgw5V_4core7convert4FrompE4from0Bb_
FN:181,_RNCNvXININtNtCsbhnjpcZuJYb_15hyperlight_host4func14host_functionsso_0pppppppppppppppppppppppEINtB7_12HostFunctionNtYpNtNtB9_8ret_type10ResultType10ReturnTypeTpppppppppppppppppppppEEINtNtCs649FzoMgw5V_4core7convert4FrompE4froms_0Bb_
FN:176,_RNCNvXININtNtCsbhnjpcZuJYb_15hyperlight_host4func14host_functionssp_0ppppppppppppppppppppppppEINtB7_12HostFunctionNtYpNtNtB9_8ret_type10ResultType10ReturnTypeTppppppppppppppppppppppEEINtNtCs649FzoMgw5V_4core7convert4FrompE4from0Bb_
FN:181,_RNCNvXININtNtCsbhnjpcZuJYb_15hyperlight_host4func14host_functionssp_0ppppppppppppppppppppppppEINtB7_12HostFunctionNtYpNtNtB9_8ret_type10ResultType10ReturnTypeTppppppppppppppppppppppEEINtNtCs649FzoMgw5V_4core7convert4FrompE4froms_0Bb_
FN:176,_RNCNvXININtNtCsbhnjpcZuJYb_15hyperlight_host4func14host_functionssq_0pppppppppppppppppppppppppEINtB7_12HostFunctionNtYpNtNtB9_8ret_type10ResultType10ReturnTypeTpppppppppppppppppppppppEEINtNtCs649FzoMgw5V_4core7convert4FrompE4from0Bb_
FN:181,_RNCNvXININtNtCsbhnjpcZuJYb_15hyperlight_host4func14host_functionssq_0pppppppppppppppppppppppppEINtB7_12HostFunctionNtYpNtNtB9_8ret_type10ResultType10ReturnTypeTpppppppppppppppppppppppEEINtNtCs649FzoMgw5V_4core7convert4FrompE4froms_0Bb_
FN:176,_RNCNvXININtNtCsbhnjpcZuJYb_15hyperlight_host4func14host_functionssr_0ppppppppppppppppppppppppppEINtB7_12HostFunctionNtYpNtNtB9_8ret_type10ResultType10ReturnTypeTppppppppppppppppppppppppEEINtNtCs649FzoMgw5V_4core7convert4FrompE4from0Bb_
FN:181,_RNCNvXININtNtCsbhnjpcZuJYb_15hyperlight_host4func14host_functionssr_0ppppppppppppppppppppppppppEINtB7_12HostFunctionNtYpNtNtB9_8ret_type10ResultType10ReturnTypeTppppppppppppppppppppppppEEINtNtCs649FzoMgw5V_4core7convert4FrompE4froms_0Bb_
FN:176,_RNCNvXININtNtCsbhnjpcZuJYb_15hyperlight_host4func14host_functionsss_0pppppppppppppppppppppppppppEINtB7_12HostFunctionNtYpNtNtB9_8ret_type10ResultType10ReturnTypeTpppppppppppppppppppppppppEEINtNtCs649FzoMgw5V_4core7convert4FrompE4from0Bb_
FN:181,_RNCNvXININtNtCsbhnjpcZuJYb_15hyperlight_host4func14host_functionsss_0pppppppppppppppppppppppppppEINtB7_12HostFunctionNtYpNtNtB9_8ret_type10ResultType10ReturnTypeTpppppppppppppppppppppppppEEINtNtCs649FzoMgw5V_4core7convert4FrompE4froms_0Bb_
FN:176,_RNCNvXININtNtCsbhnjpcZuJYb_15hyperlight_host4func14host_functionsst_0ppppppppppppppppppppppppppppEINtB7_12HostFunctionNtYpNtNtB9_8ret_type10ResultType10ReturnTypeTppppppppppppppppppppppppppEEINtNtCs649FzoMgw5V_4core7convert4FrompE4from0Bb_
FN:181,_RNCNvXININtNtCsbhnjpcZuJYb_15hyperlight_host4func14host_functionsst_0ppppppppppppppppppppppppppppEINtB7_12HostFunctionNtYpNtNtB9_8ret_type10ResultType10ReturnTypeTppppppppppppppppppppppppppEEINtNtCs649FzoMgw5V_4core7convert4FrompE4froms_0Bb_
FN:176,_RNCNvXININtNtCsbhnjpcZuJYb_15hyperlight_host4func14host_functionssu_0pppppppppppppppppppppppppppppEINtB7_12HostFunctionNtYpNtNtB9_8ret_type10ResultType10ReturnTypeTpppppppppppppppppppppppppppEEINtNtCs649FzoMgw5V_4core7convert4FrompE4from0Bb_
FN:181,_RNCNvXININtNtCsbhnjpcZuJYb_15hyperlight_host4func14host_functionssu_0pppppppppppppppppppppppppppppEINtB7_12HostFunctionNtYpNtNtB9_8ret_type10ResultType10ReturnTypeTpppppppppppppppppppppppppppEEINtNtCs649FzoMgw5V_4core7convert4FrompE4froms_0Bb_
FN:176,_RNCNvXININtNtCsbhnjpcZuJYb_15hyperlight_host4func14host_functionssv_0ppppppppppppppppppppppppppppppEINtB7_12HostFunctionNtYpNtNtB9_8ret_type10ResultType10ReturnTypeTppppppppppppppppppppppppppppEEINtNtCs649FzoMgw5V_4core7convert4FrompE4from0Bb_
FN:181,_RNCNvXININtNtCsbhnjpcZuJYb_15hyperlight_host4func14host_functionssv_0ppppppppppppppppppppppppppppppEINtB7_12HostFunctionNtYpNtNtB9_8ret_type10ResultType10ReturnTypeTppppppppppppppppppppppppppppEEINtNtCs649FzoMgw5V_4core7convert4FrompE4froms_0Bb_
FN:176,_RNCNvXININtNtCsbhnjpcZuJYb_15hyperlight_host4func14host_functionssw_0pppppppppppppppppppppppppppppppEINtB7_12HostFunctionNtYpNtNtB9_8ret_type10ResultType10ReturnTypeTpppppppppppppppppppppppppppppEEINtNtCs649FzoMgw5V_4core7convert4FrompE4from0Bb_
FN:181,_RNCNvXININtNtCsbhnjpcZuJYb_15hyperlight_host4func14host_functionssw_0pppppppppppppppppppppppppppppppEINtB7_12HostFunctionNtYpNtNtB9_8ret_type10ResultType10ReturnTypeTpppppppppppppppppppppppppppppEEINtNtCs649FzoMgw5V_4core7convert4FrompE4froms_0Bb_
FN:176,_RNCNvXININtNtCsbhnjpcZuJYb_15hyperlight_host4func14host_functionssx_0ppppppppppppppppppppppppppppppppEINtB7_12HostFunctionNtYpNtNtB9_8ret_type10ResultType10ReturnTypeTppppppppppppppppppppppppppppppEEINtNtCs649FzoMgw5V_4core7convert4FrompE4from0Bb_
FN:181,_RNCNvXININtNtCsbhnjpcZuJYb_15hyperlight_host4func14host_functionssx_0ppppppppppppppppppppppppppppppppEINtB7_12HostFunctionNtYpNtNtB9_8ret_type10ResultType10ReturnTypeTppppppppppppppppppppppppppppppEEINtNtCs649FzoMgw5V_4core7convert4FrompE4froms_0Bb_
FN:176,_RNCNvXININtNtCsbhnjpcZuJYb_15hyperlight_host4func14host_functionssy_0pppppppppppppppppppppppppppppppppEINtB7_12HostFunctionNtYpNtNtB9_8ret_type10ResultType10ReturnTypeTpppppppppppppppppppppppppppppppEEINtNtCs649FzoMgw5V_4core7convert4FrompE4from0Bb_
FN:181,_RNCNvXININtNtCsbhnjpcZuJYb_15hyperlight_host4func14host_functionssy_0pppppppppppppppppppppppppppppppppEINtB7_12HostFunctionNtYpNtNtB9_8ret_type10ResultType10ReturnTypeTpppppppppppppppppppppppppppppppEEINtNtCs649FzoMgw5V_4core7convert4FrompE4froms_0Bb_
FN:176,_RNCNvXININtNtCsbhnjpcZuJYb_15hyperlight_host4func14host_functionssz_0ppppppppppppppppppppppppppppppppppEINtB7_12HostFunctionNtYpNtNtB9_8ret_type10ResultType10ReturnTypeTppppppppppppppppppppppppppppppppEEINtNtCs649FzoMgw5V_4core7convert4FrompE4from0Bb_
FN:181,_RNCNvXININtNtCsbhnjpcZuJYb_15hyperlight_host4func14host_functionssz_0ppppppppppppppppppppppppppppppppppEINtB7_12HostFunctionNtYpNtNtB9_8ret_type10ResultType10ReturnTypeTppppppppppppppppppppppppppppppppEEINtNtCs649FzoMgw5V_4core7convert4FrompE4froms_0Bb_
FN:175,_RNvXININtNtCsbhnjpcZuJYb_15hyperlight_host4func14host_functionss6_0pppppEINtB5_12HostFunctionNtYpNtNtB7_8ret_type10ResultType10ReturnTypeTpppEEINtNtCs649FzoMgw5V_4core7convert4FrompE4fromB9_
FN:175,_RNvXININtNtCsbhnjpcZuJYb_15hyperlight_host4func14host_functionss7_0ppppppEINtB5_12HostFunctionNtYpNtNtB7_8ret_type10ResultType10ReturnTypeTppppEEINtNtCs649FzoMgw5V_4core7convert4FrompE4fromB9_
FN:175,_RNvXININtNtCsbhnjpcZuJYb_15hyperlight_host4func14host_functionss8_0pppppppEINtB5_12HostFunctionNtYpNtNtB7_8ret_type10ResultType10ReturnTypeTpppppEEINtNtCs649FzoMgw5V_4core7convert4FrompE4fromB9_
FN:175,_RNvXININtNtCsbhnjpcZuJYb_15hyperlight_host4func14host_functionss9_0ppppppppEINtB5_12HostFunctionNtYpNtNtB7_8ret_type10ResultType10ReturnTypeTppppppEEINtNtCs649FzoMgw5V_4core7convert4FrompE4fromB9_
FN:175,_RNvXININtNtCsbhnjpcZuJYb_15hyperlight_host4func14host_functionssa_0pppppppppEINtB5_12HostFunctionNtYpNtNtB7_8ret_type10ResultType10ReturnTypeTpppppppEEINtNtCs649FzoMgw5V_4core7convert4FrompE4fromB9_
FN:175,_RNvXININtNtCsbhnjpcZuJYb_15hyperlight_host4func14host_functionssb_0ppppppppppEINtB5_12HostFunctionNtYpNtNtB7_8ret_type10ResultType10ReturnTypeTppppppppEEINtNtCs649FzoMgw5V_4core7convert4FrompE4fromB9_
FN:175,_RNvXININtNtCsbhnjpcZuJYb_15hyperlight_host4func14host_functionssc_0pppppppppppEINtB5_12HostFunctionNtYpNtNtB7_8ret_type10ResultType10ReturnTypeTpppppppppEEINtNtCs649FzoMgw5V_4core7convert4FrompE4fromB9_
FN:175,_RNvXININtNtCsbhnjpcZuJYb_15hyperlight_host4func14host_functionssd_0ppppppppppppEINtB5_12HostFunctionNtYpNtNtB7_8ret_type10ResultType10ReturnTypeTppppppppppEEINtNtCs649FzoMgw5V_4core7convert4FrompE4fromB9_
FN:175,_RNvXININtNtCsbhnjpcZuJYb_15hyperlight_host4func14host_functionsse_0pppppppppppppEINtB5_12HostFunctionNtYpNtNtB7_8ret_type10ResultType10ReturnTypeTpppppppppppEEINtNtCs649FzoMgw5V_4core7convert4FrompE4fromB9_
FN:175,_RNvXININtNtCsbhnjpcZuJYb_15hyperlight_host4func14host_functionssf_0ppppppppppppppEINtB5_12HostFunctionNtYpNtNtB7_8ret_type10ResultType10ReturnTypeTppppppppppppEEINtNtCs649FzoMgw5V_4core7convert4FrompE4fromB9_
FN:175,_RNvXININtNtCsbhnjpcZuJYb_15hyperlight_host4func14host_functionssg_0pppppppppppppppEINtB5_12HostFunctionNtYpNtNtB7_8ret_type10ResultType10ReturnTypeTpppppppppppppEEINtNtCs649FzoMgw5V_4core7convert4FrompE4fromB9_
FN:175,_RNvXININtNtCsbhnjpcZuJYb_15hyperlight_host4func14host_functionssh_0ppppppppppppppppEINtB5_12HostFunctionNtYpNtNtB7_8ret_type10ResultType10ReturnTypeTppppppppppppppEEINtNtCs649FzoMgw5V_4core7convert4FrompE4fromB9_
FN:175,_RNvXININtNtCsbhnjpcZuJYb_15hyperlight_host4func14host_functionssi_0pppppppppppppppppEINtB5_12HostFunctionNtYpNtNtB7_8ret_type10ResultType10ReturnTypeTpppppppppppppppEEINtNtCs649FzoMgw5V_4core7convert4FrompE4fromB9_
FN:175,_RNvXININtNtCsbhnjpcZuJYb_15hyperlight_host4func14host_functionssj_0ppppppppppppppppppEINtB5_12HostFunctionNtYpNtNtB7_8ret_type10ResultType10ReturnTypeTppppppppppppppppEEINtNtCs649FzoMgw5V_4core7convert4FrompE4fromB9_
FN:175,_RNvXININtNtCsbhnjpcZuJYb_15hyperlight_host4func14host_functionssk_0pppppppppppppppppppEINtB5_12HostFunctionNtYpNtNtB7_8ret_type10ResultType10ReturnTypeTpppppppppppppppppEEINtNtCs649FzoMgw5V_4core7convert4FrompE4fromB9_
FN:175,_RNvXININtNtCsbhnjpcZuJYb_15hyperlight_host4func14host_functionssl_0ppppppppppppppppppppEINtB5_12HostFunctionNtYpNtNtB7_8ret_type10ResultType10ReturnTypeTppppppppppppppppppEEINtNtCs649FzoMgw5V_4core7convert4FrompE4fromB9_
FN:175,_RNvXININtNtCsbhnjpcZuJYb_15hyperlight_host4func14host_functionssm_0pppppppppppppppppppppEINtB5_12HostFunctionNtYpNtNtB7_8ret_type10ResultType10ReturnTypeTpppppppppppppppppppEEINtNtCs649FzoMgw5V_4core7convert4FrompE4fromB9_
FN:175,_RNvXININtNtCsbhnjpcZuJYb_15hyperlight_host4func14host_functionssn_0ppppppppppppppppppppppEINtB5_12HostFunctionNtYpNtNtB7_8ret_type10ResultType10ReturnTypeTppppppppppppppppppppEEINtNtCs649FzoMgw5V_4core7convert4FrompE4fromB9_
FN:175,_RNvXININtNtCsbhnjpcZuJYb_15hyperlight_host4func14host_functionsso_0pppppppppppppppppppppppEINtB5_12HostFunctionNtYpNtNtB7_8ret_type10ResultType10ReturnTypeTpppppppppppppppppppppEEINtNtCs649FzoMgw5V_4core7convert4FrompE4fromB9_
FN:175,_RNvXININtNtCsbhnjpcZuJYb_15hyperlight_host4func14host_functionssp_0ppppppppppppppppppppppppEINtB5_12HostFunctionNtYpNtNtB7_8ret_type10ResultType10ReturnTypeTppppppppppppppppppppppEEINtNtCs649FzoMgw5V_4core7convert4FrompE4fromB9_
FN:175,_RNvXININtNtCsbhnjpcZuJYb_15hyperlight_host4func14host_functionssq_0pppppppppppppppppppppppppEINtB5_12HostFunctionNtYpNtNtB7_8ret_type10ResultType10ReturnTypeTpppppppppppppppppppppppEEINtNtCs649FzoMgw5V_4core7convert4FrompE4fromB9_
FN:175,_RNvXININtNtCsbhnjpcZuJYb_15hyperlight_host4func14host_functionssr_0ppppppppppppppppppppppppppEINtB5_12HostFunctionNtYpNtNtB7_8ret_type10ResultType10ReturnTypeTppppppppppppppppppppppppEEINtNtCs649FzoMgw5V_4core7convert4FrompE4fromB9_
FN:175,_RNvXININtNtCsbhnjpcZuJYb_15hyperlight_host4func14host_functionsss_0pppppppppppppppppppppppppppEINtB5_12HostFunctionNtYpNtNtB7_8ret_type10ResultType10ReturnTypeTpppppppppppppppppppppppppEEINtNtCs649FzoMgw5V_4core7convert4FrompE4fromB9_
FN:175,_RNvXININtNtCsbhnjpcZuJYb_15hyperlight_host4func14host_functionsst_0ppppppppppppppppppppppppppppEINtB5_12HostFunctionNtYpNtNtB7_8ret_type10ResultType10ReturnTypeTppppppppppppppppppppppppppEEINtNtCs649FzoMgw5V_4core7convert4FrompE4fromB9_
FN:175,_RNvXININtNtCsbhnjpcZuJYb_15hyperlight_host4func14host_functionssu_0pppppppppppppppppppppppppppppEINtB5_12HostFunctionNtYpNtNtB7_8ret_type10ResultType10ReturnTypeTpppppppppppppppppppppppppppEEINtNtCs649FzoMgw5V_4core7convert4FrompE4fromB9_
FN:175,_RNvXININtNtCsbhnjpcZuJYb_15hyperlight_host4func14host_functionssv_0ppppppppppppppppppppppppppppppEINtB5_12HostFunctionNtYpNtNtB7_8ret_type10ResultType10ReturnTypeTppppppppppppppppppppppppppppEEINtNtCs649FzoMgw5V_4core7convert4FrompE4fromB9_
FN:175,_RNvXININtNtCsbhnjpcZuJYb_15hyperlight_host4func14host_functionssw_0pppppppppppppppppppppppppppppppEINtB5_12HostFunctionNtYpNtNtB7_8ret_type10ResultType10ReturnTypeTpppppppppppppppppppppppppppppEEINtNtCs649FzoMgw5V_4core7convert4FrompE4fromB9_
FN:175,_RNvXININtNtCsbhnjpcZuJYb_15hyperlight_host4func14host_functionssx_0ppppppppppppppppppppppppppppppppEINtB5_12HostFunctionNtYpNtNtB7_8ret_type10ResultType10ReturnTypeTppppppppppppppppppppppppppppppEEINtNtCs649FzoMgw5V_4core7convert4FrompE4fromB9_
FN:175,_RNvXININtNtCsbhnjpcZuJYb_15hyperlight_host4func14host_functionssy_0pppppppppppppppppppppppppppppppppEINtB5_12HostFunctionNtYpNtNtB7_8ret_type10ResultType10ReturnTypeTpppppppppppppppppppppppppppppppEEINtNtCs649FzoMgw5V_4core7convert4FrompE4fromB9_
FN:175,_RNvXININtNtCsbhnjpcZuJYb_15hyperlight_host4func14host_functionssz_0ppppppppppppppppppppppppppppppppppEINtB5_12HostFunctionNtYpNtNtB7_8ret_type10ResultType10ReturnTypeTppppppppppppppppppppppppppppppppEEINtNtCs649FzoMgw5V_4core7convert4FrompE4fromB9_
FN:194,_RINvNtNtCs9Wvk7SR8Ovp_15hyperlight_host4func14host_functions22register_host_functionTNtNtCs7h7qHWfF5BF_5alloc6string6StringElNvNtNtB6_7sandbox10host_funcs19default_writer_funcECsbapp4F1MeKm_16integration_test
FN:194,_RINvNtNtCs9Wvk7SR8Ovp_15hyperlight_host4func14host_functions22register_host_functionuuNCNvCsbapp4F1MeKm_16integration_tests_19interrupt_host_call0EB1q_
FN:194,_RINvNtNtCs9Wvk7SR8Ovp_15hyperlight_host4func14host_functions22register_host_functionuuNCNvCsbapp4F1MeKm_16integration_tests_28interrupt_spamming_host_call0EB1q_
FN:212,_RNCINvNtNtCs9Wvk7SR8Ovp_15hyperlight_host4func14host_functions22register_host_functionTNtNtCs7h7qHWfF5BF_5alloc6string6StringElNvNtNtB8_7sandbox10host_funcs19default_writer_funcE0Csbapp4F1MeKm_16integration_test
FN:212,_RNCINvNtNtCs9Wvk7SR8Ovp_15hyperlight_host4func14host_functions22register_host_functionuuNCNvCsbapp4F1MeKm_16integration_tests_19interrupt_host_call0E0B1s_
FN:212,_RNCINvNtNtCs9Wvk7SR8Ovp_15hyperlight_host4func14host_functions22register_host_functionuuNCNvCsbapp4F1MeKm_16integration_tests_28interrupt_spamming_host_call0E0B1s_
FN:183,_RNCNCNvXs3_NtNtCs9Wvk7SR8Ovp_15hyperlight_host4func14host_functionsINtB9_12HostFunctionuuEINtNtCs649FzoMgw5V_4core7convert4FromNCNvCsbapp4F1MeKm_16integration_tests_19interrupt_host_call0E4froms_00B25_
FN:183,_RNCNCNvXs3_NtNtCs9Wvk7SR8Ovp_15hyperlight_host4func14host_functionsINtB9_12HostFunctionuuEINtNtCs649FzoMgw5V_4core7convert4FromNCNvCsbapp4F1MeKm_16integration_tests_28interrupt_spamming_host_call0E4froms_00B25_
FN:183,_RNCNCNvXs4_NtNtCs9Wvk7SR8Ovp_15hyperlight_host4func14host_functionsINtB9_12HostFunctionlTNtNtCs7h7qHWfF5BF_5alloc6string6StringEEINtNtCs649FzoMgw5V_4core7convert4FromNvNtNtBd_7sandbox10host_funcs19default_writer_funcE4froms_00Csbapp4F1MeKm_16integration_test
FN:152,_RNCNvXs1_NtNtCs9Wvk7SR8Ovp_15hyperlight_host4func14host_functionsNtB7_22TypeErasedHostFunctionINtNtCs649FzoMgw5V_4core7convert4FromINtB7_12HostFunctionlTNtNtCs7h7qHWfF5BF_5alloc6string6StringEEE4from0Csbapp4F1MeKm_16integration_test
FN:152,_RNCNvXs1_NtNtCs9Wvk7SR8Ovp_15hyperlight_host4func14host_functionsNtB7_22TypeErasedHostFunctionINtNtCs649FzoMgw5V_4core7convert4FromINtB7_12HostFunctionuuEE4from0Csbapp4F1MeKm_16integration_test
FN:176,_RNCNvXs3_NtNtCs9Wvk7SR8Ovp_15hyperlight_host4func14host_functionsINtB7_12HostFunctionuuEINtNtCs649FzoMgw5V_4core7convert4FromNCNvCsbapp4F1MeKm_16integration_tests_19interrupt_host_call0E4from0B23_
FN:181,_RNCNvXs3_NtNtCs9Wvk7SR8Ovp_15hyperlight_host4func14host_functionsINtB7_12HostFunctionuuEINtNtCs649FzoMgw5V_4core7convert4FromNCNvCsbapp4F1MeKm_16integration_tests_19interrupt_host_call0E4froms_0B23_
FN:176,_RNCNvXs3_NtNtCs9Wvk7SR8Ovp_15hyperlight_host4func14host_functionsINtB7_12HostFunctionuuEINtNtCs649FzoMgw5V_4core7convert4FromNCNvCsbapp4F1MeKm_16integration_tests_28interrupt_spamming_host_call0E4from0B23_
FN:181,_RNCNvXs3_NtNtCs9Wvk7SR8Ovp_15hyperlight_host4func14host_functionsINtB7_12HostFunctionuuEINtNtCs649FzoMgw5V_4core7convert4FromNCNvCsbapp4F1MeKm_16integration_tests_28interrupt_spamming_host_call0E4froms_0B23_
FN:176,_RNCNvXs4_NtNtCs9Wvk7SR8Ovp_15hyperlight_host4func14host_functionsINtB7_12HostFunctionlTNtNtCs7h7qHWfF5BF_5alloc6string6StringEEINtNtCs649FzoMgw5V_4core7convert4FromNvNtNtBb_7sandbox10host_funcs19default_writer_funcE4from0Csbapp4F1MeKm_16integration_test
FN:181,_RNCNvXs4_NtNtCs9Wvk7SR8Ovp_15hyperlight_host4func14host_functionsINtB7_12HostFunctionlTNtNtCs7h7qHWfF5BF_5alloc6string6StringEEINtNtCs649FzoMgw5V_4core7convert4FromNvNtNtBb_7sandbox10host_funcs19default_writer_funcE4froms_0Csbapp4F1MeKm_16integration_test
FN:134,_RNvMs_NtNtCs9Wvk7SR8Ovp_15hyperlight_host4func14host_functionsINtB4_12HostFunctionlTNtNtCs7h7qHWfF5BF_5alloc6string6StringEE4callCsbapp4F1MeKm_16integration_test
FN:134,_RNvMs_NtNtCs9Wvk7SR8Ovp_15hyperlight_host4func14host_functionsINtB4_12HostFunctionuuE4callCsbapp4F1MeKm_16integration_test
FN:150,_RNvXs1_NtNtCs9Wvk7SR8Ovp_15hyperlight_host4func14host_functionsNtB5_22TypeErasedHostFunctionINtNtCs649FzoMgw5V_4core7convert4FromINtB5_12HostFunctionlTNtNtCs7h7qHWfF5BF_5alloc6string6StringEEE4fromCsbapp4F1MeKm_16integration_test
FN:150,_RNvXs1_NtNtCs9Wvk7SR8Ovp_15hyperlight_host4func14host_functionsNtB5_22TypeErasedHostFunctionINtNtCs649FzoMgw5V_4core7convert4FromINtB5_12HostFunctionuuEE4fromCsbapp4F1MeKm_16integration_test
FN:175,_RNvXs3_NtNtCs9Wvk7SR8Ovp_15hyperlight_host4func14host_functionsINtB5_12HostFunctionuuEINtNtCs649FzoMgw5V_4core7convert4FromNCNvCsbapp4F1MeKm_16integration_tests_19interrupt_host_call0E4fromB21_
FN:175,_RNvXs3_NtNtCs9Wvk7SR8Ovp_15hyperlight_host4func14host_functionsINtB5_12HostFunctionuuEINtNtCs649FzoMgw5V_4core7convert4FromNCNvCsbapp4F1MeKm_16integration_tests_28interrupt_spamming_host_call0E4fromB21_
FN:175,_RNvXs4_NtNtCs9Wvk7SR8Ovp_15hyperlight_host4func14host_functionsINtB5_12HostFunctionlTNtNtCs7h7qHWfF5BF_5alloc6string6StringEEINtNtCs649FzoMgw5V_4core7convert4FromNvNtNtB9_7sandbox10host_funcs19default_writer_funcE4fromCsbapp4F1MeKm_16integration_test
FN:194,_RINvNtNtCs9Wvk7SR8Ovp_15hyperlight_host4func14host_functions22register_host_functionpppEB6_
FN:47,_RINvXNtNtCs9Wvk7SR8Ovp_15hyperlight_host4func14host_functionsNtNtNtB7_7sandbox13uninitialized20UninitializedSandboxNtB3_12Registerable22register_host_functionpppEB7_
FN:67,_RINvXNtNtCs9Wvk7SR8Ovp_15hyperlight_host4func14host_functionsNtNtNtB7_7sandbox13uninitialized20UninitializedSandboxNtB3_12Registerable36register_host_function_with_syscallspppEB7_
FN:212,_RNCINvNtNtCs9Wvk7SR8Ovp_15hyperlight_host4func14host_functions22register_host_functionpppE0B8_
FN:55,_RNCINvXNtNtCs9Wvk7SR8Ovp_15hyperlight_host4func14host_functionsNtNtNtB9_7sandbox13uninitialized20UninitializedSandboxNtB5_12Registerable22register_host_functionpppE0B9_
FN:76,_RNCINvXNtNtCs9Wvk7SR8Ovp_15hyperlight_host4func14host_functionsNtNtNtB9_7sandbox13uninitialized20UninitializedSandboxNtB5_12Registerable36register_host_function_with_syscallspppE0B9_
FN:183,_RNCNCNvXININtNtCs9Wvk7SR8Ovp_15hyperlight_host4func14host_functionss3_0ppEINtB9_12HostFunctionNtYpNtNtBb_8ret_type10ResultType10ReturnTypeuEINtNtCs649FzoMgw5V_4core7convert4FrompE4froms_00Bd_
FN:183,_RNCNCNvXININtNtCs9Wvk7SR8Ovp_15hyperlight_host4func14host_functionss4_0pppEINtB9_12HostFunctionNtYpNtNtBb_8ret_type10ResultType10ReturnTypeTpEEINtNtCs649FzoMgw5V_4core7convert4FrompE4froms_00Bd_
FN:183,_RNCNCNvXININtNtCs9Wvk7SR8Ovp_15hyperlight_host4func14host_functionss5_0ppppEINtB9_12HostFunctionNtYpNtNtBb_8ret_type10ResultType10ReturnTypeTppEEINtNtCs649FzoMgw5V_4core7convert4FrompE4froms_00Bd_
FN:183,_RNCNCNvXININtNtCs9Wvk7SR8Ovp_15hyperlight_host4func14host_functionss6_0pppppEINtB9_12HostFunctionNtYpNtNtBb_8ret_type10ResultType10ReturnTypeTpppEEINtNtCs649FzoMgw5V_4core7convert4FrompE4froms_00Bd_
FN:183,_RNCNCNvXININtNtCs9Wvk7SR8Ovp_15hyperlight_host4func14host_functionss7_0ppppppEINtB9_12HostFunctionNtYpNtNtBb_8ret_type10ResultType10ReturnTypeTppppEEINtNtCs649FzoMgw5V_4core7convert4FrompE4froms_00Bd_
FN:183,_RNCNCNvXININtNtCs9Wvk7SR8Ovp_15hyperlight_host4func14host_functionss8_0pppppppEINtB9_12HostFunctionNtYpNtNtBb_8ret_type10ResultType10ReturnTypeTpppppEEINtNtCs649FzoMgw5V_4core7convert4FrompE4froms_00Bd_
FN:183,_RNCNCNvXININtNtCs9Wvk7SR8Ovp_15hyperlight_host4func14host_functionss9_0ppppppppEINtB9_12HostFunctionNtYpNtNtBb_8ret_type10ResultType10ReturnTypeTppppppEEINtNtCs649FzoMgw5V_4core7convert4FrompE4froms_00Bd_
FN:183,_RNCNCNvXININtNtCs9Wvk7SR8Ovp_15hyperlight_host4func14host_functionssa_0pppppppppEINtB9_12HostFunctionNtYpNtNtBb_8ret_type10ResultType10ReturnTypeTpppppppEEINtNtCs649FzoMgw5V_4core7convert4FrompE4froms_00Bd_
FN:183,_RNCNCNvXININtNtCs9Wvk7SR8Ovp_15hyperlight_host4func14host_functionssb_0ppppppppppEINtB9_12HostFunctionNtYpNtNtBb_8ret_type10ResultType10ReturnTypeTppppppppEEINtNtCs649FzoMgw5V_4core7convert4FrompE4froms_00Bd_
FN:183,_RNCNCNvXININtNtCs9Wvk7SR8Ovp_15hyperlight_host4func14host_functionssc_0pppppppppppEINtB9_12HostFunctionNtYpNtNtBb_8ret_type10ResultType10ReturnTypeTpppppppppEEINtNtCs649FzoMgw5V_4core7convert4FrompE4froms_00Bd_
FN:183,_RNCNCNvXININtNtCs9Wvk7SR8Ovp_15hyperlight_host4func14host_functionssd_0ppppppppppppEINtB9_12HostFunctionNtYpNtNtBb_8ret_type10ResultType10ReturnTypeTppppppppppEEINtNtCs649FzoMgw5V_4core7convert4FrompE4froms_00Bd_
FN:183,_RNCNCNvXININtNtCs9Wvk7SR8Ovp_15hyperlight_host4func14host_functionsse_0pppppppppppppEINtB9_12HostFunctionNtYpNtNtBb_8ret_type10ResultType10ReturnTypeTpppppppppppEEINtNtCs649FzoMgw5V_4core7convert4FrompE4froms_00Bd_
FN:183,_RNCNCNvXININtNtCs9Wvk7SR8Ovp_15hyperlight_host4func14host_functionssf_0ppppppppppppppEINtB9_12HostFunctionNtYpNtNtBb_8ret_type10ResultType10ReturnTypeTppppppppppppEEINtNtCs649FzoMgw5V_4core7convert4FrompE4froms_00Bd_
FN:183,_RNCNCNvXININtNtCs9Wvk7SR8Ovp_15hyperlight_host4func14host_functionssg_0pppppppppppppppEINtB9_12HostFunctionNtYpNtNtBb_8ret_type10ResultType10ReturnTypeTpppppppppppppEEINtNtCs649FzoMgw5V_4core7convert4FrompE4froms_00Bd_
FN:183,_RNCNCNvXININtNtCs9Wvk7SR8Ovp_15hyperlight_host4func14host_functionssh_0ppppppppppppppppEINtB9_12HostFunctionNtYpNtNtBb_8ret_type10ResultType10ReturnTypeTppppppppppppppEEINtNtCs649FzoMgw5V_4core7convert4FrompE4froms_00Bd_
FN:183,_RNCNCNvXININtNtCs9Wvk7SR8Ovp_15hyperlight_host4func14host_functionssi_0pppppppppppppppppEINtB9_12HostFunctionNtYpNtNtBb_8ret_type10ResultType10ReturnTypeTpppppppppppppppEEINtNtCs649FzoMgw5V_4core7convert4FrompE4froms_00Bd_
FN:183,_RNCNCNvXININtNtCs9Wvk7SR8Ovp_15hyperlight_host4func14host_functionssj_0ppppppppppppppppppEINtB9_12HostFunctionNtYpNtNtBb_8ret_type10ResultType10ReturnTypeTppppppppppppppppEEINtNtCs649FzoMgw5V_4core7convert4FrompE4froms_00Bd_
FN:183,_RNCNCNvXININtNtCs9Wvk7SR8Ovp_15hyperlight_host4func14host_functionssk_0pppppppppppppppppppEINtB9_12HostFunctionNtYpNtNtBb_8ret_type10ResultType10ReturnTypeTpppppppppppppppppEEINtNtCs649FzoMgw5V_4core7convert4FrompE4froms_00Bd_
FN:183,_RNCNCNvXININtNtCs9Wvk7SR8Ovp_15hyperlight_host4func14host_functionssl_0ppppppppppppppppppppEINtB9_12HostFunctionNtYpNtNtBb_8ret_type10ResultType10ReturnTypeTppppppppppppppppppEEINtNtCs649FzoMgw5V_4core7convert4FrompE4froms_00Bd_
FN:183,_RNCNCNvXININtNtCs9Wvk7SR8Ovp_15hyperlight_host4func14host_functionssm_0pppppppppppppppppppppEINtB9_12HostFunctionNtYpNtNtBb_8ret_type10ResultType10ReturnTypeTpppppppppppppppppppEEINtNtCs649FzoMgw5V_4core7convert4FrompE4froms_00Bd_
FN:183,_RNCNCNvXININtNtCs9Wvk7SR8Ovp_15hyperlight_host4func14host_functionssn_0ppppppppppppppppppppppEINtB9_12HostFunctionNtYpNtNtBb_8ret_type10ResultType10ReturnTypeTppppppppppppppppppppEEINtNtCs649FzoMgw5V_4core7convert4FrompE4froms_00Bd_
FN:183,_RNCNCNvXININtNtCs9Wvk7SR8Ovp_15hyperlight_host4func14host_functionsso_0pppppppppppppppppppppppEINtB9_12HostFunctionNtYpNtNtBb_8ret_type10ResultType10ReturnTypeTpppppppppppppppppppppEEINtNtCs649FzoMgw5V_4core7convert4FrompE4froms_00Bd_
FN:183,_RNCNCNvXININtNtCs9Wvk7SR8Ovp_15hyperlight_host4func14host_functionssp_0ppppppppppppppppppppppppEINtB9_12HostFunctionNtYpNtNtBb_8ret_type10ResultType10ReturnTypeTppppppppppppppppppppppEEINtNtCs649FzoMgw5V_4core7convert4FrompE4froms_00Bd_
FN:183,_RNCNCNvXININtNtCs9Wvk7SR8Ovp_15hyperlight_host4func14host_functionssq_0pppppppppppppppppppppppppEINtB9_12HostFunctionNtYpNtNtBb_8ret_type10ResultType10ReturnTypeTpppppppppppppppppppppppEEINtNtCs649FzoMgw5V_4core7convert4FrompE4froms_00Bd_
FN:183,_RNCNCNvXININtNtCs9Wvk7SR8Ovp_15hyperlight_host4func14host_functionssr_0ppppppppppppppppppppppppppEINtB9_12HostFunctionNtYpNtNtBb_8ret_type10ResultType10ReturnTypeTppppppppppppppppppppppppEEINtNtCs649FzoMgw5V_4core7convert4FrompE4froms_00Bd_
FN:183,_RNCNCNvXININtNtCs9Wvk7SR8Ovp_15hyperlight_host4func14host_functionsss_0pppppppppppppppppppppppppppEINtB9_12HostFunctionNtYpNtNtBb_8ret_type10ResultType10ReturnTypeTpppppppppppppppppppppppppEEINtNtCs649FzoMgw5V_4core7convert4FrompE4froms_00Bd_
FN:183,_RNCNCNvXININtNtCs9Wvk7SR8Ovp_15hyperlight_host4func14host_functionsst_0ppppppppppppppppppppppppppppEINtB9_12HostFunctionNtYpNtNtBb_8ret_type10ResultType10ReturnTypeTppppppppppppppppppppppppppEEINtNtCs649FzoMgw5V_4core7convert4FrompE4froms_00Bd_
FN:183,_RNCNCNvXININtNtCs9Wvk7SR8Ovp_15hyperlight_host4func14host_functionssu_0pppppppppppppppppppppppppppppEINtB9_12HostFunctionNtYpNtNtBb_8ret_type10ResultType10ReturnTypeTpppppppppppppppppppppppppppEEINtNtCs649FzoMgw5V_4core7convert4FrompE4froms_00Bd_
FN:183,_RNCNCNvXININtNtCs9Wvk7SR8Ovp_15hyperlight_host4func14host_functionssv_0ppppppppppppppppppppppppppppppEINtB9_12HostFunctionNtYpNtNtBb_8ret_type10ResultType10ReturnTypeTppppppppppppppppppppppppppppEEINtNtCs649FzoMgw5V_4core7convert4FrompE4froms_00Bd_
FN:183,_RNCNCNvXININtNtCs9Wvk7SR8Ovp_15hyperlight_host4func14host_functionssw_0pppppppppppppppppppppppppppppppEINtB9_12HostFunctionNtYpNtNtBb_8ret_type10ResultType10ReturnTypeTpppppppppppppppppppppppppppppEEINtNtCs649FzoMgw5V_4core7convert4FrompE4froms_00Bd_
FN:183,_RNCNCNvXININtNtCs9Wvk7SR8Ovp_15hyperlight_host4func14host_functionssx_0ppppppppppppppppppppppppppppppppEINtB9_12HostFunctionNtYpNtNtBb_8ret_type10ResultType10ReturnTypeTppppppppppppppppppppppppppppppEEINtNtCs649FzoMgw5V_4core7convert4FrompE4froms_00Bd_
FN:183,_RNCNCNvXININtNtCs9Wvk7SR8Ovp_15hyperlight_host4func14host_functionssy_0pppppppppppppppppppppppppppppppppEINtB9_12HostFunctionNtYpNtNtBb_8ret_type10ResultType10ReturnTypeTpppppppppppppppppppppppppppppppEEINtNtCs649FzoMgw5V_4core7convert4FrompE4froms_00Bd_
FN:183,_RNCNCNvXININtNtCs9Wvk7SR8Ovp_15hyperlight_host4func14host_functionssz_0ppppppppppppppppppppppppppppppppppEINtB9_12HostFunctionNtYpNtNtBb_8ret_type10ResultType10ReturnTypeTppppppppppppppppppppppppppppppppEEINtNtCs649FzoMgw5V_4core7convert4FrompE4froms_00Bd_
FN:152,_RNCNvXININtNtCs9Wvk7SR8Ovp_15hyperlight_host4func14host_functionss1_0ppENtB7_22TypeErasedHostFunctionINtNtCs649FzoMgw5V_4core7convert4FromINtB7_12HostFunctionppEE4from0Bb_
FN:176,_RNCNvXININtNtCs9Wvk7SR8Ovp_15hyperlight_host4func14host_functionss3_0ppEINtB7_12HostFunctionNtYpNtNtB9_8ret_type10ResultType10ReturnTypeuEINtNtCs649FzoMgw5V_4core7convert4FrompE4from0Bb_
FN:181,_RNCNvXININtNtCs9Wvk7SR8Ovp_15hyperlight_host4func14host_functionss3_0ppEINtB7_12HostFunctionNtYpNtNtB9_8ret_type10ResultType10ReturnTypeuEINtNtCs649FzoMgw5V_4core7convert4FrompE4froms_0Bb_
FN:176,_RNCNvXININtNtCs9Wvk7SR8Ovp_15hyperlight_host4func14host_functionss4_0pppEINtB7_12HostFunctionNtYpNtNtB9_8ret_type10ResultType10ReturnTypeTpEEINtNtCs649FzoMgw5V_4core7convert4FrompE4from0Bb_
FN:181,_RNCNvXININtNtCs9Wvk7SR8Ovp_15hyperlight_host4func14host_functionss4_0pppEINtB7_12HostFunctionNtYpNtNtB9_8ret_type10ResultType10ReturnTypeTpEEINtNtCs649FzoMgw5V_4core7convert4FrompE4froms_0Bb_
FN:176,_RNCNvXININtNtCs9Wvk7SR8Ovp_15hyperlight_host4func14host_functionss5_0ppppEINtB7_12HostFunctionNtYpNtNtB9_8ret_type10ResultType10ReturnTypeTppEEINtNtCs649FzoMgw5V_4core7convert4FrompE4from0Bb_
FN:181,_RNCNvXININtNtCs9Wvk7SR8Ovp_15hyperlight_host4func14host_functionss5_0ppppEINtB7_12HostFunctionNtYpNtNtB9_8ret_type10ResultType10ReturnTypeTppEEINtNtCs649FzoMgw5V_4core7convert4FrompE4froms_0Bb_
FN:176,_RNCNvXININtNtCs9Wvk7SR8Ovp_15hyperlight_host4func14host_functionss6_0pppppEINtB7_12HostFunctionNtYpNtNtB9_8ret_type10ResultType10ReturnTypeTpppEEINtNtCs649FzoMgw5V_4core7convert4FrompE4from0Bb_
FN:181,_RNCNvXININtNtCs9Wvk7SR8Ovp_15hyperlight_host4func14host_functionss6_0pppppEINtB7_12HostFunctionNtYpNtNtB9_8ret_type10ResultType10ReturnTypeTpppEEINtNtCs649FzoMgw5V_4core7convert4FrompE4froms_0Bb_
FN:176,_RNCNvXININtNtCs9Wvk7SR8Ovp_15hyperlight_host4func14host_functionss7_0ppppppEINtB7_12HostFunctionNtYpNtNtB9_8ret_type10ResultType10ReturnTypeTppppEEINtNtCs649FzoMgw5V_4core7convert4FrompE4from0Bb_
FN:181,_RNCNvXININtNtCs9Wvk7SR8Ovp_15hyperlight_host4func14host_functionss7_0ppppppEINtB7_12HostFunctionNtYpNtNtB9_8ret_type10ResultType10ReturnTypeTppppEEINtNtCs649FzoMgw5V_4core7convert4FrompE4froms_0Bb_
FN:176,_RNCNvXININtNtCs9Wvk7SR8Ovp_15hyperlight_host4func14host_functionss8_0pppppppEINtB7_12HostFunctionNtYpNtNtB9_8ret_type10ResultType10ReturnTypeTpppppEEINtNtCs649FzoMgw5V_4core7convert4FrompE4from0Bb_
FN:181,_RNCNvXININtNtCs9Wvk7SR8Ovp_15hyperlight_host4func14host_functionss8_0pppppppEINtB7_12HostFunctionNtYpNtNtB9_8ret_type10ResultType10ReturnTypeTpppppEEINtNtCs649FzoMgw5V_4core7convert4FrompE4froms_0Bb_
FN:176,_RNCNvXININtNtCs9Wvk7SR8Ovp_15hyperlight_host4func14host_functionss9_0ppppppppEINtB7_12HostFunctionNtYpNtNtB9_8ret_type10ResultType10ReturnTypeTppppppEEINtNtCs649FzoMgw5V_4core7convert4FrompE4from0Bb_
FN:181,_RNCNvXININtNtCs9Wvk7SR8Ovp_15hyperlight_host4func14host_functionss9_0ppppppppEINtB7_12HostFunctionNtYpNtNtB9_8ret_type10ResultType10ReturnTypeTppppppEEINtNtCs649FzoMgw5V_4core7convert4FrompE4froms_0Bb_
FN:176,_RNCNvXININtNtCs9Wvk7SR8Ovp_15hyperlight_host4func14host_functionssa_0pppppppppEINtB7_12HostFunctionNtYpNtNtB9_8ret_type10ResultType10ReturnTypeTpppppppEEINtNtCs649FzoMgw5V_4core7convert4FrompE4from0Bb_
FN:181,_RNCNvXININtNtCs9Wvk7SR8Ovp_15hyperlight_host4func14host_functionssa_0pppppppppEINtB7_12HostFunctionNtYpNtNtB9_8ret_type10ResultType10ReturnTypeTpppppppEEINtNtCs649FzoMgw5V_4core7convert4FrompE4froms_0Bb_
FN:176,_RNCNvXININtNtCs9Wvk7SR8Ovp_15hyperlight_host4func14host_functionssb_0ppppppppppEINtB7_12HostFunctionNtYpNtNtB9_8ret_type10ResultType10ReturnTypeTppppppppEEINtNtCs649FzoMgw5V_4core7convert4FrompE4from0Bb_
FN:181,_RNCNvXININtNtCs9Wvk7SR8Ovp_15hyperlight_host4func14host_functionssb_0ppppppppppEINtB7_12HostFunctionNtYpNtNtB9_8ret_type10ResultType10ReturnTypeTppppppppEEINtNtCs649FzoMgw5V_4core7convert4FrompE4froms_0Bb_
FN:176,_RNCNvXININtNtCs9Wvk7SR8Ovp_15hyperlight_host4func14host_functionssc_0pppppppppppEINtB7_12HostFunctionNtYpNtNtB9_8ret_type10ResultType10ReturnTypeTpppppppppEEINtNtCs649FzoMgw5V_4core7convert4FrompE4from0Bb_
FN:181,_RNCNvXININtNtCs9Wvk7SR8Ovp_15hyperlight_host4func14host_functionssc_0pppppppppppEINtB7_12HostFunctionNtYpNtNtB9_8ret_type10ResultType10ReturnTypeTpppppppppEEINtNtCs649FzoMgw5V_4core7convert4FrompE4froms_0Bb_
FN:176,_RNCNvXININtNtCs9Wvk7SR8Ovp_15hyperlight_host4func14host_functionssd_0ppppppppppppEINtB7_12HostFunctionNtYpNtNtB9_8ret_type10ResultType10ReturnTypeTppppppppppEEINtNtCs649FzoMgw5V_4core7convert4FrompE4from0Bb_
FN:181,_RNCNvXININtNtCs9Wvk7SR8Ovp_15hyperlight_host4func14host_functionssd_0ppppppppppppEINtB7_12HostFunctionNtYpNtNtB9_8ret_type10ResultType10ReturnTypeTppppppppppEEINtNtCs649FzoMgw5V_4core7convert4FrompE4froms_0Bb_
FN:176,_RNCNvXININtNtCs9Wvk7SR8Ovp_15hyperlight_host4func14host_functionsse_0pppppppppppppEINtB7_12HostFunctionNtYpNtNtB9_8ret_type10ResultType10ReturnTypeTpppppppppppEEINtNtCs649FzoMgw5V_4core7convert4FrompE4from0Bb_
FN:181,_RNCNvXININtNtCs9Wvk7SR8Ovp_15hyperlight_host4func14host_functionsse_0pppppppppppppEINtB7_12HostFunctionNtYpNtNtB9_8ret_type10ResultType10ReturnTypeTpppppppppppEEINtNtCs649FzoMgw5V_4core7convert4FrompE4froms_0Bb_
FN:176,_RNCNvXININtNtCs9Wvk7SR8Ovp_15hyperlight_host4func14host_functionssf_0ppppppppppppppEINtB7_12HostFunctionNtYpNtNtB9_8ret_type10ResultType10ReturnTypeTppppppppppppEEINtNtCs649FzoMgw5V_4core7convert4FrompE4from0Bb_
FN:181,_RNCNvXININtNtCs9Wvk7SR8Ovp_15hyperlight_host4func14host_functionssf_0ppppppppppppppEINtB7_12HostFunctionNtYpNtNtB9_8ret_type10ResultType10ReturnTypeTppppppppppppEEINtNtCs649FzoMgw5V_4core7convert4FrompE4froms_0Bb_
FN:176,_RNCNvXININtNtCs9Wvk7SR8Ovp_15hyperlight_host4func14host_functionssg_0pppppppppppppppEINtB7_12HostFunctionNtYpNtNtB9_8ret_type10ResultType10ReturnTypeTpppppppppppppEEINtNtCs649FzoMgw5V_4core7convert4FrompE4from0Bb_
FN:181,_RNCNvXININtNtCs9Wvk7SR8Ovp_15hyperlight_host4func14host_functionssg_0pppppppppppppppEINtB7_12HostFunctionNtYpNtNtB9_8ret_type10ResultType10ReturnTypeTpppppppppppppEEINtNtCs649FzoMgw5V_4core7convert4FrompE4froms_0Bb_
FN:176,_RNCNvXININtNtCs9Wvk7SR8Ovp_15hyperlight_host4func14host_functionssh_0ppppppppppppppppEINtB7_12HostFunctionNtYpNtNtB9_8ret_type10ResultType10ReturnTypeTppppppppppppppEEINtNtCs649FzoMgw5V_4core7convert4FrompE4from0Bb_
FN:181,_RNCNvXININtNtCs9Wvk7SR8Ovp_15hyperlight_host4func14host_functionssh_0ppppppppppppppppEINtB7_12HostFunctionNtYpNtNtB9_8ret_type10ResultType10ReturnTypeTppppppppppppppEEINtNtCs649FzoMgw5V_4core7convert4FrompE4froms_0Bb_
FN:176,_RNCNvXININtNtCs9Wvk7SR8Ovp_15hyperlight_host4func14host_functionssi_0pppppppppppppppppEINtB7_12HostFunctionNtYpNtNtB9_8ret_type10ResultType10ReturnTypeTpppppppppppppppEEINtNtCs649FzoMgw5V_4core7convert4FrompE4from0Bb_
FN:181,_RNCNvXININtNtCs9Wvk7SR8Ovp_15hyperlight_host4func14host_functionssi_0pppppppppppppppppEINtB7_12HostFunctionNtYpNtNtB9_8ret_type10ResultType10ReturnTypeTpppppppppppppppEEINtNtCs649FzoMgw5V_4core7convert4FrompE4froms_0Bb_
FN:176,_RNCNvXININtNtCs9Wvk7SR8Ovp_15hyperlight_host4func14host_functionssj_0ppppppppppppppppppEINtB7_12HostFunctionNtYpNtNtB9_8ret_type10ResultType10ReturnTypeTppppppppppppppppEEINtNtCs649FzoMgw5V_4core7convert4FrompE4from0Bb_
FN:181,_RNCNvXININtNtCs9Wvk7SR8Ovp_15hyperlight_host4func14host_functionssj_0ppppppppppppppppppEINtB7_12HostFunctionNtYpNtNtB9_8ret_type10ResultType10ReturnTypeTppppppppppppppppEEINtNtCs649FzoMgw5V_4core7convert4FrompE4froms_0Bb_
FN:176,_RNCNvXININtNtCs9Wvk7SR8Ovp_15hyperlight_host4func14host_functionssk_0pppppppppppppppppppEINtB7_12HostFunctionNtYpNtNtB9_8ret_type10ResultType10ReturnTypeTpppppppppppppppppEEINtNtCs649FzoMgw5V_4core7convert4FrompE4from0Bb_
FN:181,_RNCNvXININtNtCs9Wvk7SR8Ovp_15hyperlight_host4func14host_functionssk_0pppppppppppppppppppEINtB7_12HostFunctionNtYpNtNtB9_8ret_type10ResultType10ReturnTypeTpppppppppppppppppEEINtNtCs649FzoMgw5V_4core7convert4FrompE4froms_0Bb_
FN:176,_RNCNvXININtNtCs9Wvk7SR8Ovp_15hyperlight_host4func14host_functionssl_0ppppppppppppppppppppEINtB7_12HostFunctionNtYpNtNtB9_8ret_type10ResultType10ReturnTypeTppppppppppppppppppEEINtNtCs649FzoMgw5V_4core7convert4FrompE4from0Bb_
FN:181,_RNCNvXININtNtCs9Wvk7SR8Ovp_15hyperlight_host4func14host_functionssl_0ppppppppppppppppppppEINtB7_12HostFunctionNtYpNtNtB9_8ret_type10ResultType10ReturnTypeTppppppppppppppppppEEINtNtCs649FzoMgw5V_4core7convert4FrompE4froms_0Bb_
FN:176,_RNCNvXININtNtCs9Wvk7SR8Ovp_15hyperlight_host4func14host_functionssm_0pppppppppppppppppppppEINtB7_12HostFunctionNtYpNtNtB9_8ret_type10ResultType10ReturnTypeTpppppppppppppppppppEEINtNtCs649FzoMgw5V_4core7convert4FrompE4from0Bb_
FN:181,_RNCNvXININtNtCs9Wvk7SR8Ovp_15hyperlight_host4func14host_functionssm_0pppppppppppppppppppppEINtB7_12HostFunctionNtYpNtNtB9_8ret_type10ResultType10ReturnTypeTpppppppppppppppppppEEINtNtCs649FzoMgw5V_4core7convert4FrompE4froms_0Bb_
FN:176,_RNCNvXININtNtCs9Wvk7SR8Ovp_15hyperlight_host4func14host_functionssn_0ppppppppppppppppppppppEINtB7_12HostFunctionNtYpNtNtB9_8ret_type10ResultType10ReturnTypeTppppppppppppppppppppEEINtNtCs649FzoMgw5V_4core7convert4FrompE4from0Bb_
FN:181,_RNCNvXININtNtCs9Wvk7SR8Ovp_15hyperlight_host4func14host_functionssn_0ppppppppppppppppppppppEINtB7_12HostFunctionNtYpNtNtB9_8ret_type10ResultType10ReturnTypeTppppppppppppppppppppEEINtNtCs649FzoMgw5V_4core7convert4FrompE4froms_0Bb_
FN:176,_RNCNvXININtNtCs9Wvk7SR8Ovp_15hyperlight_host4func14host_functionsso_0pppppppppppppppppppppppEINtB7_12HostFunctionNtYpNtNtB9_8ret_type10ResultType10ReturnTypeTpppppppppppppppppppppEEINtNtCs649FzoMgw5V_4core7convert4FrompE4from0Bb_
FN:181,_RNCNvXININtNtCs9Wvk7SR8Ovp_15hyperlight_host4func14host_functionsso_0pppppppppppppppppppppppEINtB7_12HostFunctionNtYpNtNtB9_8ret_type10ResultType10ReturnTypeTpppppppppppppppppppppEEINtNtCs649FzoMgw5V_4core7convert4FrompE4froms_0Bb_
FN:176,_RNCNvXININtNtCs9Wvk7SR8Ovp_15hyperlight_host4func14host_functionssp_0ppppppppppppppppppppppppEINtB7_12HostFunctionNtYpNtNtB9_8ret_type10ResultType10ReturnTypeTppppppppppppppppppppppEEINtNtCs649FzoMgw5V_4core7convert4FrompE4from0Bb_
FN:181,_RNCNvXININtNtCs9Wvk7SR8Ovp_15hyperlight_host4func14host_functionssp_0ppppppppppppppppppppppppEINtB7_12HostFunctionNtYpNtNtB9_8ret_type10ResultType10ReturnTypeTppppppppppppppppppppppEEINtNtCs649FzoMgw5V_4core7convert4FrompE4froms_0Bb_
FN:176,_RNCNvXININtNtCs9Wvk7SR8Ovp_15hyperlight_host4func14host_functionssq_0pppppppppppppppppppppppppEINtB7_12HostFunctionNtYpNtNtB9_8ret_type10ResultType10ReturnTypeTpppppppppppppppppppppppEEINtNtCs649FzoMgw5V_4core7convert4FrompE4from0Bb_
FN:181,_RNCNvXININtNtCs9Wvk7SR8Ovp_15hyperlight_host4func14host_functionssq_0pppppppppppppppppppppppppEINtB7_12HostFunctionNtYpNtNtB9_8ret_type10ResultType10ReturnTypeTpppppppppppppppppppppppEEINtNtCs649FzoMgw5V_4core7convert4FrompE4froms_0Bb_
FN:176,_RNCNvXININtNtCs9Wvk7SR8Ovp_15hyperlight_host4func14host_functionssr_0ppppppppppppppppppppppppppEINtB7_12HostFunctionNtYpNtNtB9_8ret_type10ResultType10ReturnTypeTppppppppppppppppppppppppEEINtNtCs649FzoMgw5V_4core7convert4FrompE4from0Bb_
FN:181,_RNCNvXININtNtCs9Wvk7SR8Ovp_15hyperlight_host4func14host_functionssr_0ppppppppppppppppppppppppppEINtB7_12HostFunctionNtYpNtNtB9_8ret_type10ResultType10ReturnTypeTppppppppppppppppppppppppEEINtNtCs649FzoMgw5V_4core7convert4FrompE4froms_0Bb_
FN:176,_RNCNvXININtNtCs9Wvk7SR8Ovp_15hyperlight_host4func14host_functionsss_0pppppppppppppppppppppppppppEINtB7_12HostFunctionNtYpNtNtB9_8ret_type10ResultType10ReturnTypeTpppppppppppppppppppppppppEEINtNtCs649FzoMgw5V_4core7convert4FrompE4from0Bb_
FN:181,_RNCNvXININtNtCs9Wvk7SR8Ovp_15hyperlight_host4func14host_functionsss_0pppppppppppppppppppppppppppEINtB7_12HostFunctionNtYpNtNtB9_8ret_type10ResultType10ReturnTypeTpppppppppppppppppppppppppEEINtNtCs649FzoMgw5V_4core7convert4FrompE4froms_0Bb_
FN:176,_RNCNvXININtNtCs9Wvk7SR8Ovp_15hyperlight_host4func14host_functionsst_0ppppppppppppppppppppppppppppEINtB7_12HostFunctionNtYpNtNtB9_8ret_type10ResultType10ReturnTypeTppppppppppppppppppppppppppEEINtNtCs649FzoMgw5V_4core7convert4FrompE4from0Bb_
FN:181,_RNCNvXININtNtCs9Wvk7SR8Ovp_15hyperlight_host4func14host_functionsst_0ppppppppppppppppppppppppppppEINtB7_12HostFunctionNtYpNtNtB9_8ret_type10ResultType10ReturnTypeTppppppppppppppppppppppppppEEINtNtCs649FzoMgw5V_4core7convert4FrompE4froms_0Bb_
FN:176,_RNCNvXININtNtCs9Wvk7SR8Ovp_15hyperlight_host4func14host_functionssu_0pppppppppppppppppppppppppppppEINtB7_12HostFunctionNtYpNtNtB9_8ret_type10ResultType10ReturnTypeTpppppppppppppppppppppppppppEEINtNtCs649FzoMgw5V_4core7convert4FrompE4from0Bb_
FN:181,_RNCNvXININtNtCs9Wvk7SR8Ovp_15hyperlight_host4func14host_functionssu_0pppppppppppppppppppppppppppppEINtB7_12HostFunctionNtYpNtNtB9_8ret_type10ResultType10ReturnTypeTpppppppppppppppppppppppppppEEINtNtCs649FzoMgw5V_4core7convert4FrompE4froms_0Bb_
FN:176,_RNCNvXININtNtCs9Wvk7SR8Ovp_15hyperlight_host4func14host_functionssv_0ppppppppppppppppppppppppppppppEINtB7_12HostFunctionNtYpNtNtB9_8ret_type10ResultType10ReturnTypeTppppppppppppppppppppppppppppEEINtNtCs649FzoMgw5V_4core7convert4FrompE4from0Bb_
FN:181,_RNCNvXININtNtCs9Wvk7SR8Ovp_15hyperlight_host4func14host_functionssv_0ppppppppppppppppppppppppppppppEINtB7_12HostFunctionNtYpNtNtB9_8ret_type10ResultType10ReturnTypeTppppppppppppppppppppppppppppEEINtNtCs649FzoMgw5V_4core7convert4FrompE4froms_0Bb_
FN:176,_RNCNvXININtNtCs9Wvk7SR8Ovp_15hyperlight_host4func14host_functionssw_0pppppppppppppppppppppppppppppppEINtB7_12HostFunctionNtYpNtNtB9_8ret_type10ResultType10ReturnTypeTpppppppppppppppppppppppppppppEEINtNtCs649FzoMgw5V_4core7convert4FrompE4from0Bb_
FN:181,_RNCNvXININtNtCs9Wvk7SR8Ovp_15hyperlight_host4func14host_functionssw_0pppppppppppppppppppppppppppppppEINtB7_12HostFunctionNtYpNtNtB9_8ret_type10ResultType10ReturnTypeTpppppppppppppppppppppppppppppEEINtNtCs649FzoMgw5V_4core7convert4FrompE4froms_0Bb_
FN:176,_RNCNvXININtNtCs9Wvk7SR8Ovp_15hyperlight_host4func14host_functionssx_0ppppppppppppppppppppppppppppppppEINtB7_12HostFunctionNtYpNtNtB9_8ret_type10ResultType10ReturnTypeTppppppppppppppppppppppppppppppEEINtNtCs649FzoMgw5V_4core7convert4FrompE4from0Bb_
FN:181,_RNCNvXININtNtCs9Wvk7SR8Ovp_15hyperlight_host4func14host_functionssx_0ppppppppppppppppppppppppppppppppEINtB7_12HostFunctionNtYpNtNtB9_8ret_type10ResultType10ReturnTypeTppppppppppppppppppppppppppppppEEINtNtCs649FzoMgw5V_4core7convert4FrompE4froms_0Bb_
FN:176,_RNCNvXININtNtCs9Wvk7SR8Ovp_15hyperlight_host4func14host_functionssy_0pppppppppppppppppppppppppppppppppEINtB7_12HostFunctionNtYpNtNtB9_8ret_type10ResultType10ReturnTypeTpppppppppppppppppppppppppppppppEEINtNtCs649FzoMgw5V_4core7convert4FrompE4from0Bb_
FN:181,_RNCNvXININtNtCs9Wvk7SR8Ovp_15hyperlight_host4func14host_functionssy_0pppppppppppppppppppppppppppppppppEINtB7_12HostFunctionNtYpNtNtB9_8ret_type10ResultType10ReturnTypeTpppppppppppppppppppppppppppppppEEINtNtCs649FzoMgw5V_4core7convert4FrompE4froms_0Bb_
FN:176,_RNCNvXININtNtCs9Wvk7SR8Ovp_15hyperlight_host4func14host_functionssz_0ppppppppppppppppppppppppppppppppppEINtB7_12HostFunctionNtYpNtNtB9_8ret_type10ResultType10ReturnTypeTppppppppppppppppppppppppppppppppEEINtNtCs649FzoMgw5V_4core7convert4FrompE4from0Bb_
FN:181,_RNCNvXININtNtCs9Wvk7SR8Ovp_15hyperlight_host4func14host_functionssz_0ppppppppppppppppppppppppppppppppppEINtB7_12HostFunctionNtYpNtNtB9_8ret_type10ResultType10ReturnTypeTppppppppppppppppppppppppppppppppEEINtNtCs649FzoMgw5V_4core7convert4FrompE4froms_0Bb_
FN:134,_RNvMs_NtNtCs9Wvk7SR8Ovp_15hyperlight_host4func14host_functionsINtB4_12HostFunctionppE4callB8_
FN:150,_RNvXININtNtCs9Wvk7SR8Ovp_15hyperlight_host4func14host_functionss1_0ppENtB5_22TypeErasedHostFunctionINtNtCs649FzoMgw5V_4core7convert4FromINtB5_12HostFunctionppEE4fromB9_
FN:175,_RNvXININtNtCs9Wvk7SR8Ovp_15hyperlight_host4func14host_functionss3_0ppEINtB5_12HostFunctionNtYpNtNtB7_8ret_type10ResultType10ReturnTypeuEINtNtCs649FzoMgw5V_4core7convert4FrompE4fromB9_
FN:175,_RNvXININtNtCs9Wvk7SR8Ovp_15hyperlight_host4func14host_functionss4_0pppEINtB5_12HostFunctionNtYpNtNtB7_8ret_type10ResultType10ReturnTypeTpEEINtNtCs649FzoMgw5V_4core7convert4FrompE4fromB9_
FN:175,_RNvXININtNtCs9Wvk7SR8Ovp_15hyperlight_host4func14host_functionss5_0ppppEINtB5_12HostFunctionNtYpNtNtB7_8ret_type10ResultType10ReturnTypeTppEEINtNtCs649FzoMgw5V_4core7convert4FrompE4fromB9_
FN:175,_RNvXININtNtCs9Wvk7SR8Ovp_15hyperlight_host4func14host_functionss6_0pppppEINtB5_12HostFunctionNtYpNtNtB7_8ret_type10ResultType10ReturnTypeTpppEEINtNtCs649FzoMgw5V_4core7convert4FrompE4fromB9_
FN:175,_RNvXININtNtCs9Wvk7SR8Ovp_15hyperlight_host4func14host_functionss7_0ppppppEINtB5_12HostFunctionNtYpNtNtB7_8ret_type10ResultType10ReturnTypeTppppEEINtNtCs649FzoMgw5V_4core7convert4FrompE4fromB9_
FN:175,_RNvXININtNtCs9Wvk7SR8Ovp_15hyperlight_host4func14host_functionss8_0pppppppEINtB5_12HostFunctionNtYpNtNtB7_8ret_type10ResultType10ReturnTypeTpppppEEINtNtCs649FzoMgw5V_4core7convert4FrompE4fromB9_
FN:175,_RNvXININtNtCs9Wvk7SR8Ovp_15hyperlight_host4func14host_functionss9_0ppppppppEINtB5_12HostFunctionNtYpNtNtB7_8ret_type10ResultType10ReturnTypeTppppppEEINtNtCs649FzoMgw5V_4core7convert4FrompE4fromB9_
FN:175,_RNvXININtNtCs9Wvk7SR8Ovp_15hyperlight_host4func14host_functionssa_0pppppppppEINtB5_12HostFunctionNtYpNtNtB7_8ret_type10ResultType10ReturnTypeTpppppppEEINtNtCs649FzoMgw5V_4core7convert4FrompE4fromB9_
FN:175,_RNvXININtNtCs9Wvk7SR8Ovp_15hyperlight_host4func14host_functionssb_0ppppppppppEINtB5_12HostFunctionNtYpNtNtB7_8ret_type10ResultType10ReturnTypeTppppppppEEINtNtCs649FzoMgw5V_4core7convert4FrompE4fromB9_
FN:175,_RNvXININtNtCs9Wvk7SR8Ovp_15hyperlight_host4func14host_functionssc_0pppppppppppEINtB5_12HostFunctionNtYpNtNtB7_8ret_type10ResultType10ReturnTypeTpppppppppEEINtNtCs649FzoMgw5V_4core7convert4FrompE4fromB9_
FN:175,_RNvXININtNtCs9Wvk7SR8Ovp_15hyperlight_host4func14host_functionssd_0ppppppppppppEINtB5_12HostFunctionNtYpNtNtB7_8ret_type10ResultType10ReturnTypeTppppppppppEEINtNtCs649FzoMgw5V_4core7convert4FrompE4fromB9_
FN:175,_RNvXININtNtCs9Wvk7SR8Ovp_15hyperlight_host4func14host_functionsse_0pppppppppppppEINtB5_12HostFunctionNtYpNtNtB7_8ret_type10ResultType10ReturnTypeTpppppppppppEEINtNtCs649FzoMgw5V_4core7convert4FrompE4fromB9_
FN:175,_RNvXININtNtCs9Wvk7SR8Ovp_15hyperlight_host4func14host_functionssf_0ppppppppppppppEINtB5_12HostFunctionNtYpNtNtB7_8ret_type10ResultType10ReturnTypeTppppppppppppEEINtNtCs649FzoMgw5V_4core7convert4FrompE4fromB9_
FN:175,_RNvXININtNtCs9Wvk7SR8Ovp_15hyperlight_host4func14host_functionssg_0pppppppppppppppEINtB5_12HostFunctionNtYpNtNtB7_8ret_type10ResultType10ReturnTypeTpppppppppppppEEINtNtCs649FzoMgw5V_4core7convert4FrompE4fromB9_
FN:175,_RNvXININtNtCs9Wvk7SR8Ovp_15hyperlight_host4func14host_functionssh_0ppppppppppppppppEINtB5_12HostFunctionNtYpNtNtB7_8ret_type10ResultType10ReturnTypeTppppppppppppppEEINtNtCs649FzoMgw5V_4core7convert4FrompE4fromB9_
FN:175,_RNvXININtNtCs9Wvk7SR8Ovp_15hyperlight_host4func14host_functionssi_0pppppppppppppppppEINtB5_12HostFunctionNtYpNtNtB7_8ret_type10ResultType10ReturnTypeTpppppppppppppppEEINtNtCs649FzoMgw5V_4core7convert4FrompE4fromB9_
FN:175,_RNvXININtNtCs9Wvk7SR8Ovp_15hyperlight_host4func14host_functionssj_0ppppppppppppppppppEINtB5_12HostFunctionNtYpNtNtB7_8ret_type10ResultType10ReturnTypeTppppppppppppppppEEINtNtCs649FzoMgw5V_4core7convert4FrompE4fromB9_
FN:175,_RNvXININtNtCs9Wvk7SR8Ovp_15hyperlight_host4func14host_functionssk_0pppppppppppppppppppEINtB5_12HostFunctionNtYpNtNtB7_8ret_type10ResultType10ReturnTypeTpppppppppppppppppEEINtNtCs649FzoMgw5V_4core7convert4FrompE4fromB9_
FN:175,_RNvXININtNtCs9Wvk7SR8Ovp_15hyperlight_host4func14host_functionssl_0ppppppppppppppppppppEINtB5_12HostFunctionNtYpNtNtB7_8ret_type10ResultType10ReturnTypeTppppppppppppppppppEEINtNtCs649FzoMgw5V_4core7convert4FrompE4fromB9_
FN:175,_RNvXININtNtCs9Wvk7SR8Ovp_15hyperlight_host4func14host_functionssm_0pppppppppppppppppppppEINtB5_12HostFunctionNtYpNtNtB7_8ret_type10ResultType10ReturnTypeTpppppppppppppppppppEEINtNtCs649FzoMgw5V_4core7convert4FrompE4fromB9_
FN:175,_RNvXININtNtCs9Wvk7SR8Ovp_15hyperlight_host4func14host_functionssn_0ppppppppppppppppppppppEINtB5_12HostFunctionNtYpNtNtB7_8ret_type10ResultType10ReturnTypeTppppppppppppppppppppEEINtNtCs649FzoMgw5V_4core7convert4FrompE4fromB9_
FN:175,_RNvXININtNtCs9Wvk7SR8Ovp_15hyperlight_host4func14host_functionsso_0pppppppppppppppppppppppEINtB5_12HostFunctionNtYpNtNtB7_8ret_type10ResultType10ReturnTypeTpppppppppppppppppppppEEINtNtCs649FzoMgw5V_4core7convert4FrompE4fromB9_
FN:175,_RNvXININtNtCs9Wvk7SR8Ovp_15hyperlight_host4func14host_functionssp_0ppppppppppppppppppppppppEINtB5_12HostFunctionNtYpNtNtB7_8ret_type10ResultType10ReturnTypeTppppppppppppppppppppppEEINtNtCs649FzoMgw5V_4core7convert4FrompE4fromB9_
FN:175,_RNvXININtNtCs9Wvk7SR8Ovp_15hyperlight_host4func14host_functionssq_0pppppppppppppppppppppppppEINtB5_12HostFunctionNtYpNtNtB7_8ret_type10ResultType10ReturnTypeTpppppppppppppppppppppppEEINtNtCs649FzoMgw5V_4core7convert4FrompE4fromB9_
FN:175,_RNvXININtNtCs9Wvk7SR8Ovp_15hyperlight_host4func14host_functionssr_0ppppppppppppppppppppppppppEINtB5_12HostFunctionNtYpNtNtB7_8ret_type10ResultType10ReturnTypeTppppppppppppppppppppppppEEINtNtCs649FzoMgw5V_4core7convert4FrompE4fromB9_
FN:175,_RNvXININtNtCs9Wvk7SR8Ovp_15hyperlight_host4func14host_functionsss_0pppppppppppppppppppppppppppEINtB5_12HostFunctionNtYpNtNtB7_8ret_type10ResultType10ReturnTypeTpppppppppppppppppppppppppEEINtNtCs649FzoMgw5V_4core7convert4FrompE4fromB9_
FN:175,_RNvXININtNtCs9Wvk7SR8Ovp_15hyperlight_host4func14host_functionsst_0ppppppppppppppppppppppppppppEINtB5_12HostFunctionNtYpNtNtB7_8ret_type10ResultType10ReturnTypeTppppppppppppppppppppppppppEEINtNtCs649FzoMgw5V_4core7convert4FrompE4fromB9_
FN:175,_RNvXININtNtCs9Wvk7SR8Ovp_15hyperlight_host4func14host_functionssu_0pppppppppppppppppppppppppppppEINtB5_12HostFunctionNtYpNtNtB7_8ret_type10ResultType10ReturnTypeTpppppppppppppppppppppppppppEEINtNtCs649FzoMgw5V_4core7convert4FrompE4fromB9_
FN:175,_RNvXININtNtCs9Wvk7SR8Ovp_15hyperlight_host4func14host_functionssv_0ppppppppppppppppppppppppppppppEINtB5_12HostFunctionNtYpNtNtB7_8ret_type10ResultType10ReturnTypeTppppppppppppppppppppppppppppEEINtNtCs649FzoMgw5V_4core7convert4FrompE4fromB9_
FN:175,_RNvXININtNtCs9Wvk7SR8Ovp_15hyperlight_host4func14host_functionssw_0pppppppppppppppppppppppppppppppEINtB5_12HostFunctionNtYpNtNtB7_8ret_type10ResultType10ReturnTypeTpppppppppppppppppppppppppppppEEINtNtCs649FzoMgw5V_4core7convert4FrompE4fromB9_
FN:175,_RNvXININtNtCs9Wvk7SR8Ovp_15hyperlight_host4func14host_functionssx_0ppppppppppppppppppppppppppppppppEINtB5_12HostFunctionNtYpNtNtB7_8ret_type10ResultType10ReturnTypeTppppppppppppppppppppppppppppppEEINtNtCs649FzoMgw5V_4core7convert4FrompE4fromB9_
FN:175,_RNvXININtNtCs9Wvk7SR8Ovp_15hyperlight_host4func14host_functionssy_0pppppppppppppppppppppppppppppppppEINtB5_12HostFunctionNtYpNtNtB7_8ret_type10ResultType10ReturnTypeTpppppppppppppppppppppppppppppppEEINtNtCs649FzoMgw5V_4core7convert4FrompE4fromB9_
FN:175,_RNvXININtNtCs9Wvk7SR8Ovp_15hyperlight_host4func14host_functionssz_0ppppppppppppppppppppppppppppppppppEINtB5_12HostFunctionNtYpNtNtB7_8ret_type10ResultType10ReturnTypeTppppppppppppppppppppppppppppppppEEINtNtCs649FzoMgw5V_4core7convert4FrompE4fromB9_
FN:140,_RNvMs0_NtNtCs9Wvk7SR8Ovp_15hyperlight_host4func14host_functionsNtB5_22TypeErasedHostFunction4call
FNDA:1,_RINvNtNtCsbhnjpcZuJYb_15hyperlight_host4func14host_functions22register_host_functionTNtNtCs7h7qHWfF5BF_5alloc6string6StringElNCNvNtNtNtB6_7sandbox13uninitialized5testss_15test_host_print0EB6_
FNDA:1,_RINvNtNtCsbhnjpcZuJYb_15hyperlight_host4func14host_functions22register_host_functionTNtNtCs7h7qHWfF5BF_5alloc6string6StringElNCNvNtNtNtB6_7sandbox13uninitialized5testss_15test_host_prints1_0EB6_
FNDA:39,_RINvNtNtCsbhnjpcZuJYb_15hyperlight_host4func14host_functions22register_host_functionTNtNtCs7h7qHWfF5BF_5alloc6string6StringElNvNtNtB6_7sandbox10host_funcs19default_writer_funcEB6_
FNDA:1,_RINvNtNtCsbhnjpcZuJYb_15hyperlight_host4func14host_functions22register_host_functionTNtNtCs7h7qHWfF5BF_5alloc6string6StringElNvNvNtNtNtB6_7sandbox13uninitialized5testss_15test_host_print9fn_writerEB6_
FNDA:0,_RINvNtNtCsbhnjpcZuJYb_15hyperlight_host4func14host_functions22register_host_functionTNtNtCs7h7qHWfF5BF_5alloc6string6StringEuNCNvNtNtNtB6_7sandbox13uninitialized5testss_19test_host_functionss3_0EB6_
FNDA:1,_RINvNtNtCsbhnjpcZuJYb_15hyperlight_host4func14host_functions22register_host_functionTlElNCNvNtNtNtB6_7sandbox13uninitialized5testss_19test_host_functionss_0EB6_
FNDA:0,_RINvNtNtCsbhnjpcZuJYb_15hyperlight_host4func14host_functions22register_host_functionTllElNCNvNtNtNtB6_7sandbox13uninitialized5testss_19test_host_functionss1_0EB6_
FNDA:1,_RINvNtNtCsbhnjpcZuJYb_15hyperlight_host4func14host_functions22register_host_functionuxNvNvNtNtNtB6_7sandbox21initialized_multi_use5testss_30violate_seccomp_filters_openat19make_openat_syscallEB6_
FNDA:0,_RINvNtNtCsbhnjpcZuJYb_15hyperlight_host4func14host_functions22register_host_functionuyNvNvNtNtNtB6_7sandbox21initialized_multi_use5testss_28test_violate_seccomp_filters20make_get_pid_syscallEB6_
FNDA:0,_RNCINvNtNtCsbhnjpcZuJYb_15hyperlight_host4func14host_functions22register_host_functionTNtNtCs7h7qHWfF5BF_5alloc6string6StringElNCNvNtNtNtB8_7sandbox13uninitialized5testss_15test_host_print0E0B8_
FNDA:0,_RNCINvNtNtCsbhnjpcZuJYb_15hyperlight_host4func14host_functions22register_host_functionTNtNtCs7h7qHWfF5BF_5alloc6string6StringElNCNvNtNtNtB8_7sandbox13uninitialized5testss_15test_host_prints1_0E0B8_
FNDA:0,_RNCINvNtNtCsbhnjpcZuJYb_15hyperlight_host4func14host_functions22register_host_functionTNtNtCs7h7qHWfF5BF_5alloc6string6StringElNvNtNtB8_7sandbox10host_funcs19default_writer_funcE0B8_
FNDA:0,_RNCINvNtNtCsbhnjpcZuJYb_15hyperlight_host4func14host_functions22register_host_functionTNtNtCs7h7qHWfF5BF_5alloc6string6StringElNvNvNtNtNtB8_7sandbox13uninitialized5testss_15test_host_print9fn_writerE0B8_
FNDA:0,_RNCINvNtNtCsbhnjpcZuJYb_15hyperlight_host4func14host_functions22register_host_functionTNtNtCs7h7qHWfF5BF_5alloc6string6StringEuNCNvNtNtNtB8_7sandbox13uninitialized5testss_19test_host_functionss3_0E0B8_
FNDA:0,_RNCINvNtNtCsbhnjpcZuJYb_15hyperlight_host4func14host_functions22register_host_functionTlElNCNvNtNtNtB8_7sandbox13uninitialized5testss_19test_host_functionss_0E0B8_
FNDA:0,_RNCINvNtNtCsbhnjpcZuJYb_15hyperlight_host4func14host_functions22register_host_functionTllElNCNvNtNtNtB8_7sandbox13uninitialized5testss_19test_host_functionss1_0E0B8_
FNDA:0,_RNCINvNtNtCsbhnjpcZuJYb_15hyperlight_host4func14host_functions22register_host_functionuxNvNvNtNtNtB8_7sandbox21initialized_multi_use5testss_30violate_seccomp_filters_openat19make_openat_syscallE0B8_
FNDA:0,_RNCINvNtNtCsbhnjpcZuJYb_15hyperlight_host4func14host_functions22register_host_functionuyNvNvNtNtNtB8_7sandbox21initialized_multi_use5testss_28test_violate_seccomp_filters20make_get_pid_syscallE0B8_
FNDA:0,_RNCNCNvXs3_NtNtCsbhnjpcZuJYb_15hyperlight_host4func14host_functionsINtB9_12HostFunctionxuEINtNtCs649FzoMgw5V_4core7convert4FromNvNvNtNtNtBd_7sandbox21initialized_multi_use5testss_30violate_seccomp_filters_openat19make_openat_syscallE4froms_00Bd_
FNDA:0,_RNCNCNvXs3_NtNtCsbhnjpcZuJYb_15hyperlight_host4func14host_functionsINtB9_12HostFunctionyuEINtNtCs649FzoMgw5V_4core7convert4FromNvNvNtNtNtBd_7sandbox21initialized_multi_use5testss_28test_violate_seccomp_filters20make_get_pid_syscallE4froms_00Bd_
FNDA:0,_RNCNCNvXs4_NtNtCsbhnjpcZuJYb_15hyperlight_host4func14host_functionsINtB9_12HostFunctionlTNtNtCs7h7qHWfF5BF_5alloc6string6StringEEINtNtCs649FzoMgw5V_4core7convert4FromNCNvNtNtNtBd_7sandbox13uninitialized5testss_15test_host_print0E4froms_00Bd_
FNDA:0,_RNCNCNvXs4_NtNtCsbhnjpcZuJYb_15hyperlight_host4func14host_functionsINtB9_12HostFunctionlTNtNtCs7h7qHWfF5BF_5alloc6string6StringEEINtNtCs649FzoMgw5V_4core7convert4FromNCNvNtNtNtBd_7sandbox13uninitialized5testss_15test_host_prints1_0E4froms_00Bd_
FNDA:0,_RNCNCNvXs4_NtNtCsbhnjpcZuJYb_15hyperlight_host4func14host_functionsINtB9_12HostFunctionlTNtNtCs7h7qHWfF5BF_5alloc6string6StringEEINtNtCs649FzoMgw5V_4core7convert4FromNvNtNtBd_7sandbox10host_funcs19default_writer_funcE4froms_00Bd_
FNDA:0,_RNCNCNvXs4_NtNtCsbhnjpcZuJYb_15hyperlight_host4func14host_functionsINtB9_12HostFunctionlTNtNtCs7h7qHWfF5BF_5alloc6string6StringEEINtNtCs649FzoMgw5V_4core7convert4FromNvNvNtNtNtBd_7sandbox13uninitialized5testss_15test_host_print9fn_writerE4froms_00Bd_
FNDA:0,_RNCNCNvXs4_NtNtCsbhnjpcZuJYb_15hyperlight_host4func14host_functionsINtB9_12HostFunctionlTlEEINtNtCs649FzoMgw5V_4core7convert4FromNCNvNtNtNtBd_7sandbox13uninitialized5testss_19test_host_functionss_0E4froms_00Bd_
FNDA:0,_RNCNCNvXs4_NtNtCsbhnjpcZuJYb_15hyperlight_host4func14host_functionsINtB9_12HostFunctionuTNtNtCs7h7qHWfF5BF_5alloc6string6StringEEINtNtCs649FzoMgw5V_4core7convert4FromNCNvNtNtNtBd_7sandbox13uninitialized5testss_19test_host_functionss3_0E4froms_00Bd_
FNDA:0,_RNCNCNvXs5_NtNtCsbhnjpcZuJYb_15hyperlight_host4func14host_functionsINtB9_12HostFunctionlTllEEINtNtCs649FzoMgw5V_4core7convert4FromNCNvNtNtNtBd_7sandbox13uninitialized5testss_19test_host_functionss1_0E4froms_00Bd_
FNDA:23,_RNCNvXs1_NtNtCsbhnjpcZuJYb_15hyperlight_host4func14host_functionsNtB7_22TypeErasedHostFunctionINtNtCs649FzoMgw5V_4core7convert4FromINtB7_12HostFunctionlTNtNtCs7h7qHWfF5BF_5alloc6string6StringEEE4from0Bb_
FNDA:0,_RNCNvXs1_NtNtCsbhnjpcZuJYb_15hyperlight_host4func14host_functionsNtB7_22TypeErasedHostFunctionINtNtCs649FzoMgw5V_4core7convert4FromINtB7_12HostFunctionlTlEEE4from0Bb_
FNDA:0,_RNCNvXs1_NtNtCsbhnjpcZuJYb_15hyperlight_host4func14host_functionsNtB7_22TypeErasedHostFunctionINtNtCs649FzoMgw5V_4core7convert4FromINtB7_12HostFunctionlTllEEE4from0Bb_
FNDA:0,_RNCNvXs1_NtNtCsbhnjpcZuJYb_15hyperlight_host4func14host_functionsNtB7_22TypeErasedHostFunctionINtNtCs649FzoMgw5V_4core7convert4FromINtB7_12HostFunctionuTNtNtCs7h7qHWfF5BF_5alloc6string6StringEEE4from0Bb_
FNDA:0,_RNCNvXs1_NtNtCsbhnjpcZuJYb_15hyperlight_host4func14host_functionsNtB7_22TypeErasedHostFunctionINtNtCs649FzoMgw5V_4core7convert4FromINtB7_12HostFunctionxuEE4from0Bb_
FNDA:0,_RNCNvXs1_NtNtCsbhnjpcZuJYb_15hyperlight_host4func14host_functionsNtB7_22TypeErasedHostFunctionINtNtCs649FzoMgw5V_4core7convert4FromINtB7_12HostFunctionyuEE4from0Bb_
FNDA:0,_RNCNvXs3_NtNtCsbhnjpcZuJYb_15hyperlight_host4func14host_functionsINtB7_12HostFunctionxuEINtNtCs649FzoMgw5V_4core7convert4FromNvNvNtNtNtBb_7sandbox21initialized_multi_use5testss_30violate_seccomp_filters_openat19make_openat_syscallE4from0Bb_
FNDA:0,_RNCNvXs3_NtNtCsbhnjpcZuJYb_15hyperlight_host4func14host_functionsINtB7_12HostFunctionxuEINtNtCs649FzoMgw5V_4core7convert4FromNvNvNtNtNtBb_7sandbox21initialized_multi_use5testss_30violate_seccomp_filters_openat19make_openat_syscallE4froms_0Bb_
FNDA:0,_RNCNvXs3_NtNtCsbhnjpcZuJYb_15hyperlight_host4func14host_functionsINtB7_12HostFunctionyuEINtNtCs649FzoMgw5V_4core7convert4FromNvNvNtNtNtBb_7sandbox21initialized_multi_use5testss_28test_violate_seccomp_filters20make_get_pid_syscallE4from0Bb_
FNDA:0,_RNCNvXs3_NtNtCsbhnjpcZuJYb_15hyperlight_host4func14host_functionsINtB7_12HostFunctionyuEINtNtCs649FzoMgw5V_4core7convert4FromNvNvNtNtNtBb_7sandbox21initialized_multi_use5testss_28test_violate_seccomp_filters20make_get_pid_syscallE4froms_0Bb_
FNDA:1,_RNCNvXs4_NtNtCsbhnjpcZuJYb_15hyperlight_host4func14host_functionsINtB7_12HostFunctionlTNtNtCs7h7qHWfF5BF_5alloc6string6StringEEINtNtCs649FzoMgw5V_4core7convert4FromNCNvNtNtNtBb_7sandbox13uninitialized5testss_15test_host_print0E4from0Bb_
FNDA:1,_RNCNvXs4_NtNtCsbhnjpcZuJYb_15hyperlight_host4func14host_functionsINtB7_12HostFunctionlTNtNtCs7h7qHWfF5BF_5alloc6string6StringEEINtNtCs649FzoMgw5V_4core7convert4FromNCNvNtNtNtBb_7sandbox13uninitialized5testss_15test_host_print0E4froms_0Bb_
FNDA:1,_RNCNvXs4_NtNtCsbhnjpcZuJYb_15hyperlight_host4func14host_functionsINtB7_12HostFunctionlTNtNtCs7h7qHWfF5BF_5alloc6string6StringEEINtNtCs649FzoMgw5V_4core7convert4FromNCNvNtNtNtBb_7sandbox13uninitialized5testss_15test_host_prints1_0E4from0Bb_
FNDA:1,_RNCNvXs4_NtNtCsbhnjpcZuJYb_15hyperlight_host4func14host_functionsINtB7_12HostFunctionlTNtNtCs7h7qHWfF5BF_5alloc6string6StringEEINtNtCs649FzoMgw5V_4core7convert4FromNCNvNtNtNtBb_7sandbox13uninitialized5testss_15test_host_prints1_0E4froms_0Bb_
FNDA:20,_RNCNvXs4_NtNtCsbhnjpcZuJYb_15hyperlight_host4func14host_functionsINtB7_12HostFunctionlTNtNtCs7h7qHWfF5BF_5alloc6string6StringEEINtNtCs649FzoMgw5V_4core7convert4FromNvNtNtBb_7sandbox10host_funcs19default_writer_funcE4from0Bb_
FNDA:20,_RNCNvXs4_NtNtCsbhnjpcZuJYb_15hyperlight_host4func14host_functionsINtB7_12HostFunctionlTNtNtCs7h7qHWfF5BF_5alloc6string6StringEEINtNtCs649FzoMgw5V_4core7convert4FromNvNtNtBb_7sandbox10host_funcs19default_writer_funcE4froms_0Bb_
FNDA:1,_RNCNvXs4_NtNtCsbhnjpcZuJYb_15hyperlight_host4func14host_functionsINtB7_12HostFunctionlTNtNtCs7h7qHWfF5BF_5alloc6string6StringEEINtNtCs649FzoMgw5V_4core7convert4FromNvNvNtNtNtBb_7sandbox13uninitialized5testss_15test_host_print9fn_writerE4from0Bb_
FNDA:1,_RNCNvXs4_NtNtCsbhnjpcZuJYb_15hyperlight_host4func14host_functionsINtB7_12HostFunctionlTNtNtCs7h7qHWfF5BF_5alloc6string6StringEEINtNtCs649FzoMgw5V_4core7convert4FromNvNvNtNtNtBb_7sandbox13uninitialized5testss_15test_host_print9fn_writerE4froms_0Bb_
FNDA:0,_RNCNvXs4_NtNtCsbhnjpcZuJYb_15hyperlight_host4func14host_functionsINtB7_12HostFunctionlTlEEINtNtCs649FzoMgw5V_4core7convert4FromNCNvNtNtNtBb_7sandbox13uninitialized5testss_19test_host_functionss_0E4from0Bb_
FNDA:0,_RNCNvXs4_NtNtCsbhnjpcZuJYb_15hyperlight_host4func14host_functionsINtB7_12HostFunctionlTlEEINtNtCs649FzoMgw5V_4core7convert4FromNCNvNtNtNtBb_7sandbox13uninitialized5testss_19test_host_functionss_0E4froms_0Bb_
FNDA:0,_RNCNvXs4_NtNtCsbhnjpcZuJYb_15hyperlight_host4func14host_functionsINtB7_12HostFunctionuTNtNtCs7h7qHWfF5BF_5alloc6string6StringEEINtNtCs649FzoMgw5V_4core7convert4FromNCNvNtNtNtBb_7sandbox13uninitialized5testss_19test_host_functionss3_0E4from0Bb_
FNDA:0,_RNCNvXs4_NtNtCsbhnjpcZuJYb_15hyperlight_host4func14host_functionsINtB7_12HostFunctionuTNtNtCs7h7qHWfF5BF_5alloc6string6StringEEINtNtCs649FzoMgw5V_4core7convert4FromNCNvNtNtNtBb_7sandbox13uninitialized5testss_19test_host_functionss3_0E4froms_0Bb_
FNDA:0,_RNCNvXs5_NtNtCsbhnjpcZuJYb_15hyperlight_host4func14host_functionsINtB7_12HostFunctionlTllEEINtNtCs649FzoMgw5V_4core7convert4FromNCNvNtNtNtBb_7sandbox13uninitialized5testss_19test_host_functionss1_0E4from0Bb_
FNDA:0,_RNCNvXs5_NtNtCsbhnjpcZuJYb_15hyperlight_host4func14host_functionsINtB7_12HostFunctionlTllEEINtNtCs649FzoMgw5V_4core7convert4FromNCNvNtNtNtBb_7sandbox13uninitialized5testss_19test_host_functionss1_0E4froms_0Bb_
FNDA:23,_RNvMs0_NtNtCsbhnjpcZuJYb_15hyperlight_host4func14host_functionsNtB5_22TypeErasedHostFunction4call
FNDA:23,_RNvMs_NtNtCsbhnjpcZuJYb_15hyperlight_host4func14host_functionsINtB4_12HostFunctionlTNtNtCs7h7qHWfF5BF_5alloc6string6StringEE4callB8_
FNDA:0,_RNvMs_NtNtCsbhnjpcZuJYb_15hyperlight_host4func14host_functionsINtB4_12HostFunctionlTlEE4callB8_
FNDA:0,_RNvMs_NtNtCsbhnjpcZuJYb_15hyperlight_host4func14host_functionsINtB4_12HostFunctionlTllEE4callB8_
FNDA:0,_RNvMs_NtNtCsbhnjpcZuJYb_15hyperlight_host4func14host_functionsINtB4_12HostFunctionuTNtNtCs7h7qHWfF5BF_5alloc6string6StringEE4callB8_
FNDA:0,_RNvMs_NtNtCsbhnjpcZuJYb_15hyperlight_host4func14host_functionsINtB4_12HostFunctionxuE4callB8_
FNDA:0,_RNvMs_NtNtCsbhnjpcZuJYb_15hyperlight_host4func14host_functionsINtB4_12HostFunctionyuE4callB8_
FNDA:42,_RNvXs1_NtNtCsbhnjpcZuJYb_15hyperlight_host4func14host_functionsNtB5_22TypeErasedHostFunctionINtNtCs649FzoMgw5V_4core7convert4FromINtB5_12HostFunctionlTNtNtCs7h7qHWfF5BF_5alloc6string6StringEEE4fromB9_
FNDA:1,_RNvXs1_NtNtCsbhnjpcZuJYb_15hyperlight_host4func14host_functionsNtB5_22TypeErasedHostFunctionINtNtCs649FzoMgw5V_4core7convert4FromINtB5_12HostFunctionlTlEEE4fromB9_
FNDA:0,_RNvXs1_NtNtCsbhnjpcZuJYb_15hyperlight_host4func14host_functionsNtB5_22TypeErasedHostFunctionINtNtCs649FzoMgw5V_4core7convert4FromINtB5_12HostFunctionlTllEEE4fromB9_
FNDA:0,_RNvXs1_NtNtCsbhnjpcZuJYb_15hyperlight_host4func14host_functionsNtB5_22TypeErasedHostFunctionINtNtCs649FzoMgw5V_4core7convert4FromINtB5_12HostFunctionuTNtNtCs7h7qHWfF5BF_5alloc6string6StringEEE4fromB9_
FNDA:1,_RNvXs1_NtNtCsbhnjpcZuJYb_15hyperlight_host4func14host_functionsNtB5_22TypeErasedHostFunctionINtNtCs649FzoMgw5V_4core7convert4FromINtB5_12HostFunctionxuEE4fromB9_
FNDA:0,_RNvXs1_NtNtCsbhnjpcZuJYb_15hyperlight_host4func14host_functionsNtB5_22TypeErasedHostFunctionINtNtCs649FzoMgw5V_4core7convert4FromINtB5_12HostFunctionyuEE4fromB9_
FNDA:1,_RNvXs3_NtNtCsbhnjpcZuJYb_15hyperlight_host4func14host_functionsINtB5_12HostFunctionxuEINtNtCs649FzoMgw5V_4core7convert4FromNvNvNtNtNtB9_7sandbox21initialized_multi_use5testss_30violate_seccomp_filters_openat19make_openat_syscallE4fromB9_
FNDA:0,_RNvXs3_NtNtCsbhnjpcZuJYb_15hyperlight_host4func14host_functionsINtB5_12HostFunctionyuEINtNtCs649FzoMgw5V_4core7convert4FromNvNvNtNtNtB9_7sandbox21initialized_multi_use5testss_28test_violate_seccomp_filters20make_get_pid_syscallE4fromB9_
FNDA:1,_RNvXs4_NtNtCsbhnjpcZuJYb_15hyperlight_host4func14host_functionsINtB5_12HostFunctionlTNtNtCs7h7qHWfF5BF_5alloc6string6StringEEINtNtCs649FzoMgw5V_4core7convert4FromNCNvNtNtNtB9_7sandbox13uninitialized5testss_15test_host_print0E4fromB9_
FNDA:1,_RNvXs4_NtNtCsbhnjpcZuJYb_15hyperlight_host4func14host_functionsINtB5_12HostFunctionlTNtNtCs7h7qHWfF5BF_5alloc6string6StringEEINtNtCs649FzoMgw5V_4core7convert4FromNCNvNtNtNtB9_7sandbox13uninitialized5testss_15test_host_prints1_0E4fromB9_
FNDA:39,_RNvXs4_NtNtCsbhnjpcZuJYb_15hyperlight_host4func14host_functionsINtB5_12HostFunctionlTNtNtCs7h7qHWfF5BF_5alloc6string6StringEEINtNtCs649FzoMgw5V_4core7convert4FromNvNtNtB9_7sandbox10host_funcs19default_writer_funcE4fromB9_
FNDA:1,_RNvXs4_NtNtCsbhnjpcZuJYb_15hyperlight_host4func14host_functionsINtB5_12HostFunctionlTNtNtCs7h7qHWfF5BF_5alloc6string6StringEEINtNtCs649FzoMgw5V_4core7convert4FromNvNvNtNtNtB9_7sandbox13uninitialized5testss_15test_host_print9fn_writerE4fromB9_
FNDA:1,_RNvXs4_NtNtCsbhnjpcZuJYb_15hyperlight_host4func14host_functionsINtB5_12HostFunctionlTlEEINtNtCs649FzoMgw5V_4core7convert4FromNCNvNtNtNtB9_7sandbox13uninitialized5testss_19test_host_functionss_0E4fromB9_
FNDA:0,_RNvXs4_NtNtCsbhnjpcZuJYb_15hyperlight_host4func14host_functionsINtB5_12HostFunctionuTNtNtCs7h7qHWfF5BF_5alloc6string6StringEEINtNtCs649FzoMgw5V_4core7convert4FromNCNvNtNtNtB9_7sandbox13uninitialized5testss_19test_host_functionss3_0E4fromB9_
FNDA:0,_RNvXs5_NtNtCsbhnjpcZuJYb_15hyperlight_host4func14host_functionsINtB5_12HostFunctionlTllEEINtNtCs649FzoMgw5V_4core7convert4FromNCNvNtNtNtB9_7sandbox13uninitialized5testss_19test_host_functionss1_0E4fromB9_
FNDA:0,_RINvXNtNtCsbhnjpcZuJYb_15hyperlight_host4func14host_functionsNtNtNtB7_7sandbox13uninitialized20UninitializedSandboxNtB3_12Registerable22register_host_functionpppEB7_
FNDA:0,_RINvXNtNtCsbhnjpcZuJYb_15hyperlight_host4func14host_functionsNtNtNtB7_7sandbox13uninitialized20UninitializedSandboxNtB3_12Registerable36register_host_function_with_syscallspppEB7_
FNDA:0,_RNCINvXNtNtCsbhnjpcZuJYb_15hyperlight_host4func14host_functionsNtNtNtB9_7sandbox13uninitialized20UninitializedSandboxNtB5_12Registerable22register_host_functionpppE0B9_
FNDA:0,_RNCINvXNtNtCsbhnjpcZuJYb_15hyperlight_host4func14host_functionsNtNtNtB9_7sandbox13uninitialized20UninitializedSandboxNtB5_12Registerable36register_host_function_with_syscallspppE0B9_
FNDA:0,_RNCNCNvXININtNtCsbhnjpcZuJYb_15hyperlight_host4func14host_functionss6_0pppppEINtB9_12HostFunctionNtYpNtNtBb_8ret_type10ResultType10ReturnTypeTpppEEINtNtCs649FzoMgw5V_4core7convert4FrompE4froms_00Bd_
FNDA:0,_RNCNCNvXININtNtCsbhnjpcZuJYb_15hyperlight_host4func14host_functionss7_0ppppppEINtB9_12HostFunctionNtYpNtNtBb_8ret_type10ResultType10ReturnTypeTppppEEINtNtCs649FzoMgw5V_4core7convert4FrompE4froms_00Bd_
FNDA:0,_RNCNCNvXININtNtCsbhnjpcZuJYb_15hyperlight_host4func14host_functionss8_0pppppppEINtB9_12HostFunctionNtYpNtNtBb_8ret_type10ResultType10ReturnTypeTpppppEEINtNtCs649FzoMgw5V_4core7convert4FrompE4froms_00Bd_
FNDA:0,_RNCNCNvXININtNtCsbhnjpcZuJYb_15hyperlight_host4func14host_functionss9_0ppppppppEINtB9_12HostFunctionNtYpNtNtBb_8ret_type10ResultType10ReturnTypeTppppppEEINtNtCs649FzoMgw5V_4core7convert4FrompE4froms_00Bd_
FNDA:0,_RNCNCNvXININtNtCsbhnjpcZuJYb_15hyperlight_host4func14host_functionssa_0pppppppppEINtB9_12HostFunctionNtYpNtNtBb_8ret_type10ResultType10ReturnTypeTpppppppEEINtNtCs649FzoMgw5V_4core7convert4FrompE4froms_00Bd_
FNDA:0,_RNCNCNvXININtNtCsbhnjpcZuJYb_15hyperlight_host4func14host_functionssb_0ppppppppppEINtB9_12HostFunctionNtYpNtNtBb_8ret_type10ResultType10ReturnTypeTppppppppEEINtNtCs649FzoMgw5V_4core7convert4FrompE4froms_00Bd_
FNDA:0,_RNCNCNvXININtNtCsbhnjpcZuJYb_15hyperlight_host4func14host_functionssc_0pppppppppppEINtB9_12HostFunctionNtYpNtNtBb_8ret_type10ResultType10ReturnTypeTpppppppppEEINtNtCs649FzoMgw5V_4core7convert4FrompE4froms_00Bd_
FNDA:0,_RNCNCNvXININtNtCsbhnjpcZuJYb_15hyperlight_host4func14host_functionssd_0ppppppppppppEINtB9_12HostFunctionNtYpNtNtBb_8ret_type10ResultType10ReturnTypeTppppppppppEEINtNtCs649FzoMgw5V_4core7convert4FrompE4froms_00Bd_
FNDA:0,_RNCNCNvXININtNtCsbhnjpcZuJYb_15hyperlight_host4func14host_functionsse_0pppppppppppppEINtB9_12HostFunctionNtYpNtNtBb_8ret_type10ResultType10ReturnTypeTpppppppppppEEINtNtCs649FzoMgw5V_4core7convert4FrompE4froms_00Bd_
FNDA:0,_RNCNCNvXININtNtCsbhnjpcZuJYb_15hyperlight_host4func14host_functionssf_0ppppppppppppppEINtB9_12HostFunctionNtYpNtNtBb_8ret_type10ResultType10ReturnTypeTppppppppppppEEINtNtCs649FzoMgw5V_4core7convert4FrompE4froms_00Bd_
FNDA:0,_RNCNCNvXININtNtCsbhnjpcZuJYb_15hyperlight_host4func14host_functionssg_0pppppppppppppppEINtB9_12HostFunctionNtYpNtNtBb_8ret_type10ResultType10ReturnTypeTpppppppppppppEEINtNtCs649FzoMgw5V_4core7convert4FrompE4froms_00Bd_
FNDA:0,_RNCNCNvXININtNtCsbhnjpcZuJYb_15hyperlight_host4func14host_functionssh_0ppppppppppppppppEINtB9_12HostFunctionNtYpNtNtBb_8ret_type10ResultType10ReturnTypeTppppppppppppppEEINtNtCs649FzoMgw5V_4core7convert4FrompE4froms_00Bd_
FNDA:0,_RNCNCNvXININtNtCsbhnjpcZuJYb_15hyperlight_host4func14host_functionssi_0pppppppppppppppppEINtB9_12HostFunctionNtYpNtNtBb_8ret_type10ResultType10ReturnTypeTpppppppppppppppEEINtNtCs649FzoMgw5V_4core7convert4FrompE4froms_00Bd_
FNDA:0,_RNCNCNvXININtNtCsbhnjpcZuJYb_15hyperlight_host4func14host_functionssj_0ppppppppppppppppppEINtB9_12HostFunctionNtYpNtNtBb_8ret_type10ResultType10ReturnTypeTppppppppppppppppEEINtNtCs649FzoMgw5V_4core7convert4FrompE4froms_00Bd_
FNDA:0,_RNCNCNvXININtNtCsbhnjpcZuJYb_15hyperlight_host4func14host_functionssk_0pppppppppppppppppppEINtB9_12HostFunctionNtYpNtNtBb_8ret_type10ResultType10ReturnTypeTpppppppppppppppppEEINtNtCs649FzoMgw5V_4core7convert4FrompE4froms_00Bd_
FNDA:0,_RNCNCNvXININtNtCsbhnjpcZuJYb_15hyperlight_host4func14host_functionssl_0ppppppppppppppppppppEINtB9_12HostFunctionNtYpNtNtBb_8ret_type10ResultType10ReturnTypeTppppppppppppppppppEEINtNtCs649FzoMgw5V_4core7convert4FrompE4froms_00Bd_
FNDA:0,_RNCNCNvXININtNtCsbhnjpcZuJYb_15hyperlight_host4func14host_functionssm_0pppppppppppppppppppppEINtB9_12HostFunctionNtYpNtNtBb_8ret_type10ResultType10ReturnTypeTpppppppppppppppppppEEINtNtCs649FzoMgw5V_4core7convert4FrompE4froms_00Bd_
FNDA:0,_RNCNCNvXININtNtCsbhnjpcZuJYb_15hyperlight_host4func14host_functionssn_0ppppppppppppppppppppppEINtB9_12HostFunctionNtYpNtNtBb_8ret_type10ResultType10ReturnTypeTppppppppppppppppppppEEINtNtCs649FzoMgw5V_4core7convert4FrompE4froms_00Bd_
FNDA:0,_RNCNCNvXININtNtCsbhnjpcZuJYb_15hyperlight_host4func14host_functionsso_0pppppppppppppppppppppppEINtB9_12HostFunctionNtYpNtNtBb_8ret_type10ResultType10ReturnTypeTpppppppppppppppppppppEEINtNtCs649FzoMgw5V_4core7convert4FrompE4froms_00Bd_
FNDA:0,_RNCNCNvXININtNtCsbhnjpcZuJYb_15hyperlight_host4func14host_functionssp_0ppppppppppppppppppppppppEINtB9_12HostFunctionNtYpNtNtBb_8ret_type10ResultType10ReturnTypeTppppppppppppppppppppppEEINtNtCs649FzoMgw5V_4core7convert4FrompE4froms_00Bd_
FNDA:0,_RNCNCNvXININtNtCsbhnjpcZuJYb_15hyperlight_host4func14host_functionssq_0pppppppppppppppppppppppppEINtB9_12HostFunctionNtYpNtNtBb_8ret_type10ResultType10ReturnTypeTpppppppppppppppppppppppEEINtNtCs649FzoMgw5V_4core7convert4FrompE4froms_00Bd_
FNDA:0,_RNCNCNvXININtNtCsbhnjpcZuJYb_15hyperlight_host4func14host_functionssr_0ppppppppppppppppppppppppppEINtB9_12HostFunctionNtYpNtNtBb_8ret_type10ResultType10ReturnTypeTppppppppppppppppppppppppEEINtNtCs649FzoMgw5V_4core7convert4FrompE4froms_00Bd_
FNDA:0,_RNCNCNvXININtNtCsbhnjpcZuJYb_15hyperlight_host4func14host_functionsss_0pppppppppppppppppppppppppppEINtB9_12HostFunctionNtYpNtNtBb_8ret_type10ResultType10ReturnTypeTpppppppppppppppppppppppppEEINtNtCs649FzoMgw5V_4core7convert4FrompE4froms_00Bd_
FNDA:0,_RNCNCNvXININtNtCsbhnjpcZuJYb_15hyperlight_host4func14host_functionsst_0ppppppppppppppppppppppppppppEINtB9_12HostFunctionNtYpNtNtBb_8ret_type10ResultType10ReturnTypeTppppppppppppppppppppppppppEEINtNtCs649FzoMgw5V_4core7convert4FrompE4froms_00Bd_
FNDA:0,_RNCNCNvXININtNtCsbhnjpcZuJYb_15hyperlight_host4func14host_functionssu_0pppppppppppppppppppppppppppppEINtB9_12HostFunctionNtYpNtNtBb_8ret_type10ResultType10ReturnTypeTpppppppppppppppppppppppppppEEINtNtCs649FzoMgw5V_4core7convert4FrompE4froms_00Bd_
FNDA:0,_RNCNCNvXININtNtCsbhnjpcZuJYb_15hyperlight_host4func14host_functionssv_0ppppppppppppppppppppppppppppppEINtB9_12HostFunctionNtYpNtNtBb_8ret_type10ResultType10ReturnTypeTppppppppppppppppppppppppppppEEINtNtCs649FzoMgw5V_4core7convert4FrompE4froms_00Bd_
FNDA:0,_RNCNCNvXININtNtCsbhnjpcZuJYb_15hyperlight_host4func14host_functionssw_0pppppppppppppppppppppppppppppppEINtB9_12HostFunctionNtYpNtNtBb_8ret_type10ResultType10ReturnTypeTpppppppppppppppppppppppppppppEEINtNtCs649FzoMgw5V_4core7convert4FrompE4froms_00Bd_
FNDA:0,_RNCNCNvXININtNtCsbhnjpcZuJYb_15hyperlight_host4func14host_functionssx_0ppppppppppppppppppppppppppppppppEINtB9_12HostFunctionNtYpNtNtBb_8ret_type10ResultType10ReturnTypeTppppppppppppppppppppppppppppppEEINtNtCs649FzoMgw5V_4core7convert4FrompE4froms_00Bd_
FNDA:0,_RNCNCNvXININtNtCsbhnjpcZuJYb_15hyperlight_host4func14host_functionssy_0pppppppppppppppppppppppppppppppppEINtB9_12HostFunctionNtYpNtNtBb_8ret_type10ResultType10ReturnTypeTpppppppppppppppppppppppppppppppEEINtNtCs649FzoMgw5V_4core7convert4FrompE4froms_00Bd_
FNDA:0,_RNCNCNvXININtNtCsbhnjpcZuJYb_15hyperlight_host4func14host_functionssz_0ppppppppppppppppppppppppppppppppppEINtB9_12HostFunctionNtYpNtNtBb_8ret_type10ResultType10ReturnTypeTppppppppppppppppppppppppppppppppEEINtNtCs649FzoMgw5V_4core7convert4FrompE4froms_00Bd_
FNDA:0,_RNCNvXININtNtCsbhnjpcZuJYb_15hyperlight_host4func14host_functionss6_0pppppEINtB7_12HostFunctionNtYpNtNtB9_8ret_type10ResultType10ReturnTypeTpppEEINtNtCs649FzoMgw5V_4core7convert4FrompE4from0Bb_
FNDA:0,_RNCNvXININtNtCsbhnjpcZuJYb_15hyperlight_host4func14host_functionss6_0pppppEINtB7_12HostFunctionNtYpNtNtB9_8ret_type10ResultType10ReturnTypeTpppEEINtNtCs649FzoMgw5V_4core7convert4FrompE4froms_0Bb_
FNDA:0,_RNCNvXININtNtCsbhnjpcZuJYb_15hyperlight_host4func14host_functionss7_0ppppppEINtB7_12HostFunctionNtYpNtNtB9_8ret_type10ResultType10ReturnTypeTppppEEINtNtCs649FzoMgw5V_4core7convert4FrompE4from0Bb_
FNDA:0,_RNCNvXININtNtCsbhnjpcZuJYb_15hyperlight_host4func14host_functionss7_0ppppppEINtB7_12HostFunctionNtYpNtNtB9_8ret_type10ResultType10ReturnTypeTppppEEINtNtCs649FzoMgw5V_4core7convert4FrompE4froms_0Bb_
FNDA:0,_RNCNvXININtNtCsbhnjpcZuJYb_15hyperlight_host4func14host_functionss8_0pppppppEINtB7_12HostFunctionNtYpNtNtB9_8ret_type10ResultType10ReturnTypeTpppppEEINtNtCs649FzoMgw5V_4core7convert4FrompE4from0Bb_
FNDA:0,_RNCNvXININtNtCsbhnjpcZuJYb_15hyperlight_host4func14host_functionss8_0pppppppEINtB7_12HostFunctionNtYpNtNtB9_8ret_type10ResultType10ReturnTypeTpppppEEINtNtCs649FzoMgw5V_4core7convert4FrompE4froms_0Bb_
FNDA:0,_RNCNvXININtNtCsbhnjpcZuJYb_15hyperlight_host4func14host_functionss9_0ppppppppEINtB7_12HostFunctionNtYpNtNtB9_8ret_type10ResultType10ReturnTypeTppppppEEINtNtCs649FzoMgw5V_4core7convert4FrompE4from0Bb_
FNDA:0,_RNCNvXININtNtCsbhnjpcZuJYb_15hyperlight_host4func14host_functionss9_0ppppppppEINtB7_12HostFunctionNtYpNtNtB9_8ret_type10ResultType10ReturnTypeTppppppEEINtNtCs649FzoMgw5V_4core7convert4FrompE4froms_0Bb_
FNDA:0,_RNCNvXININtNtCsbhnjpcZuJYb_15hyperlight_host4func14host_functionssa_0pppppppppEINtB7_12HostFunctionNtYpNtNtB9_8ret_type10ResultType10ReturnTypeTpppppppEEINtNtCs649FzoMgw5V_4core7convert4FrompE4from0Bb_
FNDA:0,_RNCNvXININtNtCsbhnjpcZuJYb_15hyperlight_host4func14host_functionssa_0pppppppppEINtB7_12HostFunctionNtYpNtNtB9_8ret_type10ResultType10ReturnTypeTpppppppEEINtNtCs649FzoMgw5V_4core7convert4FrompE4froms_0Bb_
FNDA:0,_RNCNvXININtNtCsbhnjpcZuJYb_15hyperlight_host4func14host_functionssb_0ppppppppppEINtB7_12HostFunctionNtYpNtNtB9_8ret_type10ResultType10ReturnTypeTppppppppEEINtNtCs649FzoMgw5V_4core7convert4FrompE4from0Bb_
FNDA:0,_RNCNvXININtNtCsbhnjpcZuJYb_15hyperlight_host4func14host_functionssb_0ppppppppppEINtB7_12HostFunctionNtYpNtNtB9_8ret_type10ResultType10ReturnTypeTppppppppEEINtNtCs649FzoMgw5V_4core7convert4FrompE4froms_0Bb_
FNDA:0,_RNCNvXININtNtCsbhnjpcZuJYb_15hyperlight_host4func14host_functionssc_0pppppppppppEINtB7_12HostFunctionNtYpNtNtB9_8ret_type10ResultType10ReturnTypeTpppppppppEEINtNtCs649FzoMgw5V_4core7convert4FrompE4from0Bb_
FNDA:0,_RNCNvXININtNtCsbhnjpcZuJYb_15hyperlight_host4func14host_functionssc_0pppppppppppEINtB7_12HostFunctionNtYpNtNtB9_8ret_type10ResultType10ReturnTypeTpppppppppEEINtNtCs649FzoMgw5V_4core7convert4FrompE4froms_0Bb_
FNDA:0,_RNCNvXININtNtCsbhnjpcZuJYb_15hyperlight_host4func14host_functionssd_0ppppppppppppEINtB7_12HostFunctionNtYpNtNtB9_8ret_type10ResultType10ReturnTypeTppppppppppEEINtNtCs649FzoMgw5V_4core7convert4FrompE4from0Bb_
FNDA:0,_RNCNvXININtNtCsbhnjpcZuJYb_15hyperlight_host4func14host_functionssd_0ppppppppppppEINtB7_12HostFunctionNtYpNtNtB9_8ret_type10ResultType10ReturnTypeTppppppppppEEINtNtCs649FzoMgw5V_4core7convert4FrompE4froms_0Bb_
FNDA:0,_RNCNvXININtNtCsbhnjpcZuJYb_15hyperlight_host4func14host_functionsse_0pppppppppppppEINtB7_12HostFunctionNtYpNtNtB9_8ret_type10ResultType10ReturnTypeTpppppppppppEEINtNtCs649FzoMgw5V_4core7convert4FrompE4from0Bb_
FNDA:0,_RNCNvXININtNtCsbhnjpcZuJYb_15hyperlight_host4func14host_functionsse_0pppppppppppppEINtB7_12HostFunctionNtYpNtNtB9_8ret_type10ResultType10ReturnTypeTpppppppppppEEINtNtCs649FzoMgw5V_4core7convert4FrompE4froms_0Bb_
FNDA:0,_RNCNvXININtNtCsbhnjpcZuJYb_15hyperlight_host4func14host_functionssf_0ppppppppppppppEINtB7_12HostFunctionNtYpNtNtB9_8ret_type10ResultType10ReturnTypeTppppppppppppEEINtNtCs649FzoMgw5V_4core7convert4FrompE4from0Bb_
FNDA:0,_RNCNvXININtNtCsbhnjpcZuJYb_15hyperlight_host4func14host_functionssf_0ppppppppppppppEINtB7_12HostFunctionNtYpNtNtB9_8ret_type10ResultType10ReturnTypeTppppppppppppEEINtNtCs649FzoMgw5V_4core7convert4FrompE4froms_0Bb_
FNDA:0,_RNCNvXININtNtCsbhnjpcZuJYb_15hyperlight_host4func14host_functionssg_0pppppppppppppppEINtB7_12HostFunctionNtYpNtNtB9_8ret_type10ResultType10ReturnTypeTpppppppppppppEEINtNtCs649FzoMgw5V_4core7convert4FrompE4from0Bb_
FNDA:0,_RNCNvXININtNtCsbhnjpcZuJYb_15hyperlight_host4func14host_functionssg_0pppppppppppppppEINtB7_12HostFunctionNtYpNtNtB9_8ret_type10ResultType10ReturnTypeTpppppppppppppEEINtNtCs649FzoMgw5V_4core7convert4FrompE4froms_0Bb_
FNDA:0,_RNCNvXININtNtCsbhnjpcZuJYb_15hyperlight_host4func14host_functionssh_0ppppppppppppppppEINtB7_12HostFunctionNtYpNtNtB9_8ret_type10ResultType10ReturnTypeTppppppppppppppEEINtNtCs649FzoMgw5V_4core7convert4FrompE4from0Bb_
FNDA:0,_RNCNvXININtNtCsbhnjpcZuJYb_15hyperlight_host4func14host_functionssh_0ppppppppppppppppEINtB7_12HostFunctionNtYpNtNtB9_8ret_type10ResultType10ReturnTypeTppppppppppppppEEINtNtCs649FzoMgw5V_4core7convert4FrompE4froms_0Bb_
FNDA:0,_RNCNvXININtNtCsbhnjpcZuJYb_15hyperlight_host4func14host_functionssi_0pppppppppppppppppEINtB7_12HostFunctionNtYpNtNtB9_8ret_type10ResultType10ReturnTypeTpppppppppppppppEEINtNtCs649FzoMgw5V_4core7convert4FrompE4from0Bb_
FNDA:0,_RNCNvXININtNtCsbhnjpcZuJYb_15hyperlight_host4func14host_functionssi_0pppppppppppppppppEINtB7_12HostFunctionNtYpNtNtB9_8ret_type10ResultType10ReturnTypeTpppppppppppppppEEINtNtCs649FzoMgw5V_4core7convert4FrompE4froms_0Bb_
FNDA:0,_RNCNvXININtNtCsbhnjpcZuJYb_15hyperlight_host4func14host_functionssj_0ppppppppppppppppppEINtB7_12HostFunctionNtYpNtNtB9_8ret_type10ResultType10ReturnTypeTppppppppppppppppEEINtNtCs649FzoMgw5V_4core7convert4FrompE4from0Bb_
FNDA:0,_RNCNvXININtNtCsbhnjpcZuJYb_15hyperlight_host4func14host_functionssj_0ppppppppppppppppppEINtB7_12HostFunctionNtYpNtNtB9_8ret_type10ResultType10ReturnTypeTppppppppppppppppEEINtNtCs649FzoMgw5V_4core7convert4FrompE4froms_0Bb_
FNDA:0,_RNCNvXININtNtCsbhnjpcZuJYb_15hyperlight_host4func14host_functionssk_0pppppppppppppppppppEINtB7_12HostFunctionNtYpNtNtB9_8ret_type10ResultType10ReturnTypeTpppppppppppppppppEEINtNtCs649FzoMgw5V_4core7convert4FrompE4from0Bb_
FNDA:0,_RNCNvXININtNtCsbhnjpcZuJYb_15hyperlight_host4func14host_functionssk_0pppppppppppppppppppEINtB7_12HostFunctionNtYpNtNtB9_8ret_type10ResultType10ReturnTypeTpppppppppppppppppEEINtNtCs649FzoMgw5V_4core7convert4FrompE4froms_0Bb_
FNDA:0,_RNCNvXININtNtCsbhnjpcZuJYb_15hyperlight_host4func14host_functionssl_0ppppppppppppppppppppEINtB7_12HostFunctionNtYpNtNtB9_8ret_type10ResultType10ReturnTypeTppppppppppppppppppEEINtNtCs649FzoMgw5V_4core7convert4FrompE4from0Bb_
FNDA:0,_RNCNvXININtNtCsbhnjpcZuJYb_15hyperlight_host4func14host_functionssl_0ppppppppppppppppppppEINtB7_12HostFunctionNtYpNtNtB9_8ret_type10ResultType10ReturnTypeTppppppppppppppppppEEINtNtCs649FzoMgw5V_4core7convert4FrompE4froms_0Bb_
FNDA:0,_RNCNvXININtNtCsbhnjpcZuJYb_15hyperlight_host4func14host_functionssm_0pppppppppppppppppppppEINtB7_12HostFunctionNtYpNtNtB9_8ret_type10ResultType10ReturnTypeTpppppppppppppppppppEEINtNtCs649FzoMgw5V_4core7convert4FrompE4from0Bb_
FNDA:0,_RNCNvXININtNtCsbhnjpcZuJYb_15hyperlight_host4func14host_functionssm_0pppppppppppppppppppppEINtB7_12HostFunctionNtYpNtNtB9_8ret_type10ResultType10ReturnTypeTpppppppppppppppppppEEINtNtCs649FzoMgw5V_4core7convert4FrompE4froms_0Bb_
FNDA:0,_RNCNvXININtNtCsbhnjpcZuJYb_15hyperlight_host4func14host_functionssn_0ppppppppppppppppppppppEINtB7_12HostFunctionNtYpNtNtB9_8ret_type10ResultType10ReturnTypeTppppppppppppppppppppEEINtNtCs649FzoMgw5V_4core7convert4FrompE4from0Bb_
FNDA:0,_RNCNvXININtNtCsbhnjpcZuJYb_15hyperlight_host4func14host_functionssn_0ppppppppppppppppppppppEINtB7_12HostFunctionNtYpNtNtB9_8ret_type10ResultType10ReturnTypeTppppppppppppppppppppEEINtNtCs649FzoMgw5V_4core7convert4FrompE4froms_0Bb_
FNDA:0,_RNCNvXININtNtCsbhnjpcZuJYb_15hyperlight_host4func14host_functionsso_0pppppppppppppppppppppppEINtB7_12HostFunctionNtYpNtNtB9_8ret_type10ResultType10ReturnTypeTpppppppppppppppppppppEEINtNtCs649FzoMgw5V_4core7convert4FrompE4from0Bb_
FNDA:0,_RNCNvXININtNtCsbhnjpcZuJYb_15hyperlight_host4func14host_functionsso_0pppppppppppppppppppppppEINtB7_12HostFunctionNtYpNtNtB9_8ret_type10ResultType10ReturnTypeTpppppppppppppppppppppEEINtNtCs649FzoMgw5V_4core7convert4FrompE4froms_0Bb_
FNDA:0,_RNCNvXININtNtCsbhnjpcZuJYb_15hyperlight_host4func14host_functionssp_0ppppppppppppppppppppppppEINtB7_12HostFunctionNtYpNtNtB9_8ret_type10ResultType10ReturnTypeTppppppppppppppppppppppEEINtNtCs649FzoMgw5V_4core7convert4FrompE4from0Bb_
FNDA:0,_RNCNvXININtNtCsbhnjpcZuJYb_15hyperlight_host4func14host_functionssp_0ppppppppppppppppppppppppEINtB7_12HostFunctionNtYpNtNtB9_8ret_type10ResultType10ReturnTypeTppppppppppppppppppppppEEINtNtCs649FzoMgw5V_4core7convert4FrompE4froms_0Bb_
FNDA:0,_RNCNvXININtNtCsbhnjpcZuJYb_15hyperlight_host4func14host_functionssq_0pppppppppppppppppppppppppEINtB7_12HostFunctionNtYpNtNtB9_8ret_type10ResultType10ReturnTypeTpppppppppppppppppppppppEEINtNtCs649FzoMgw5V_4core7convert4FrompE4from0Bb_
FNDA:0,_RNCNvXININtNtCsbhnjpcZuJYb_15hyperlight_host4func14host_functionssq_0pppppppppppppppppppppppppEINtB7_12HostFunctionNtYpNtNtB9_8ret_type10ResultType10ReturnTypeTpppppppppppppppppppppppEEINtNtCs649FzoMgw5V_4core7convert4FrompE4froms_0Bb_
FNDA:0,_RNCNvXININtNtCsbhnjpcZuJYb_15hyperlight_host4func14host_functionssr_0ppppppppppppppppppppppppppEINtB7_12HostFunctionNtYpNtNtB9_8ret_type10ResultType10ReturnTypeTppppppppppppppppppppppppEEINtNtCs649FzoMgw5V_4core7convert4FrompE4from0Bb_
FNDA:0,_RNCNvXININtNtCsbhnjpcZuJYb_15hyperlight_host4func14host_functionssr_0ppppppppppppppppppppppppppEINtB7_12HostFunctionNtYpNtNtB9_8ret_type10ResultType10ReturnTypeTppppppppppppppppppppppppEEINtNtCs649FzoMgw5V_4core7convert4FrompE4froms_0Bb_
FNDA:0,_RNCNvXININtNtCsbhnjpcZuJYb_15hyperlight_host4func14host_functionsss_0pppppppppppppppppppppppppppEINtB7_12HostFunctionNtYpNtNtB9_8ret_type10ResultType10ReturnTypeTpppppppppppppppppppppppppEEINtNtCs649FzoMgw5V_4core7convert4FrompE4from0Bb_
FNDA:0,_RNCNvXININtNtCsbhnjpcZuJYb_15hyperlight_host4func14host_functionsss_0pppppppppppppppppppppppppppEINtB7_12HostFunctionNtYpNtNtB9_8ret_type10ResultType10ReturnTypeTpppppppppppppppppppppppppEEINtNtCs649FzoMgw5V_4core7convert4FrompE4froms_0Bb_
FNDA:0,_RNCNvXININtNtCsbhnjpcZuJYb_15hyperlight_host4func14host_functionsst_0ppppppppppppppppppppppppppppEINtB7_12HostFunctionNtYpNtNtB9_8ret_type10ResultType10ReturnTypeTppppppppppppppppppppppppppEEINtNtCs649FzoMgw5V_4core7convert4FrompE4from0Bb_
FNDA:0,_RNCNvXININtNtCsbhnjpcZuJYb_15hyperlight_host4func14host_functionsst_0ppppppppppppppppppppppppppppEINtB7_12HostFunctionNtYpNtNtB9_8ret_type10ResultType10ReturnTypeTppppppppppppppppppppppppppEEINtNtCs649FzoMgw5V_4core7convert4FrompE4froms_0Bb_
FNDA:0,_RNCNvXININtNtCsbhnjpcZuJYb_15hyperlight_host4func14host_functionssu_0pppppppppppppppppppppppppppppEINtB7_12HostFunctionNtYpNtNtB9_8ret_type10ResultType10ReturnTypeTpppppppppppppppppppppppppppEEINtNtCs649FzoMgw5V_4core7convert4FrompE4from0Bb_
FNDA:0,_RNCNvXININtNtCsbhnjpcZuJYb_15hyperlight_host4func14host_functionssu_0pppppppppppppppppppppppppppppEINtB7_12HostFunctionNtYpNtNtB9_8ret_type10ResultType10ReturnTypeTpppppppppppppppppppppppppppEEINtNtCs649FzoMgw5V_4core7convert4FrompE4froms_0Bb_
FNDA:0,_RNCNvXININtNtCsbhnjpcZuJYb_15hyperlight_host4func14host_functionssv_0ppppppppppppppppppppppppppppppEINtB7_12HostFunctionNtYpNtNtB9_8ret_type10ResultType10ReturnTypeTppppppppppppppppppppppppppppEEINtNtCs649FzoMgw5V_4core7convert4FrompE4from0Bb_
FNDA:0,_RNCNvXININtNtCsbhnjpcZuJYb_15hyperlight_host4func14host_functionssv_0ppppppppppppppppppppppppppppppEINtB7_12HostFunctionNtYpNtNtB9_8ret_type10ResultType10ReturnTypeTppppppppppppppppppppppppppppEEINtNtCs649FzoMgw5V_4core7convert4FrompE4froms_0Bb_
FNDA:0,_RNCNvXININtNtCsbhnjpcZuJYb_15hyperlight_host4func14host_functionssw_0pppppppppppppppppppppppppppppppEINtB7_12HostFunctionNtYpNtNtB9_8ret_type10ResultType10ReturnTypeTpppppppppppppppppppppppppppppEEINtNtCs649FzoMgw5V_4core7convert4FrompE4from0Bb_
FNDA:0,_RNCNvXININtNtCsbhnjpcZuJYb_15hyperlight_host4func14host_functionssw_0pppppppppppppppppppppppppppppppEINtB7_12HostFunctionNtYpNtNtB9_8ret_type10ResultType10ReturnTypeTpppppppppppppppppppppppppppppEEINtNtCs649FzoMgw5V_4core7convert4FrompE4froms_0Bb_
FNDA:0,_RNCNvXININtNtCsbhnjpcZuJYb_15hyperlight_host4func14host_functionssx_0ppppppppppppppppppppppppppppppppEINtB7_12HostFunctionNtYpNtNtB9_8ret_type10ResultType10ReturnTypeTppppppppppppppppppppppppppppppEEINtNtCs649FzoMgw5V_4core7convert4FrompE4from0Bb_
FNDA:0,_RNCNvXININtNtCsbhnjpcZuJYb_15hyperlight_host4func14host_functionssx_0ppppppppppppppppppppppppppppppppEINtB7_12HostFunctionNtYpNtNtB9_8ret_type10ResultType10ReturnTypeTppppppppppppppppppppppppppppppEEINtNtCs649FzoMgw5V_4core7convert4FrompE4froms_0Bb_
FNDA:0,_RNCNvXININtNtCsbhnjpcZuJYb_15hyperlight_host4func14host_functionssy_0pppppppppppppppppppppppppppppppppEINtB7_12HostFunctionNtYpNtNtB9_8ret_type10ResultType10ReturnTypeTpppppppppppppppppppppppppppppppEEINtNtCs649FzoMgw5V_4core7convert4FrompE4from0Bb_
FNDA:0,_RNCNvXININtNtCsbhnjpcZuJYb_15hyperlight_host4func14host_functionssy_0pppppppppppppppppppppppppppppppppEINtB7_12HostFunctionNtYpNtNtB9_8ret_type10ResultType10ReturnTypeTpppppppppppppppppppppppppppppppEEINtNtCs649FzoMgw5V_4core7convert4FrompE4froms_0Bb_
FNDA:0,_RNCNvXININtNtCsbhnjpcZuJYb_15hyperlight_host4func14host_functionssz_0ppppppppppppppppppppppppppppppppppEINtB7_12HostFunctionNtYpNtNtB9_8ret_type10ResultType10ReturnTypeTppppppppppppppppppppppppppppppppEEINtNtCs649FzoMgw5V_4core7convert4FrompE4from0Bb_
FNDA:0,_RNCNvXININtNtCsbhnjpcZuJYb_15hyperlight_host4func14host_functionssz_0ppppppppppppppppppppppppppppppppppEINtB7_12HostFunctionNtYpNtNtB9_8ret_type10ResultType10ReturnTypeTppppppppppppppppppppppppppppppppEEINtNtCs649FzoMgw5V_4core7convert4FrompE4froms_0Bb_
FNDA:0,_RNvXININtNtCsbhnjpcZuJYb_15hyperlight_host4func14host_functionss6_0pppppEINtB5_12HostFunctionNtYpNtNtB7_8ret_type10ResultType10ReturnTypeTpppEEINtNtCs649FzoMgw5V_4core7convert4FrompE4fromB9_
FNDA:0,_RNvXININtNtCsbhnjpcZuJYb_15hyperlight_host4func14host_functionss7_0ppppppEINtB5_12HostFunctionNtYpNtNtB7_8ret_type10ResultType10ReturnTypeTppppEEINtNtCs649FzoMgw5V_4core7convert4FrompE4fromB9_
FNDA:0,_RNvXININtNtCsbhnjpcZuJYb_15hyperlight_host4func14host_functionss8_0pppppppEINtB5_12HostFunctionNtYpNtNtB7_8ret_type10ResultType10ReturnTypeTpppppEEINtNtCs649FzoMgw5V_4core7convert4FrompE4fromB9_
FNDA:0,_RNvXININtNtCsbhnjpcZuJYb_15hyperlight_host4func14host_functionss9_0ppppppppEINtB5_12HostFunctionNtYpNtNtB7_8ret_type10ResultType10ReturnTypeTppppppEEINtNtCs649FzoMgw5V_4core7convert4FrompE4fromB9_
FNDA:0,_RNvXININtNtCsbhnjpcZuJYb_15hyperlight_host4func14host_functionssa_0pppppppppEINtB5_12HostFunctionNtYpNtNtB7_8ret_type10ResultType10ReturnTypeTpppppppEEINtNtCs649FzoMgw5V_4core7convert4FrompE4fromB9_
FNDA:0,_RNvXININtNtCsbhnjpcZuJYb_15hyperlight_host4func14host_functionssb_0ppppppppppEINtB5_12HostFunctionNtYpNtNtB7_8ret_type10ResultType10ReturnTypeTppppppppEEINtNtCs649FzoMgw5V_4core7convert4FrompE4fromB9_
FNDA:0,_RNvXININtNtCsbhnjpcZuJYb_15hyperlight_host4func14host_functionssc_0pppppppppppEINtB5_12HostFunctionNtYpNtNtB7_8ret_type10ResultType10ReturnTypeTpppppppppEEINtNtCs649FzoMgw5V_4core7convert4FrompE4fromB9_
FNDA:0,_RNvXININtNtCsbhnjpcZuJYb_15hyperlight_host4func14host_functionssd_0ppppppppppppEINtB5_12HostFunctionNtYpNtNtB7_8ret_type10ResultType10ReturnTypeTppppppppppEEINtNtCs649FzoMgw5V_4core7convert4FrompE4fromB9_
FNDA:0,_RNvXININtNtCsbhnjpcZuJYb_15hyperlight_host4func14host_functionsse_0pppppppppppppEINtB5_12HostFunctionNtYpNtNtB7_8ret_type10ResultType10ReturnTypeTpppppppppppEEINtNtCs649FzoMgw5V_4core7convert4FrompE4fromB9_
FNDA:0,_RNvXININtNtCsbhnjpcZuJYb_15hyperlight_host4func14host_functionssf_0ppppppppppppppEINtB5_12HostFunctionNtYpNtNtB7_8ret_type10ResultType10ReturnTypeTppppppppppppEEINtNtCs649FzoMgw5V_4core7convert4FrompE4fromB9_
FNDA:0,_RNvXININtNtCsbhnjpcZuJYb_15hyperlight_host4func14host_functionssg_0pppppppppppppppEINtB5_12HostFunctionNtYpNtNtB7_8ret_type10ResultType10ReturnTypeTpppppppppppppEEINtNtCs649FzoMgw5V_4core7convert4FrompE4fromB9_
FNDA:0,_RNvXININtNtCsbhnjpcZuJYb_15hyperlight_host4func14host_functionssh_0ppppppppppppppppEINtB5_12HostFunctionNtYpNtNtB7_8ret_type10ResultType10ReturnTypeTppppppppppppppEEINtNtCs649FzoMgw5V_4core7convert4FrompE4fromB9_
FNDA:0,_RNvXININtNtCsbhnjpcZuJYb_15hyperlight_host4func14host_functionssi_0pppppppppppppppppEINtB5_12HostFunctionNtYpNtNtB7_8ret_type10ResultType10ReturnTypeTpppppppppppppppEEINtNtCs649FzoMgw5V_4core7convert4FrompE4fromB9_
FNDA:0,_RNvXININtNtCsbhnjpcZuJYb_15hyperlight_host4func14host_functionssj_0ppppppppppppppppppEINtB5_12HostFunctionNtYpNtNtB7_8ret_type10ResultType10ReturnTypeTppppppppppppppppEEINtNtCs649FzoMgw5V_4core7convert4FrompE4fromB9_
FNDA:0,_RNvXININtNtCsbhnjpcZuJYb_15hyperlight_host4func14host_functionssk_0pppppppppppppppppppEINtB5_12HostFunctionNtYpNtNtB7_8ret_type10ResultType10ReturnTypeTpppppppppppppppppEEINtNtCs649FzoMgw5V_4core7convert4FrompE4fromB9_
FNDA:0,_RNvXININtNtCsbhnjpcZuJYb_15hyperlight_host4func14host_functionssl_0ppppppppppppppppppppEINtB5_12HostFunctionNtYpNtNtB7_8ret_type10ResultType10ReturnTypeTppppppppppppppppppEEINtNtCs649FzoMgw5V_4core7convert4FrompE4fromB9_
FNDA:0,_RNvXININtNtCsbhnjpcZuJYb_15hyperlight_host4func14host_functionssm_0pppppppppppppppppppppEINtB5_12HostFunctionNtYpNtNtB7_8ret_type10ResultType10ReturnTypeTpppppppppppppppppppEEINtNtCs649FzoMgw5V_4core7convert4FrompE4fromB9_
FNDA:0,_RNvXININtNtCsbhnjpcZuJYb_15hyperlight_host4func14host_functionssn_0ppppppppppppppppppppppEINtB5_12HostFunctionNtYpNtNtB7_8ret_type10ResultType10ReturnTypeTppppppppppppppppppppEEINtNtCs649FzoMgw5V_4core7convert4FrompE4fromB9_
FNDA:0,_RNvXININtNtCsbhnjpcZuJYb_15hyperlight_host4func14host_functionsso_0pppppppppppppppppppppppEINtB5_12HostFunctionNtYpNtNtB7_8ret_type10ResultType10ReturnTypeTpppppppppppppppppppppEEINtNtCs649FzoMgw5V_4core7convert4FrompE4fromB9_
FNDA:0,_RNvXININtNtCsbhnjpcZuJYb_15hyperlight_host4func14host_functionssp_0ppppppppppppppppppppppppEINtB5_12HostFunctionNtYpNtNtB7_8ret_type10ResultType10ReturnTypeTppppppppppppppppppppppEEINtNtCs649FzoMgw5V_4core7convert4FrompE4fromB9_
FNDA:0,_RNvXININtNtCsbhnjpcZuJYb_15hyperlight_host4func14host_functionssq_0pppppppppppppppppppppppppEINtB5_12HostFunctionNtYpNtNtB7_8ret_type10ResultType10ReturnTypeTpppppppppppppppppppppppEEINtNtCs649FzoMgw5V_4core7convert4FrompE4fromB9_
FNDA:0,_RNvXININtNtCsbhnjpcZuJYb_15hyperlight_host4func14host_functionssr_0ppppppppppppppppppppppppppEINtB5_12HostFunctionNtYpNtNtB7_8ret_type10ResultType10ReturnTypeTppppppppppppppppppppppppEEINtNtCs649FzoMgw5V_4core7convert4FrompE4fromB9_
FNDA:0,_RNvXININtNtCsbhnjpcZuJYb_15hyperlight_host4func14host_functionsss_0pppppppppppppppppppppppppppEINtB5_12HostFunctionNtYpNtNtB7_8ret_type10ResultType10ReturnTypeTpppppppppppppppppppppppppEEINtNtCs649FzoMgw5V_4core7convert4FrompE4fromB9_
FNDA:0,_RNvXININtNtCsbhnjpcZuJYb_15hyperlight_host4func14host_functionsst_0ppppppppppppppppppppppppppppEINtB5_12HostFunctionNtYpNtNtB7_8ret_type10ResultType10ReturnTypeTppppppppppppppppppppppppppEEINtNtCs649FzoMgw5V_4core7convert4FrompE4fromB9_
FNDA:0,_RNvXININtNtCsbhnjpcZuJYb_15hyperlight_host4func14host_functionssu_0pppppppppppppppppppppppppppppEINtB5_12HostFunctionNtYpNtNtB7_8ret_type10ResultType10ReturnTypeTpppppppppppppppppppppppppppEEINtNtCs649FzoMgw5V_4core7convert4FrompE4fromB9_
FNDA:0,_RNvXININtNtCsbhnjpcZuJYb_15hyperlight_host4func14host_functionssv_0ppppppppppppppppppppppppppppppEINtB5_12HostFunctionNtYpNtNtB7_8ret_type10ResultType10ReturnTypeTppppppppppppppppppppppppppppEEINtNtCs649FzoMgw5V_4core7convert4FrompE4fromB9_
FNDA:0,_RNvXININtNtCsbhnjpcZuJYb_15hyperlight_host4func14host_functionssw_0pppppppppppppppppppppppppppppppEINtB5_12HostFunctionNtYpNtNtB7_8ret_type10ResultType10ReturnTypeTpppppppppppppppppppppppppppppEEINtNtCs649FzoMgw5V_4core7convert4FrompE4fromB9_
FNDA:0,_RNvXININtNtCsbhnjpcZuJYb_15hyperlight_host4func14host_functionssx_0ppppppppppppppppppppppppppppppppEINtB5_12HostFunctionNtYpNtNtB7_8ret_type10ResultType10ReturnTypeTppppppppppppppppppppppppppppppEEINtNtCs649FzoMgw5V_4core7convert4FrompE4fromB9_
FNDA:0,_RNvXININtNtCsbhnjpcZuJYb_15hyperlight_host4func14host_functionssy_0pppppppppppppppppppppppppppppppppEINtB5_12HostFunctionNtYpNtNtB7_8ret_type10ResultType10ReturnTypeTpppppppppppppppppppppppppppppppEEINtNtCs649FzoMgw5V_4core7convert4FrompE4fromB9_
FNDA:0,_RNvXININtNtCsbhnjpcZuJYb_15hyperlight_host4func14host_functionssz_0ppppppppppppppppppppppppppppppppppEINtB5_12HostFunctionNtYpNtNtB7_8ret_type10ResultType10ReturnTypeTppppppppppppppppppppppppppppppppEEINtNtCs649FzoMgw5V_4core7convert4FrompE4fromB9_
FNDA:25,_RINvNtNtCs9Wvk7SR8Ovp_15hyperlight_host4func14host_functions22register_host_functionTNtNtCs7h7qHWfF5BF_5alloc6string6StringElNvNtNtB6_7sandbox10host_funcs19default_writer_funcECsbapp4F1MeKm_16integration_test
FNDA:1,_RINvNtNtCs9Wvk7SR8Ovp_15hyperlight_host4func14host_functions22register_host_functionuuNCNvCsbapp4F1MeKm_16integration_tests_19interrupt_host_call0EB1q_
FNDA:1,_RINvNtNtCs9Wvk7SR8Ovp_15hyperlight_host4func14host_functions22register_host_functionuuNCNvCsbapp4F1MeKm_16integration_tests_28interrupt_spamming_host_call0EB1q_
FNDA:0,_RNCINvNtNtCs9Wvk7SR8Ovp_15hyperlight_host4func14host_functions22register_host_functionTNtNtCs7h7qHWfF5BF_5alloc6string6StringElNvNtNtB8_7sandbox10host_funcs19default_writer_funcE0Csbapp4F1MeKm_16integration_test
FNDA:0,_RNCINvNtNtCs9Wvk7SR8Ovp_15hyperlight_host4func14host_functions22register_host_functionuuNCNvCsbapp4F1MeKm_16integration_tests_19interrupt_host_call0E0B1s_
FNDA:0,_RNCINvNtNtCs9Wvk7SR8Ovp_15hyperlight_host4func14host_functions22register_host_functionuuNCNvCsbapp4F1MeKm_16integration_tests_28interrupt_spamming_host_call0E0B1s_
FNDA:0,_RNCNCNvXs3_NtNtCs9Wvk7SR8Ovp_15hyperlight_host4func14host_functionsINtB9_12HostFunctionuuEINtNtCs649FzoMgw5V_4core7convert4FromNCNvCsbapp4F1MeKm_16integration_tests_19interrupt_host_call0E4froms_00B25_
FNDA:0,_RNCNCNvXs3_NtNtCs9Wvk7SR8Ovp_15hyperlight_host4func14host_functionsINtB9_12HostFunctionuuEINtNtCs649FzoMgw5V_4core7convert4FromNCNvCsbapp4F1MeKm_16integration_tests_28interrupt_spamming_host_call0E4froms_00B25_
FNDA:0,_RNCNCNvXs4_NtNtCs9Wvk7SR8Ovp_15hyperlight_host4func14host_functionsINtB9_12HostFunctionlTNtNtCs7h7qHWfF5BF_5alloc6string6StringEEINtNtCs649FzoMgw5V_4core7convert4FromNvNtNtBd_7sandbox10host_funcs19default_writer_funcE4froms_00Csbapp4F1MeKm_16integration_test
FNDA:0,_RNCNvXs1_NtNtCs9Wvk7SR8Ovp_15hyperlight_host4func14host_functionsNtB7_22TypeErasedHostFunctionINtNtCs649FzoMgw5V_4core7convert4FromINtB7_12HostFunctionlTNtNtCs7h7qHWfF5BF_5alloc6string6StringEEE4from0Csbapp4F1MeKm_16integration_test
FNDA:0,_RNCNvXs1_NtNtCs9Wvk7SR8Ovp_15hyperlight_host4func14host_functionsNtB7_22TypeErasedHostFunctionINtNtCs649FzoMgw5V_4core7convert4FromINtB7_12HostFunctionuuEE4from0Csbapp4F1MeKm_16integration_test
FNDA:0,_RNCNvXs3_NtNtCs9Wvk7SR8Ovp_15hyperlight_host4func14host_functionsINtB7_12HostFunctionuuEINtNtCs649FzoMgw5V_4core7convert4FromNCNvCsbapp4F1MeKm_16integration_tests_19interrupt_host_call0E4from0B23_
FNDA:0,_RNCNvXs3_NtNtCs9Wvk7SR8Ovp_15hyperlight_host4func14host_functionsINtB7_12HostFunctionuuEINtNtCs649FzoMgw5V_4core7convert4FromNCNvCsbapp4F1MeKm_16integration_tests_19interrupt_host_call0E4froms_0B23_
FNDA:0,_RNCNvXs3_NtNtCs9Wvk7SR8Ovp_15hyperlight_host4func14host_functionsINtB7_12HostFunctionuuEINtNtCs649FzoMgw5V_4core7convert4FromNCNvCsbapp4F1MeKm_16integration_tests_28interrupt_spamming_host_call0E4from0B23_
FNDA:0,_RNCNvXs3_NtNtCs9Wvk7SR8Ovp_15hyperlight_host4func14host_functionsINtB7_12HostFunctionuuEINtNtCs649FzoMgw5V_4core7convert4FromNCNvCsbapp4F1MeKm_16integration_tests_28interrupt_spamming_host_call0E4froms_0B23_
FNDA:0,_RNCNvXs4_NtNtCs9Wvk7SR8Ovp_15hyperlight_host4func14host_functionsINtB7_12HostFunctionlTNtNtCs7h7qHWfF5BF_5alloc6string6StringEEINtNtCs649FzoMgw5V_4core7convert4FromNvNtNtBb_7sandbox10host_funcs19default_writer_funcE4from0Csbapp4F1MeKm_16integration_test
FNDA:0,_RNCNvXs4_NtNtCs9Wvk7SR8Ovp_15hyperlight_host4func14host_functionsINtB7_12HostFunctionlTNtNtCs7h7qHWfF5BF_5alloc6string6StringEEINtNtCs649FzoMgw5V_4core7convert4FromNvNtNtBb_7sandbox10host_funcs19default_writer_funcE4froms_0Csbapp4F1MeKm_16integration_test
FNDA:0,_RNvMs_NtNtCs9Wvk7SR8Ovp_15hyperlight_host4func14host_functionsINtB4_12HostFunctionlTNtNtCs7h7qHWfF5BF_5alloc6string6StringEE4callCsbapp4F1MeKm_16integration_test
FNDA:0,_RNvMs_NtNtCs9Wvk7SR8Ovp_15hyperlight_host4func14host_functionsINtB4_12HostFunctionuuE4callCsbapp4F1MeKm_16integration_test
FNDA:25,_RNvXs1_NtNtCs9Wvk7SR8Ovp_15hyperlight_host4func14host_functionsNtB5_22TypeErasedHostFunctionINtNtCs649FzoMgw5V_4core7convert4FromINtB5_12HostFunctionlTNtNtCs7h7qHWfF5BF_5alloc6string6StringEEE4fromCsbapp4F1MeKm_16integration_test
FNDA:2,_RNvXs1_NtNtCs9Wvk7SR8Ovp_15hyperlight_host4func14host_functionsNtB5_22TypeErasedHostFunctionINtNtCs649FzoMgw5V_4core7convert4FromINtB5_12HostFunctionuuEE4fromCsbapp4F1MeKm_16integration_test
FNDA:1,_RNvXs3_NtNtCs9Wvk7SR8Ovp_15hyperlight_host4func14host_functionsINtB5_12HostFunctionuuEINtNtCs649FzoMgw5V_4core7convert4FromNCNvCsbapp4F1MeKm_16integration_tests_19interrupt_host_call0E4fromB21_
FNDA:1,_RNvXs3_NtNtCs9Wvk7SR8Ovp_15hyperlight_host4func14host_functionsINtB5_12HostFunctionuuEINtNtCs649FzoMgw5V_4core7convert4FromNCNvCsbapp4F1MeKm_16integration_tests_28interrupt_spamming_host_call0E4fromB21_
FNDA:25,_RNvXs4_NtNtCs9Wvk7SR8Ovp_15hyperlight_host4func14host_functionsINtB5_12HostFunctionlTNtNtCs7h7qHWfF5BF_5alloc6string6StringEEINtNtCs649FzoMgw5V_4core7convert4FromNvNtNtB9_7sandbox10host_funcs19default_writer_funcE4fromCsbapp4F1MeKm_16integration_test
FNDA:0,_RINvNtNtCs9Wvk7SR8Ovp_15hyperlight_host4func14host_functions22register_host_functionpppEB6_
FNDA:0,_RINvXNtNtCs9Wvk7SR8Ovp_15hyperlight_host4func14host_functionsNtNtNtB7_7sandbox13uninitialized20UninitializedSandboxNtB3_12Registerable22register_host_functionpppEB7_
FNDA:0,_RINvXNtNtCs9Wvk7SR8Ovp_15hyperlight_host4func14host_functionsNtNtNtB7_7sandbox13uninitialized20UninitializedSandboxNtB3_12Registerable36register_host_function_with_syscallspppEB7_
FNDA:0,_RNCINvNtNtCs9Wvk7SR8Ovp_15hyperlight_host4func14host_functions22register_host_functionpppE0B8_
FNDA:0,_RNCINvXNtNtCs9Wvk7SR8Ovp_15hyperlight_host4func14host_functionsNtNtNtB9_7sandbox13uninitialized20UninitializedSandboxNtB5_12Registerable22register_host_functionpppE0B9_
FNDA:0,_RNCINvXNtNtCs9Wvk7SR8Ovp_15hyperlight_host4func14host_functionsNtNtNtB9_7sandbox13uninitialized20UninitializedSandboxNtB5_12Registerable36register_host_function_with_syscallspppE0B9_
FNDA:0,_RNCNCNvXININtNtCs9Wvk7SR8Ovp_15hyperlight_host4func14host_functionss3_0ppEINtB9_12HostFunctionNtYpNtNtBb_8ret_type10ResultType10ReturnTypeuEINtNtCs649FzoMgw5V_4core7convert4FrompE4froms_00Bd_
FNDA:0,_RNCNCNvXININtNtCs9Wvk7SR8Ovp_15hyperlight_host4func14host_functionss4_0pppEINtB9_12HostFunctionNtYpNtNtBb_8ret_type10ResultType10ReturnTypeTpEEINtNtCs649FzoMgw5V_4core7convert4FrompE4froms_00Bd_
FNDA:0,_RNCNCNvXININtNtCs9Wvk7SR8Ovp_15hyperlight_host4func14host_functionss5_0ppppEINtB9_12HostFunctionNtYpNtNtBb_8ret_type10ResultType10ReturnTypeTppEEINtNtCs649FzoMgw5V_4core7convert4FrompE4froms_00Bd_
FNDA:0,_RNCNCNvXININtNtCs9Wvk7SR8Ovp_15hyperlight_host4func14host_functionss6_0pppppEINtB9_12HostFunctionNtYpNtNtBb_8ret_type10ResultType10ReturnTypeTpppEEINtNtCs649FzoMgw5V_4core7convert4FrompE4froms_00Bd_
FNDA:0,_RNCNCNvXININtNtCs9Wvk7SR8Ovp_15hyperlight_host4func14host_functionss7_0ppppppEINtB9_12HostFunctionNtYpNtNtBb_8ret_type10ResultType10ReturnTypeTppppEEINtNtCs649FzoMgw5V_4core7convert4FrompE4froms_00Bd_
FNDA:0,_RNCNCNvXININtNtCs9Wvk7SR8Ovp_15hyperlight_host4func14host_functionss8_0pppppppEINtB9_12HostFunctionNtYpNtNtBb_8ret_type10ResultType10ReturnTypeTpppppEEINtNtCs649FzoMgw5V_4core7convert4FrompE4froms_00Bd_
FNDA:0,_RNCNCNvXININtNtCs9Wvk7SR8Ovp_15hyperlight_host4func14host_functionss9_0ppppppppEINtB9_12HostFunctionNtYpNtNtBb_8ret_type10ResultType10ReturnTypeTppppppEEINtNtCs649FzoMgw5V_4core7convert4FrompE4froms_00Bd_
FNDA:0,_RNCNCNvXININtNtCs9Wvk7SR8Ovp_15hyperlight_host4func14host_functionssa_0pppppppppEINtB9_12HostFunctionNtYpNtNtBb_8ret_type10ResultType10ReturnTypeTpppppppEEINtNtCs649FzoMgw5V_4core7convert4FrompE4froms_00Bd_
FNDA:0,_RNCNCNvXININtNtCs9Wvk7SR8Ovp_15hyperlight_host4func14host_functionssb_0ppppppppppEINtB9_12HostFunctionNtYpNtNtBb_8ret_type10ResultType10ReturnTypeTppppppppEEINtNtCs649FzoMgw5V_4core7convert4FrompE4froms_00Bd_
FNDA:0,_RNCNCNvXININtNtCs9Wvk7SR8Ovp_15hyperlight_host4func14host_functionssc_0pppppppppppEINtB9_12HostFunctionNtYpNtNtBb_8ret_type10ResultType10ReturnTypeTpppppppppEEINtNtCs649FzoMgw5V_4core7convert4FrompE4froms_00Bd_
FNDA:0,_RNCNCNvXININtNtCs9Wvk7SR8Ovp_15hyperlight_host4func14host_functionssd_0ppppppppppppEINtB9_12HostFunctionNtYpNtNtBb_8ret_type10ResultType10ReturnTypeTppppppppppEEINtNtCs649FzoMgw5V_4core7convert4FrompE4froms_00Bd_
FNDA:0,_RNCNCNvXININtNtCs9Wvk7SR8Ovp_15hyperlight_host4func14host_functionsse_0pppppppppppppEINtB9_12HostFunctionNtYpNtNtBb_8ret_type10ResultType10ReturnTypeTpppppppppppEEINtNtCs649FzoMgw5V_4core7convert4FrompE4froms_00Bd_
FNDA:0,_RNCNCNvXININtNtCs9Wvk7SR8Ovp_15hyperlight_host4func14host_functionssf_0ppppppppppppppEINtB9_12HostFunctionNtYpNtNtBb_8ret_type10ResultType10ReturnTypeTppppppppppppEEINtNtCs649FzoMgw5V_4core7convert4FrompE4froms_00Bd_
FNDA:0,_RNCNCNvXININtNtCs9Wvk7SR8Ovp_15hyperlight_host4func14host_functionssg_0pppppppppppppppEINtB9_12HostFunctionNtYpNtNtBb_8ret_type10ResultType10ReturnTypeTpppppppppppppEEINtNtCs649FzoMgw5V_4core7convert4FrompE4froms_00Bd_
FNDA:0,_RNCNCNvXININtNtCs9Wvk7SR8Ovp_15hyperlight_host4func14host_functionssh_0ppppppppppppppppEINtB9_12HostFunctionNtYpNtNtBb_8ret_type10ResultType10ReturnTypeTppppppppppppppEEINtNtCs649FzoMgw5V_4core7convert4FrompE4froms_00Bd_
FNDA:0,_RNCNCNvXININtNtCs9Wvk7SR8Ovp_15hyperlight_host4func14host_functionssi_0pppppppppppppppppEINtB9_12HostFunctionNtYpNtNtBb_8ret_type10ResultType10ReturnTypeTpppppppppppppppEEINtNtCs649FzoMgw5V_4core7convert4FrompE4froms_00Bd_
FNDA:0,_RNCNCNvXININtNtCs9Wvk7SR8Ovp_15hyperlight_host4func14host_functionssj_0ppppppppppppppppppEINtB9_12HostFunctionNtYpNtNtBb_8ret_type10ResultType10ReturnTypeTppppppppppppppppEEINtNtCs649FzoMgw5V_4core7convert4FrompE4froms_00Bd_
FNDA:0,_RNCNCNvXININtNtCs9Wvk7SR8Ovp_15hyperlight_host4func14host_functionssk_0pppppppppppppppppppEINtB9_12HostFunctionNtYpNtNtBb_8ret_type10ResultType10ReturnTypeTpppppppppppppppppEEINtNtCs649FzoMgw5V_4core7convert4FrompE4froms_00Bd_
FNDA:0,_RNCNCNvXININtNtCs9Wvk7SR8Ovp_15hyperlight_host4func14host_functionssl_0ppppppppppppppppppppEINtB9_12HostFunctionNtYpNtNtBb_8ret_type10ResultType10ReturnTypeTppppppppppppppppppEEINtNtCs649FzoMgw5V_4core7convert4FrompE4froms_00Bd_
FNDA:0,_RNCNCNvXININtNtCs9Wvk7SR8Ovp_15hyperlight_host4func14host_functionssm_0pppppppppppppppppppppEINtB9_12HostFunctionNtYpNtNtBb_8ret_type10ResultType10ReturnTypeTpppppppppppppppppppEEINtNtCs649FzoMgw5V_4core7convert4FrompE4froms_00Bd_
FNDA:0,_RNCNCNvXININtNtCs9Wvk7SR8Ovp_15hyperlight_host4func14host_functionssn_0ppppppppppppppppppppppEINtB9_12HostFunctionNtYpNtNtBb_8ret_type10ResultType10ReturnTypeTppppppppppppppppppppEEINtNtCs649FzoMgw5V_4core7convert4FrompE4froms_00Bd_
FNDA:0,_RNCNCNvXININtNtCs9Wvk7SR8Ovp_15hyperlight_host4func14host_functionsso_0pppppppppppppppppppppppEINtB9_12HostFunctionNtYpNtNtBb_8ret_type10ResultType10ReturnTypeTpppppppppppppppppppppEEINtNtCs649FzoMgw5V_4core7convert4FrompE4froms_00Bd_
FNDA:0,_RNCNCNvXININtNtCs9Wvk7SR8Ovp_15hyperlight_host4func14host_functionssp_0ppppppppppppppppppppppppEINtB9_12HostFunctionNtYpNtNtBb_8ret_type10ResultType10ReturnTypeTppppppppppppppppppppppEEINtNtCs649FzoMgw5V_4core7convert4FrompE4froms_00Bd_
FNDA:0,_RNCNCNvXININtNtCs9Wvk7SR8Ovp_15hyperlight_host4func14host_functionssq_0pppppppppppppppppppppppppEINtB9_12HostFunctionNtYpNtNtBb_8ret_type10ResultType10ReturnTypeTpppppppppppppppppppppppEEINtNtCs649FzoMgw5V_4core7convert4FrompE4froms_00Bd_
FNDA:0,_RNCNCNvXININtNtCs9Wvk7SR8Ovp_15hyperlight_host4func14host_functionssr_0ppppppppppppppppppppppppppEINtB9_12HostFunctionNtYpNtNtBb_8ret_type10ResultType10ReturnTypeTppppppppppppppppppppppppEEINtNtCs649FzoMgw5V_4core7convert4FrompE4froms_00Bd_
FNDA:0,_RNCNCNvXININtNtCs9Wvk7SR8Ovp_15hyperlight_host4func14host_functionsss_0pppppppppppppppppppppppppppEINtB9_12HostFunctionNtYpNtNtBb_8ret_type10ResultType10ReturnTypeTpppppppppppppppppppppppppEEINtNtCs649FzoMgw5V_4core7convert4FrompE4froms_00Bd_
FNDA:0,_RNCNCNvXININtNtCs9Wvk7SR8Ovp_15hyperlight_host4func14host_functionsst_0ppppppppppppppppppppppppppppEINtB9_12HostFunctionNtYpNtNtBb_8ret_type10ResultType10ReturnTypeTppppppppppppppppppppppppppEEINtNtCs649FzoMgw5V_4core7convert4FrompE4froms_00Bd_
